
firmware.elf:     file format elf32-littlearm


Disassembly of section .text:

00000000 <_text>:
       0:	10002000 	.word	0x10002000
       4:	00000689 	.word	0x00000689
       8:	000006bd 	.word	0x000006bd
       c:	000006bf 	.word	0x000006bf
      10:	000006c1 	.word	0x000006c1
      14:	000006c3 	.word	0x000006c3
      18:	000006c5 	.word	0x000006c5
      1c:	ffffffff 	.word	0xffffffff
	...
      2c:	000006c7 	.word	0x000006c7
      30:	000006c9 	.word	0x000006c9
      34:	00000000 	.word	0x00000000
      38:	000006cb 	.word	0x000006cb
      3c:	000006cd 	.word	0x000006cd
      40:	000006cf 	.word	0x000006cf
      44:	000006cf 	.word	0x000006cf
      48:	000006cf 	.word	0x000006cf
      4c:	000006cf 	.word	0x000006cf
      50:	000006cf 	.word	0x000006cf
      54:	000006cf 	.word	0x000006cf
      58:	000006cf 	.word	0x000006cf
      5c:	000006cf 	.word	0x000006cf
      60:	000006cf 	.word	0x000006cf
      64:	000006cf 	.word	0x000006cf
      68:	000006cf 	.word	0x000006cf
      6c:	000006cf 	.word	0x000006cf
      70:	000006cf 	.word	0x000006cf
      74:	000006cf 	.word	0x000006cf
      78:	000006cf 	.word	0x000006cf
      7c:	000006cf 	.word	0x000006cf
      80:	000006cf 	.word	0x000006cf
      84:	000006cf 	.word	0x000006cf
      88:	000006cf 	.word	0x000006cf
      8c:	000006cf 	.word	0x000006cf
      90:	000006cf 	.word	0x000006cf
      94:	000006cf 	.word	0x000006cf
      98:	000006cf 	.word	0x000006cf
      9c:	000006cf 	.word	0x000006cf
      a0:	000006cf 	.word	0x000006cf
      a4:	000006cf 	.word	0x000006cf
      a8:	000006cf 	.word	0x000006cf
      ac:	000006cf 	.word	0x000006cf
      b0:	000006cf 	.word	0x000006cf
      b4:	000006cf 	.word	0x000006cf
      b8:	000006cf 	.word	0x000006cf
      bc:	000006cf 	.word	0x000006cf
      c0:	000006cf 	.word	0x000006cf
      c4:	000006cf 	.word	0x000006cf
      c8:	000006cf 	.word	0x000006cf
      cc:	000006cf 	.word	0x000006cf
      d0:	000006cf 	.word	0x000006cf
      d4:	000006cf 	.word	0x000006cf
      d8:	000006cf 	.word	0x000006cf
      dc:	000006cf 	.word	0x000006cf
      e0:	000006d1 	.word	0x000006d1
      e4:	000006d3 	.word	0x000006d3
      e8:	000006d7 	.word	0x000006d7
      ec:	000006db 	.word	0x000006db
      f0:	000006df 	.word	0x000006df
      f4:	000006e1 	.word	0x000006e1
      f8:	000006e3 	.word	0x000006e3
      fc:	000006e5 	.word	0x000006e5
     100:	000006e9 	.word	0x000006e9
     104:	000006eb 	.word	0x000006eb
     108:	000006ed 	.word	0x000006ed
     10c:	000006ef 	.word	0x000006ef
     110:	000006f1 	.word	0x000006f1
     114:	000006f3 	.word	0x000006f3
     118:	000006f5 	.word	0x000006f5
     11c:	000006f7 	.word	0x000006f7
     120:	000006f9 	.word	0x000006f9
	...
     2fc:	ffffffff 	.word	0xffffffff
	...

00000400 <board_init>:
     400:	b508      	push	{r3, lr}
     402:	f002 fe25 	bl	3050 <remap_vectors_to_flash>
     406:	f003 fc81 	bl	3d0c <runcfg_irc_out_power_on>
     40a:	f003 fc8b 	bl	3d24 <runcfg_irc_power_on>
     40e:	f003 fc95 	bl	3d3c <runcfg_flash_power_on>
     412:	f003 fca5 	bl	3d60 <runcfg_bod_power_off>
     416:	f003 fca9 	bl	3d6c <runcfg_adc_power_on>
     41a:	f003 fcb9 	bl	3d90 <runcfg_sysosc_power_off>
     41e:	f003 fcc3 	bl	3da8 <runcfg_wdtosc_power_off>
     422:	f003 fccd 	bl	3dc0 <runcfg_syspll_power_off>
     426:	f003 fcd7 	bl	3dd8 <runcfg_usbpll_power_off>
     42a:	f003 fcdb 	bl	3de4 <runcfg_usbphy_power_on>
     42e:	2001      	movs	r0, #1
     430:	f003 fb54 	bl	3adc <sysahbclk_set_divider>
     434:	f003 fb58 	bl	3ae8 <sysahbclk_ahb2apb_bridge_enable_clock>
     438:	f003 fb62 	bl	3b00 <sysahbclk_rom_enable_clock>
     43c:	f003 fb6c 	bl	3b18 <sysahbclk_ram_enable_clock>
     440:	f003 fb76 	bl	3b30 <sysahbclk_flashreg_enable_clock>
     444:	f003 fb80 	bl	3b48 <sysahbclk_flasharray_enable_clock>
     448:	f003 fb96 	bl	3b78 <sysahbclk_gpio_enable_clock>
     44c:	f003 fba0 	bl	3b90 <sysahbclk_ct16b0_enable_clock>
     450:	f003 fbaa 	bl	3ba8 <sysahbclk_ct16b1_enable_clock>
     454:	f003 fbb4 	bl	3bc0 <sysahbclk_ct32b0_enable_clock>
     458:	f003 fbbe 	bl	3bd8 <sysahbclk_ct32b1_enable_clock>
     45c:	f003 fbc2 	bl	3be4 <sysahbclk_ssp_disable_clock>
     460:	f003 fbcc 	bl	3bfc <sysahbclk_uart_disable_clock>
     464:	f003 fbdc 	bl	3c20 <sysahbclk_adc_enable_clock>
     468:	f003 fbe6 	bl	3c38 <sysahbclk_usbreg_enable_clock>
     46c:	f003 fbea 	bl	3c44 <sysahbclk_wdt_disable_clock>
     470:	f003 fbfa 	bl	3c68 <sysahbclk_iocon_enable_clock>
     474:	f003 fa08 	bl	3888 <sysosc_enable_1MHz_20MHz>
     478:	f003 fc84 	bl	3d84 <runcfg_sysosc_power_on>
     47c:	f44f 70fa 	mov.w	r0, #500	; 0x1f4
     480:	f000 fdb2 	bl	fe8 <delay_ticks>
     484:	f003 fa42 	bl	390c <syspll_set_clock_source_sysosc>
     488:	f44f 70fa 	mov.w	r0, #500	; 0x1f4
     48c:	f000 fdac 	bl	fe8 <delay_ticks>
     490:	f002 fff8 	bl	3484 <syspll_set_dividers_12MHz_to_72Mhz>
     494:	f003 fc8e 	bl	3db4 <runcfg_syspll_power_on>
     498:	f002 fffb 	bl	3492 <syspll_is_locked>
     49c:	b908      	cbnz	r0, 4a2 <board_init+0xa2>
     49e:	bf00      	nop
     4a0:	e7fa      	b.n	498 <board_init+0x98>
     4a2:	f003 faf7 	bl	3a94 <mainclk_set_clock_source_syspll_out>
     4a6:	f003 fa71 	bl	398c <usbpll_set_clock_source_sysosc>
     4aa:	f44f 70fa 	mov.w	r0, #500	; 0x1f4
     4ae:	f000 fd9b 	bl	fe8 <delay_ticks>
     4b2:	f003 f9cd 	bl	3850 <usbpll_set_dividers_12MHz_to_48Mhz>
     4b6:	f003 fc89 	bl	3dcc <runcfg_usbpll_power_on>
     4ba:	f003 f9d0 	bl	385e <usbpll_is_locked>
     4be:	b908      	cbnz	r0, 4c4 <board_init+0xc4>
     4c0:	bf00      	nop
     4c2:	e7fa      	b.n	4ba <board_init+0xba>
     4c4:	2001      	movs	r0, #1
     4c6:	f003 fc1b 	bl	3d00 <usbclk_set_divider>
     4ca:	f44f 70fa 	mov.w	r0, #500	; 0x1f4
     4ce:	f000 fd8b 	bl	fe8 <delay_ticks>
     4d2:	f003 fbcf 	bl	3c74 <usbclk_set_clock_source_usbpll_out>
     4d6:	f001 ff3b 	bl	2350 <iocfg_pio3_1_set_func_gpio>
     4da:	f001 ff53 	bl	2384 <iocfg_pio3_1_set_resistor_pull_up>
     4de:	f001 ff65 	bl	23ac <iocfg_pio3_1_set_hysteresis_disable>
     4e2:	f002 f8e9 	bl	26b8 <iocfg_pio3_2_set_func_gpio>
     4e6:	f002 f901 	bl	26ec <iocfg_pio3_2_set_resistor_pull_up>
     4ea:	f002 f913 	bl	2714 <iocfg_pio3_2_set_hysteresis_disable>
     4ee:	f002 fa1f 	bl	2930 <iocfg_pio3_3_set_func_gpio>
     4f2:	f002 fa37 	bl	2964 <iocfg_pio3_3_set_resistor_pull_up>
     4f6:	f002 fa49 	bl	298c <iocfg_pio3_3_set_hysteresis_disable>
     4fa:	f001 fbf3 	bl	1ce4 <iocfg_pio0_10_set_func_gpio>
     4fe:	f001 fc35 	bl	1d6c <iocfg_pio0_10_set_resistor_pull_up>
     502:	f001 fc47 	bl	1d94 <iocfg_pio0_10_set_hysteresis_disable>
     506:	f001 f90d 	bl	1724 <iocfg_pio1_9_set_func_gpio>
     50a:	f001 f933 	bl	1774 <iocfg_pio1_9_set_resistor_pull_up>
     50e:	f001 f945 	bl	179c <iocfg_pio1_9_set_hysteresis_disable>
     512:	f001 fc4b 	bl	1dac <iocfg_pio1_10_set_func_gpio>
     516:	f001 fc8f 	bl	1e38 <iocfg_pio1_10_set_resistor_pull_up>
     51a:	f001 fca1 	bl	1e60 <iocfg_pio1_10_set_hysteresis_disable>
     51e:	f002 f877 	bl	2610 <iocfg_pio1_11_set_func_gpio>
     522:	f002 f8a9 	bl	2678 <iocfg_pio1_11_set_resistor_pull_up>
     526:	f002 f8bb 	bl	26a0 <iocfg_pio1_11_set_hysteresis_disable>
     52a:	f000 fde5 	bl	10f8 <iocfg_pio2_0_set_func_gpio>
     52e:	f000 fe0b 	bl	1148 <iocfg_pio2_0_set_resistor_pull_up>
     532:	f000 fe1d 	bl	1170 <iocfg_pio2_0_set_hysteresis_disable>
     536:	f000 ffe5 	bl	1504 <iocfg_pio2_1_set_func_gpio>
     53a:	f001 f80b 	bl	1554 <iocfg_pio2_1_set_resistor_pull_up>
     53e:	f001 f81d 	bl	157c <iocfg_pio2_1_set_hysteresis_disable>
     542:	f001 fac7 	bl	1ad4 <iocfg_pio2_2_set_func_gpio>
     546:	f001 faed 	bl	1b24 <iocfg_pio2_2_set_resistor_pull_up>
     54a:	f001 faff 	bl	1b4c <iocfg_pio2_2_set_hysteresis_disable>
     54e:	f001 ff39 	bl	23c4 <iocfg_pio2_3_set_func_gpio>
     552:	f001 ff5f 	bl	2414 <iocfg_pio2_3_set_resistor_pull_up>
     556:	f001 ff71 	bl	243c <iocfg_pio2_3_set_hysteresis_disable>
     55a:	f001 f92b 	bl	17b4 <iocfg_pio2_4_set_func_gpio>
     55e:	f001 f943 	bl	17e8 <iocfg_pio2_4_set_resistor_pull_up>
     562:	f001 f955 	bl	1810 <iocfg_pio2_4_set_hysteresis_disable>
     566:	f001 f95f 	bl	1828 <iocfg_pio2_5_set_func_gpio>
     56a:	f001 f977 	bl	185c <iocfg_pio2_5_set_resistor_pull_up>
     56e:	f001 f989 	bl	1884 <iocfg_pio2_5_set_hysteresis_disable>
     572:	f000 fd87 	bl	1084 <iocfg_pio2_6_set_func_gpio>
     576:	f000 fd9f 	bl	10b8 <iocfg_pio2_6_set_resistor_pull_up>
     57a:	f000 fdb1 	bl	10e0 <iocfg_pio2_6_set_hysteresis_disable>
     57e:	f000 ff4d 	bl	141c <iocfg_pio2_7_set_func_gpio>
     582:	f000 ff65 	bl	1450 <iocfg_pio2_7_set_resistor_pull_up>
     586:	f000 ff77 	bl	1478 <iocfg_pio2_7_set_hysteresis_disable>
     58a:	f000 ff81 	bl	1490 <iocfg_pio2_8_set_func_gpio>
     58e:	f000 ff99 	bl	14c4 <iocfg_pio2_8_set_resistor_pull_up>
     592:	f000 ffab 	bl	14ec <iocfg_pio2_8_set_hysteresis_disable>
     596:	f001 fa29 	bl	19ec <iocfg_pio2_9_set_func_gpio>
     59a:	f001 fa41 	bl	1a20 <iocfg_pio2_9_set_resistor_pull_up>
     59e:	f001 fa53 	bl	1a48 <iocfg_pio2_9_set_hysteresis_disable>
     5a2:	f001 fd41 	bl	2028 <iocfg_pio1_0_set_func_gpio>
     5a6:	f001 fd89 	bl	20bc <iocfg_pio1_0_set_resistor_pull_up>
     5aa:	f001 fd9b 	bl	20e4 <iocfg_pio1_0_set_hysteresis_disable>
     5ae:	f001 fdb3 	bl	2118 <iocfg_pio1_1_set_func_gpio>
     5b2:	f001 fdfb 	bl	21ac <iocfg_pio1_1_set_resistor_pull_up>
     5b6:	f001 fe0d 	bl	21d4 <iocfg_pio1_1_set_hysteresis_disable>
     5ba:	f001 fe25 	bl	2208 <iocfg_pio1_2_set_func_gpio>
     5be:	f001 fe6d 	bl	229c <iocfg_pio1_2_set_resistor_pull_up>
     5c2:	f001 fe7f 	bl	22c4 <iocfg_pio1_2_set_hysteresis_disable>
     5c6:	f001 ff53 	bl	2470 <iocfg_pio1_3_set_func_gpio>
     5ca:	f001 ff9b 	bl	2504 <iocfg_pio1_3_set_resistor_pull_up>
     5ce:	f001 ffad 	bl	252c <iocfg_pio1_3_set_hysteresis_disable>
     5d2:	f001 ffb7 	bl	2544 <iocfg_pio1_4_set_func_gpio>
     5d6:	f001 fffb 	bl	25d0 <iocfg_pio1_4_set_resistor_pull_up>
     5da:	f002 f80d 	bl	25f8 <iocfg_pio1_4_set_hysteresis_disable>
     5de:	f002 f8a5 	bl	272c <iocfg_pio1_5_set_func_gpio>
     5e2:	f002 f8d9 	bl	2798 <iocfg_pio1_5_set_resistor_pull_up>
     5e6:	f002 f8eb 	bl	27c0 <iocfg_pio1_5_set_hysteresis_disable>
     5ea:	f002 f8f5 	bl	27d8 <iocfg_pio1_6_set_func_gpio>
     5ee:	f002 f929 	bl	2844 <iocfg_pio1_6_set_resistor_pull_up>
     5f2:	f002 f93b 	bl	286c <iocfg_pio1_6_set_hysteresis_disable>
     5f6:	f002 f945 	bl	2884 <iocfg_pio1_7_set_func_gpio>
     5fa:	f002 f979 	bl	28f0 <iocfg_pio1_7_set_resistor_pull_up>
     5fe:	f002 f98b 	bl	2918 <iocfg_pio1_7_set_hysteresis_disable>
     602:	f000 fe6d 	bl	12e0 <iocfg_pio1_8_set_func_gpio>
     606:	f000 fe93 	bl	1330 <iocfg_pio1_8_set_resistor_pull_up>
     60a:	f000 fea5 	bl	1358 <iocfg_pio1_8_set_hysteresis_disable>
     60e:	f001 fe65 	bl	22dc <iocfg_pio3_0_set_func_gpio>
     612:	f001 fe7d 	bl	2310 <iocfg_pio3_0_set_resistor_pull_up>
     616:	f001 fe8f 	bl	2338 <iocfg_pio3_0_set_hysteresis_disable>
     61a:	f001 fa21 	bl	1a60 <iocfg_pio2_10_set_func_gpio>
     61e:	f001 fa39 	bl	1a94 <iocfg_pio2_10_set_resistor_pull_up>
     622:	f001 fa4b 	bl	1abc <iocfg_pio2_10_set_hysteresis_disable>
     626:	f001 f83d 	bl	16a4 <iocfg_pio0_5_set_func_gpio>
     62a:	f001 fc25 	bl	1e78 <iocfg_pio2_11_set_func_gpio>
     62e:	f001 fc55 	bl	1edc <iocfg_pio2_11_set_resistor_pull_up>
     632:	f001 fc67 	bl	1f04 <iocfg_pio2_11_set_hysteresis_disable>
     636:	f001 f991 	bl	195c <iocfg_pio0_7_set_func_gpio>
     63a:	f001 f9b7 	bl	19ac <iocfg_pio0_7_set_resistor_pull_up>
     63e:	f001 f9c9 	bl	19d4 <iocfg_pio0_7_set_hysteresis_disable>
     642:	f001 fa8f 	bl	1b64 <iocfg_pio0_8_set_func_gpio>
     646:	f001 fac3 	bl	1bd0 <iocfg_pio0_8_set_resistor_pull_up>
     64a:	f001 fad5 	bl	1bf8 <iocfg_pio0_8_set_hysteresis_disable>
     64e:	f001 fadf 	bl	1c10 <iocfg_pio0_9_set_func_gpio>
     652:	f001 fb21 	bl	1c98 <iocfg_pio0_9_set_resistor_pull_up>
     656:	f001 fb33 	bl	1cc0 <iocfg_pio0_9_set_hysteresis_disable>
     65a:	f001 fc7f 	bl	1f5c <iocfg_pio0_11_set_func_ad0>
     65e:	f001 fca1 	bl	1fa4 <iocfg_pio0_11_set_resistor_none>
     662:	f001 fcc7 	bl	1ff4 <iocfg_pio0_11_set_hysteresis_disable>
     666:	f000 ff9b 	bl	15a0 <iocfg_pio0_3_set_func_usb_vbus>
     66a:	f000 ffbb 	bl	15e4 <iocfg_pio0_3_set_resistor_pull_up>
     66e:	f000 ffcd 	bl	160c <iocfg_pio0_3_set_hysteresis_disable>
     672:	f002 fa7c 	bl	2b6e <init_leds>
     676:	f002 fcc9 	bl	300c <init_switches>
     67a:	f000 fc24 	bl	ec6 <init_buttons>
     67e:	e8bd 4008 	ldmia.w	sp!, {r3, lr}
     682:	f003 bc19 	b.w	3eb8 <usbdrvrom_init_connect>
	...

00000688 <reset_handler>:
     688:	4807      	ldr	r0, [pc, #28]	; (6a8 <reset_handler+0x20>)
     68a:	4a08      	ldr	r2, [pc, #32]	; (6ac <reset_handler+0x24>)
     68c:	b508      	push	{r3, lr}
     68e:	4908      	ldr	r1, [pc, #32]	; (6b0 <reset_handler+0x28>)
     690:	1a12      	subs	r2, r2, r0
     692:	f002 fca1 	bl	2fd8 <memcpy>
     696:	4807      	ldr	r0, [pc, #28]	; (6b4 <reset_handler+0x2c>)
     698:	4a07      	ldr	r2, [pc, #28]	; (6b8 <reset_handler+0x30>)
     69a:	2100      	movs	r1, #0
     69c:	1a12      	subs	r2, r2, r0
     69e:	f002 fc93 	bl	2fc8 <memset>
     6a2:	f000 f82b 	bl	6fc <main>
     6a6:	e7fe      	b.n	6a6 <reset_handler+0x1e>
     6a8:	10000000 	.word	0x10000000
     6ac:	10000180 	.word	0x10000180
     6b0:	00003fec 	.word	0x00003fec
     6b4:	10000180 	.word	0x10000180
     6b8:	10000524 	.word	0x10000524

000006bc <nmi_handler>:
     6bc:	4770      	bx	lr

000006be <hard_fault_handler>:
     6be:	4770      	bx	lr

000006c0 <mem_manager_handler>:
     6c0:	4770      	bx	lr

000006c2 <bus_fault_handler>:
     6c2:	4770      	bx	lr

000006c4 <usage_fault_handler>:
     6c4:	4770      	bx	lr

000006c6 <sv_call_handler>:
     6c6:	4770      	bx	lr

000006c8 <debug_mon_handler>:
     6c8:	4770      	bx	lr

000006ca <pend_sv_handler>:
     6ca:	4770      	bx	lr

000006cc <sys_tick_handler>:
     6cc:	4770      	bx	lr

000006ce <wakeup_irq_handler>:
     6ce:	4770      	bx	lr

000006d0 <i2c_irq_handler>:
     6d0:	4770      	bx	lr

000006d2 <timer16_0_irq_handler>:
     6d2:	f000 ba23 	b.w	b1c <timer16_0_irqhandler>

000006d6 <timer16_1_irq_handler>:
     6d6:	f000 ba29 	b.w	b2c <timer16_1_irqhandler>

000006da <timer32_0_irq_handler>:
     6da:	f000 ba2f 	b.w	b3c <timer32_0_irqhandler>

000006de <timer32_1_irq_handler>:
     6de:	4770      	bx	lr

000006e0 <ssp_irq_handler>:
     6e0:	4770      	bx	lr

000006e2 <uart_irq_handler>:
     6e2:	4770      	bx	lr

000006e4 <usb_irq_handler>:
     6e4:	f003 bbca 	b.w	3e7c <usbdrvrom_isr>

000006e8 <usb_fiq_handler>:
     6e8:	4770      	bx	lr

000006ea <adc_irq_handler>:
     6ea:	4770      	bx	lr

000006ec <wdt_irq_handler>:
     6ec:	4770      	bx	lr

000006ee <bod_irq_handler>:
     6ee:	4770      	bx	lr

000006f0 <fmc_irq_handler>:
     6f0:	4770      	bx	lr

000006f2 <pio_int3_irq_handler>:
     6f2:	4770      	bx	lr

000006f4 <pio_int2_irq_handler>:
     6f4:	4770      	bx	lr

000006f6 <pio_int1_irq_handler>:
     6f6:	4770      	bx	lr

000006f8 <pio_int0_irq_handler>:
     6f8:	4770      	bx	lr
     6fa:	bf00      	nop

000006fc <main>:
     6fc:	b508      	push	{r3, lr}
     6fe:	f7ff fe7f 	bl	400 <board_init>
     702:	f000 f805 	bl	710 <init_threads>
     706:	f000 fa01 	bl	b0c <loop_main_thread>
     70a:	2000      	movs	r0, #0
     70c:	bd08      	pop	{r3, pc}
	...

00000710 <init_threads>:
     710:	b537      	push	{r0, r1, r2, r4, r5, lr}
     712:	2432      	movs	r4, #50	; 0x32
     714:	9400      	str	r4, [sp, #0]
     716:	4840      	ldr	r0, [pc, #256]	; (818 <init_threads+0x108>)
     718:	4940      	ldr	r1, [pc, #256]	; (81c <init_threads+0x10c>)
     71a:	4a41      	ldr	r2, [pc, #260]	; (820 <init_threads+0x110>)
     71c:	2364      	movs	r3, #100	; 0x64
     71e:	f000 fc29 	bl	f74 <btn_fsm_init>
     722:	9400      	str	r4, [sp, #0]
     724:	483f      	ldr	r0, [pc, #252]	; (824 <init_threads+0x114>)
     726:	4940      	ldr	r1, [pc, #256]	; (828 <init_threads+0x118>)
     728:	4a40      	ldr	r2, [pc, #256]	; (82c <init_threads+0x11c>)
     72a:	2364      	movs	r3, #100	; 0x64
     72c:	f000 fc22 	bl	f74 <btn_fsm_init>
     730:	9400      	str	r4, [sp, #0]
     732:	483f      	ldr	r0, [pc, #252]	; (830 <init_threads+0x120>)
     734:	493f      	ldr	r1, [pc, #252]	; (834 <init_threads+0x124>)
     736:	4a40      	ldr	r2, [pc, #256]	; (838 <init_threads+0x128>)
     738:	2364      	movs	r3, #100	; 0x64
     73a:	f000 fc1b 	bl	f74 <btn_fsm_init>
     73e:	9400      	str	r4, [sp, #0]
     740:	483e      	ldr	r0, [pc, #248]	; (83c <init_threads+0x12c>)
     742:	493f      	ldr	r1, [pc, #252]	; (840 <init_threads+0x130>)
     744:	4a3f      	ldr	r2, [pc, #252]	; (844 <init_threads+0x134>)
     746:	2364      	movs	r3, #100	; 0x64
     748:	f000 fc14 	bl	f74 <btn_fsm_init>
     74c:	9400      	str	r4, [sp, #0]
     74e:	483e      	ldr	r0, [pc, #248]	; (848 <init_threads+0x138>)
     750:	493e      	ldr	r1, [pc, #248]	; (84c <init_threads+0x13c>)
     752:	4a3f      	ldr	r2, [pc, #252]	; (850 <init_threads+0x140>)
     754:	2364      	movs	r3, #100	; 0x64
     756:	f000 fc0d 	bl	f74 <btn_fsm_init>
     75a:	483e      	ldr	r0, [pc, #248]	; (854 <init_threads+0x144>)
     75c:	493e      	ldr	r1, [pc, #248]	; (858 <init_threads+0x148>)
     75e:	4a3f      	ldr	r2, [pc, #252]	; (85c <init_threads+0x14c>)
     760:	2364      	movs	r3, #100	; 0x64
     762:	9400      	str	r4, [sp, #0]
     764:	f000 fc06 	bl	f74 <btn_fsm_init>
     768:	f002 faaf 	bl	2cca <led_ann_cs_all_off>
     76c:	483c      	ldr	r0, [pc, #240]	; (860 <init_threads+0x150>)
     76e:	2164      	movs	r1, #100	; 0x64
     770:	4a3c      	ldr	r2, [pc, #240]	; (864 <init_threads+0x154>)
     772:	4b3d      	ldr	r3, [pc, #244]	; (868 <init_threads+0x158>)
     774:	f002 fae1 	bl	2d3a <led_fsm_init>
     778:	483c      	ldr	r0, [pc, #240]	; (86c <init_threads+0x15c>)
     77a:	2164      	movs	r1, #100	; 0x64
     77c:	4a3c      	ldr	r2, [pc, #240]	; (870 <init_threads+0x160>)
     77e:	4b3d      	ldr	r3, [pc, #244]	; (874 <init_threads+0x164>)
     780:	f002 fadb 	bl	2d3a <led_fsm_init>
     784:	483c      	ldr	r0, [pc, #240]	; (878 <init_threads+0x168>)
     786:	2164      	movs	r1, #100	; 0x64
     788:	4a3c      	ldr	r2, [pc, #240]	; (87c <init_threads+0x16c>)
     78a:	4b3d      	ldr	r3, [pc, #244]	; (880 <init_threads+0x170>)
     78c:	f002 fad5 	bl	2d3a <led_fsm_init>
     790:	4a3c      	ldr	r2, [pc, #240]	; (884 <init_threads+0x174>)
     792:	4b3d      	ldr	r3, [pc, #244]	; (888 <init_threads+0x178>)
     794:	483d      	ldr	r0, [pc, #244]	; (88c <init_threads+0x17c>)
     796:	2164      	movs	r1, #100	; 0x64
     798:	f002 facf 	bl	2d3a <led_fsm_init>
     79c:	4830      	ldr	r0, [pc, #192]	; (860 <init_threads+0x150>)
     79e:	2100      	movs	r1, #0
     7a0:	f002 faf3 	bl	2d8a <led_fsm_set_bright>
     7a4:	4831      	ldr	r0, [pc, #196]	; (86c <init_threads+0x15c>)
     7a6:	2100      	movs	r1, #0
     7a8:	f002 faef 	bl	2d8a <led_fsm_set_bright>
     7ac:	4832      	ldr	r0, [pc, #200]	; (878 <init_threads+0x168>)
     7ae:	2100      	movs	r1, #0
     7b0:	f002 faeb 	bl	2d8a <led_fsm_set_bright>
     7b4:	2100      	movs	r1, #0
     7b6:	4835      	ldr	r0, [pc, #212]	; (88c <init_threads+0x17c>)
     7b8:	f002 fae7 	bl	2d8a <led_fsm_set_bright>
     7bc:	4834      	ldr	r0, [pc, #208]	; (890 <init_threads+0x180>)
     7be:	f000 fae7 	bl	d90 <ADCInit>
     7c2:	2000      	movs	r0, #0
     7c4:	f000 fb10 	bl	de8 <ADCRead>
     7c8:	2564      	movs	r5, #100	; 0x64
     7ca:	fbb0 f5f5 	udiv	r5, r0, r5
     7ce:	f002 f974 	bl	2aba <led_dbg_red_power_on>
     7d2:	2400      	movs	r4, #0
     7d4:	42ac      	cmp	r4, r5
     7d6:	d00b      	beq.n	7f0 <init_threads+0xe0>
     7d8:	f002 f98d 	bl	2af6 <led_dbg_blue_power_on>
     7dc:	482d      	ldr	r0, [pc, #180]	; (894 <init_threads+0x184>)
     7de:	f000 fc03 	bl	fe8 <delay_ticks>
     7e2:	f002 f984 	bl	2aee <led_dbg_blue_power_off>
     7e6:	482b      	ldr	r0, [pc, #172]	; (894 <init_threads+0x184>)
     7e8:	f000 fbfe 	bl	fe8 <delay_ticks>
     7ec:	3401      	adds	r4, #1
     7ee:	e7f1      	b.n	7d4 <init_threads+0xc4>
     7f0:	f64b 3180 	movw	r1, #48000	; 0xbb80
     7f4:	2000      	movs	r0, #0
     7f6:	f003 fb0d 	bl	3e14 <init_timer16>
     7fa:	2000      	movs	r0, #0
     7fc:	f003 fafe 	bl	3dfc <enable_timer16>
     800:	2001      	movs	r0, #1
     802:	f64b 3180 	movw	r1, #48000	; 0xbb80
     806:	f003 fb05 	bl	3e14 <init_timer16>
     80a:	2001      	movs	r0, #1
     80c:	b003      	add	sp, #12
     80e:	e8bd 4030 	ldmia.w	sp!, {r4, r5, lr}
     812:	f003 baf3 	b.w	3dfc <enable_timer16>
     816:	bf00      	nop
     818:	1000050c 	.word	0x1000050c
     81c:	00000efd 	.word	0x00000efd
     820:	00000a05 	.word	0x00000a05
     824:	100004ac 	.word	0x100004ac
     828:	00000f11 	.word	0x00000f11
     82c:	00000a5d 	.word	0x00000a5d
     830:	100003bc 	.word	0x100003bc
     834:	00000f25 	.word	0x00000f25
     838:	00000ab9 	.word	0x00000ab9
     83c:	100004dc 	.word	0x100004dc
     840:	00000f39 	.word	0x00000f39
     844:	0000097d 	.word	0x0000097d
     848:	1000044c 	.word	0x1000044c
     84c:	00000f4d 	.word	0x00000f4d
     850:	000009b1 	.word	0x000009b1
     854:	100003d4 	.word	0x100003d4
     858:	00000f61 	.word	0x00000f61
     85c:	00000aef 	.word	0x00000aef
     860:	10000374 	.word	0x10000374
     864:	00002b0d 	.word	0x00002b0d
     868:	00002b15 	.word	0x00002b15
     86c:	10000404 	.word	0x10000404
     870:	00002b2b 	.word	0x00002b2b
     874:	00002b33 	.word	0x00002b33
     878:	1000035c 	.word	0x1000035c
     87c:	00002b49 	.word	0x00002b49
     880:	00002b51 	.word	0x00002b51
     884:	00002b67 	.word	0x00002b67
     888:	00002c55 	.word	0x00002c55
     88c:	100003ec 	.word	0x100003ec
     890:	0044aa20 	.word	0x0044aa20
     894:	000f4240 	.word	0x000f4240

00000898 <tick_thread_16_0>:
     898:	b508      	push	{r3, lr}
     89a:	4b11      	ldr	r3, [pc, #68]	; (8e0 <tick_thread_16_0+0x48>)
     89c:	4911      	ldr	r1, [pc, #68]	; (8e4 <tick_thread_16_0+0x4c>)
     89e:	681a      	ldr	r2, [r3, #0]
     8a0:	3201      	adds	r2, #1
     8a2:	428a      	cmp	r2, r1
     8a4:	dc01      	bgt.n	8aa <tick_thread_16_0+0x12>
     8a6:	601a      	str	r2, [r3, #0]
     8a8:	e006      	b.n	8b8 <tick_thread_16_0+0x20>
     8aa:	6859      	ldr	r1, [r3, #4]
     8ac:	2200      	movs	r2, #0
     8ae:	2901      	cmp	r1, #1
     8b0:	601a      	str	r2, [r3, #0]
     8b2:	bf18      	it	ne
     8b4:	2201      	movne	r2, #1
     8b6:	605a      	str	r2, [r3, #4]
     8b8:	480b      	ldr	r0, [pc, #44]	; (8e8 <tick_thread_16_0+0x50>)
     8ba:	f000 fb65 	bl	f88 <btn_fsm_step>
     8be:	480b      	ldr	r0, [pc, #44]	; (8ec <tick_thread_16_0+0x54>)
     8c0:	f000 fb62 	bl	f88 <btn_fsm_step>
     8c4:	480a      	ldr	r0, [pc, #40]	; (8f0 <tick_thread_16_0+0x58>)
     8c6:	f000 fb5f 	bl	f88 <btn_fsm_step>
     8ca:	480a      	ldr	r0, [pc, #40]	; (8f4 <tick_thread_16_0+0x5c>)
     8cc:	f000 fb5c 	bl	f88 <btn_fsm_step>
     8d0:	4809      	ldr	r0, [pc, #36]	; (8f8 <tick_thread_16_0+0x60>)
     8d2:	f000 fb59 	bl	f88 <btn_fsm_step>
     8d6:	e8bd 4008 	ldmia.w	sp!, {r3, lr}
     8da:	4808      	ldr	r0, [pc, #32]	; (8fc <tick_thread_16_0+0x64>)
     8dc:	f000 bb54 	b.w	f88 <btn_fsm_step>
     8e0:	10000180 	.word	0x10000180
     8e4:	000f423f 	.word	0x000f423f
     8e8:	1000050c 	.word	0x1000050c
     8ec:	100004ac 	.word	0x100004ac
     8f0:	100003bc 	.word	0x100003bc
     8f4:	100004dc 	.word	0x100004dc
     8f8:	1000044c 	.word	0x1000044c
     8fc:	100003d4 	.word	0x100003d4

00000900 <tick_thread_16_1>:
     900:	4b04      	ldr	r3, [pc, #16]	; (914 <tick_thread_16_1+0x14>)
     902:	689a      	ldr	r2, [r3, #8]
     904:	68d9      	ldr	r1, [r3, #12]
     906:	3201      	adds	r2, #1
     908:	428a      	cmp	r2, r1
     90a:	609a      	str	r2, [r3, #8]
     90c:	bf24      	itt	cs
     90e:	2200      	movcs	r2, #0
     910:	609a      	strcs	r2, [r3, #8]
     912:	4770      	bx	lr
     914:	10000180 	.word	0x10000180

00000918 <tick_thread_32_0>:
     918:	b508      	push	{r3, lr}
     91a:	4b0e      	ldr	r3, [pc, #56]	; (954 <tick_thread_32_0+0x3c>)
     91c:	691a      	ldr	r2, [r3, #16]
     91e:	68d9      	ldr	r1, [r3, #12]
     920:	3201      	adds	r2, #1
     922:	428a      	cmp	r2, r1
     924:	611a      	str	r2, [r3, #16]
     926:	d314      	bcc.n	952 <tick_thread_32_0+0x3a>
     928:	6959      	ldr	r1, [r3, #20]
     92a:	2200      	movs	r2, #0
     92c:	2901      	cmp	r1, #1
     92e:	611a      	str	r2, [r3, #16]
     930:	4809      	ldr	r0, [pc, #36]	; (958 <tick_thread_32_0+0x40>)
     932:	bf18      	it	ne
     934:	2201      	movne	r2, #1
     936:	615a      	str	r2, [r3, #20]
     938:	f002 fa07 	bl	2d4a <led_fsm_step>
     93c:	4807      	ldr	r0, [pc, #28]	; (95c <tick_thread_32_0+0x44>)
     93e:	f002 fa04 	bl	2d4a <led_fsm_step>
     942:	4807      	ldr	r0, [pc, #28]	; (960 <tick_thread_32_0+0x48>)
     944:	f002 fa01 	bl	2d4a <led_fsm_step>
     948:	e8bd 4008 	ldmia.w	sp!, {r3, lr}
     94c:	4805      	ldr	r0, [pc, #20]	; (964 <tick_thread_32_0+0x4c>)
     94e:	f002 b9fc 	b.w	2d4a <led_fsm_step>
     952:	bd08      	pop	{r3, pc}
     954:	10000180 	.word	0x10000180
     958:	10000374 	.word	0x10000374
     95c:	10000404 	.word	0x10000404
     960:	1000035c 	.word	0x1000035c
     964:	100003ec 	.word	0x100003ec

00000968 <next_line>:
     968:	4b03      	ldr	r3, [pc, #12]	; (978 <next_line+0x10>)
     96a:	699a      	ldr	r2, [r3, #24]
     96c:	3201      	adds	r2, #1
     96e:	2a09      	cmp	r2, #9
     970:	bf88      	it	hi
     972:	2200      	movhi	r2, #0
     974:	619a      	str	r2, [r3, #24]
     976:	4770      	bx	lr
     978:	10000180 	.word	0x10000180

0000097c <btn_act_3>:
     97c:	b510      	push	{r4, lr}
     97e:	4c06      	ldr	r4, [pc, #24]	; (998 <btn_act_3+0x1c>)
     980:	4620      	mov	r0, r4
     982:	f002 fa0a 	bl	2d9a <led_fsm_get_bright>
     986:	1c41      	adds	r1, r0, #1
     988:	4620      	mov	r0, r4
     98a:	f002 f9fe 	bl	2d8a <led_fsm_set_bright>
     98e:	e8bd 4010 	ldmia.w	sp!, {r4, lr}
     992:	f7ff bfe9 	b.w	968 <next_line>
     996:	bf00      	nop
     998:	100003ec 	.word	0x100003ec

0000099c <next_row>:
     99c:	4b03      	ldr	r3, [pc, #12]	; (9ac <next_row+0x10>)
     99e:	69da      	ldr	r2, [r3, #28]
     9a0:	3201      	adds	r2, #1
     9a2:	2a02      	cmp	r2, #2
     9a4:	bf88      	it	hi
     9a6:	2200      	movhi	r2, #0
     9a8:	61da      	str	r2, [r3, #28]
     9aa:	4770      	bx	lr
     9ac:	10000180 	.word	0x10000180

000009b0 <btn_act_4>:
     9b0:	4b05      	ldr	r3, [pc, #20]	; (9c8 <btn_act_4+0x18>)
     9b2:	68da      	ldr	r2, [r3, #12]
     9b4:	0852      	lsrs	r2, r2, #1
     9b6:	60da      	str	r2, [r3, #12]
     9b8:	6a1a      	ldr	r2, [r3, #32]
     9ba:	3201      	adds	r2, #1
     9bc:	2a02      	cmp	r2, #2
     9be:	bf88      	it	hi
     9c0:	2200      	movhi	r2, #0
     9c2:	621a      	str	r2, [r3, #32]
     9c4:	f7ff bfea 	b.w	99c <next_row>
     9c8:	10000180 	.word	0x10000180

000009cc <next_red>:
     9cc:	b573      	push	{r0, r1, r4, r5, r6, lr}
     9ce:	4c0c      	ldr	r4, [pc, #48]	; (a00 <next_red+0x34>)
     9d0:	69e1      	ldr	r1, [r4, #28]
     9d2:	69a0      	ldr	r0, [r4, #24]
     9d4:	f002 fad4 	bl	2f80 <led_matrix_fsm_get_red>
     9d8:	69e1      	ldr	r1, [r4, #28]
     9da:	4606      	mov	r6, r0
     9dc:	69a0      	ldr	r0, [r4, #24]
     9de:	f002 fadb 	bl	2f98 <led_matrix_fsm_get_green>
     9e2:	69e1      	ldr	r1, [r4, #28]
     9e4:	4605      	mov	r5, r0
     9e6:	69a0      	ldr	r0, [r4, #24]
     9e8:	f002 fae2 	bl	2fb0 <led_matrix_fsm_get_blue>
     9ec:	1c72      	adds	r2, r6, #1
     9ee:	9000      	str	r0, [sp, #0]
     9f0:	69e1      	ldr	r1, [r4, #28]
     9f2:	69a0      	ldr	r0, [r4, #24]
     9f4:	b2d2      	uxtb	r2, r2
     9f6:	462b      	mov	r3, r5
     9f8:	f002 faa8 	bl	2f4c <led_matrix_fsm_set_rgb_bright>
     9fc:	b002      	add	sp, #8
     9fe:	bd70      	pop	{r4, r5, r6, pc}
     a00:	10000180 	.word	0x10000180

00000a04 <btn_act_0>:
     a04:	b510      	push	{r4, lr}
     a06:	4c06      	ldr	r4, [pc, #24]	; (a20 <btn_act_0+0x1c>)
     a08:	4620      	mov	r0, r4
     a0a:	f002 f9c6 	bl	2d9a <led_fsm_get_bright>
     a0e:	1c41      	adds	r1, r0, #1
     a10:	4620      	mov	r0, r4
     a12:	f002 f9ba 	bl	2d8a <led_fsm_set_bright>
     a16:	e8bd 4010 	ldmia.w	sp!, {r4, lr}
     a1a:	f7ff bfd7 	b.w	9cc <next_red>
     a1e:	bf00      	nop
     a20:	10000374 	.word	0x10000374

00000a24 <next_green>:
     a24:	b573      	push	{r0, r1, r4, r5, r6, lr}
     a26:	4c0c      	ldr	r4, [pc, #48]	; (a58 <next_green+0x34>)
     a28:	69e1      	ldr	r1, [r4, #28]
     a2a:	69a0      	ldr	r0, [r4, #24]
     a2c:	f002 faa8 	bl	2f80 <led_matrix_fsm_get_red>
     a30:	69e1      	ldr	r1, [r4, #28]
     a32:	4605      	mov	r5, r0
     a34:	69a0      	ldr	r0, [r4, #24]
     a36:	f002 faaf 	bl	2f98 <led_matrix_fsm_get_green>
     a3a:	69e1      	ldr	r1, [r4, #28]
     a3c:	4606      	mov	r6, r0
     a3e:	69a0      	ldr	r0, [r4, #24]
     a40:	f002 fab6 	bl	2fb0 <led_matrix_fsm_get_blue>
     a44:	1c73      	adds	r3, r6, #1
     a46:	9000      	str	r0, [sp, #0]
     a48:	69e1      	ldr	r1, [r4, #28]
     a4a:	69a0      	ldr	r0, [r4, #24]
     a4c:	462a      	mov	r2, r5
     a4e:	b2db      	uxtb	r3, r3
     a50:	f002 fa7c 	bl	2f4c <led_matrix_fsm_set_rgb_bright>
     a54:	b002      	add	sp, #8
     a56:	bd70      	pop	{r4, r5, r6, pc}
     a58:	10000180 	.word	0x10000180

00000a5c <btn_act_1>:
     a5c:	b510      	push	{r4, lr}
     a5e:	4c06      	ldr	r4, [pc, #24]	; (a78 <btn_act_1+0x1c>)
     a60:	4620      	mov	r0, r4
     a62:	f002 f99a 	bl	2d9a <led_fsm_get_bright>
     a66:	1c41      	adds	r1, r0, #1
     a68:	4620      	mov	r0, r4
     a6a:	f002 f98e 	bl	2d8a <led_fsm_set_bright>
     a6e:	e8bd 4010 	ldmia.w	sp!, {r4, lr}
     a72:	f7ff bfd7 	b.w	a24 <next_green>
     a76:	bf00      	nop
     a78:	10000404 	.word	0x10000404

00000a7c <next_blue>:
     a7c:	b573      	push	{r0, r1, r4, r5, r6, lr}
     a7e:	4c0d      	ldr	r4, [pc, #52]	; (ab4 <next_blue+0x38>)
     a80:	69e1      	ldr	r1, [r4, #28]
     a82:	69a0      	ldr	r0, [r4, #24]
     a84:	f002 fa7c 	bl	2f80 <led_matrix_fsm_get_red>
     a88:	69e1      	ldr	r1, [r4, #28]
     a8a:	4606      	mov	r6, r0
     a8c:	69a0      	ldr	r0, [r4, #24]
     a8e:	f002 fa83 	bl	2f98 <led_matrix_fsm_get_green>
     a92:	69e1      	ldr	r1, [r4, #28]
     a94:	4605      	mov	r5, r0
     a96:	69a0      	ldr	r0, [r4, #24]
     a98:	f002 fa8a 	bl	2fb0 <led_matrix_fsm_get_blue>
     a9c:	3001      	adds	r0, #1
     a9e:	b2c0      	uxtb	r0, r0
     aa0:	9000      	str	r0, [sp, #0]
     aa2:	69e1      	ldr	r1, [r4, #28]
     aa4:	69a0      	ldr	r0, [r4, #24]
     aa6:	4632      	mov	r2, r6
     aa8:	462b      	mov	r3, r5
     aaa:	f002 fa4f 	bl	2f4c <led_matrix_fsm_set_rgb_bright>
     aae:	b002      	add	sp, #8
     ab0:	bd70      	pop	{r4, r5, r6, pc}
     ab2:	bf00      	nop
     ab4:	10000180 	.word	0x10000180

00000ab8 <btn_act_2>:
     ab8:	b510      	push	{r4, lr}
     aba:	4c06      	ldr	r4, [pc, #24]	; (ad4 <btn_act_2+0x1c>)
     abc:	4620      	mov	r0, r4
     abe:	f002 f96c 	bl	2d9a <led_fsm_get_bright>
     ac2:	1c41      	adds	r1, r0, #1
     ac4:	4620      	mov	r0, r4
     ac6:	f002 f960 	bl	2d8a <led_fsm_set_bright>
     aca:	e8bd 4010 	ldmia.w	sp!, {r4, lr}
     ace:	f7ff bfd5 	b.w	a7c <next_blue>
     ad2:	bf00      	nop
     ad4:	1000035c 	.word	0x1000035c

00000ad8 <next_global_bright>:
     ad8:	b508      	push	{r3, lr}
     ada:	f002 fa31 	bl	2f40 <led_matrix_fsm_get_global_bright>
     ade:	e8bd 4008 	ldmia.w	sp!, {r3, lr}
     ae2:	3001      	adds	r0, #1
     ae4:	2805      	cmp	r0, #5
     ae6:	bf88      	it	hi
     ae8:	2001      	movhi	r0, #1
     aea:	f002 ba1d 	b.w	2f28 <led_matrix_fsm_set_global_bright>

00000aee <btn_act_5>:
     aee:	4b06      	ldr	r3, [pc, #24]	; (b08 <btn_act_5+0x1a>)
     af0:	68da      	ldr	r2, [r3, #12]
     af2:	0052      	lsls	r2, r2, #1
     af4:	60da      	str	r2, [r3, #12]
     af6:	6a5a      	ldr	r2, [r3, #36]	; 0x24
     af8:	3201      	adds	r2, #1
     afa:	2a09      	cmp	r2, #9
     afc:	bf88      	it	hi
     afe:	2200      	movhi	r2, #0
     b00:	625a      	str	r2, [r3, #36]	; 0x24
     b02:	f7ff bfe9 	b.w	ad8 <next_global_bright>
     b06:	bf00      	nop
     b08:	10000180 	.word	0x10000180

00000b0c <loop_main_thread>:
     b0c:	b508      	push	{r3, lr}
     b0e:	2007      	movs	r0, #7
     b10:	2105      	movs	r1, #5
     b12:	f002 f944 	bl	2d9e <led_matrix_fsm_init>
     b16:	f002 f97b 	bl	2e10 <led_matrix_fsm_step>
     b1a:	e7fc      	b.n	b16 <loop_main_thread+0xa>

00000b1c <timer16_0_irqhandler>:
     b1c:	4b02      	ldr	r3, [pc, #8]	; (b28 <timer16_0_irqhandler+0xc>)
     b1e:	2201      	movs	r2, #1
     b20:	601a      	str	r2, [r3, #0]
     b22:	f7ff beb9 	b.w	898 <tick_thread_16_0>
     b26:	bf00      	nop
     b28:	4000c000 	.word	0x4000c000

00000b2c <timer16_1_irqhandler>:
     b2c:	4b02      	ldr	r3, [pc, #8]	; (b38 <timer16_1_irqhandler+0xc>)
     b2e:	2201      	movs	r2, #1
     b30:	601a      	str	r2, [r3, #0]
     b32:	f7ff bee5 	b.w	900 <tick_thread_16_1>
     b36:	bf00      	nop
     b38:	40010000 	.word	0x40010000

00000b3c <timer32_0_irqhandler>:
     b3c:	4b02      	ldr	r3, [pc, #8]	; (b48 <timer32_0_irqhandler+0xc>)
     b3e:	2201      	movs	r2, #1
     b40:	601a      	str	r2, [r3, #0]
     b42:	f7ff bee9 	b.w	918 <tick_thread_32_0>
     b46:	bf00      	nop
     b48:	40014000 	.word	0x40014000

00000b4c <cmdTest>:
     b4c:	235b      	movs	r3, #91	; 0x5b
     b4e:	700b      	strb	r3, [r1, #0]
     b50:	2354      	movs	r3, #84	; 0x54
     b52:	704b      	strb	r3, [r1, #1]
     b54:	710b      	strb	r3, [r1, #4]
     b56:	2320      	movs	r3, #32
     b58:	714b      	strb	r3, [r1, #5]
     b5a:	234f      	movs	r3, #79	; 0x4f
     b5c:	2245      	movs	r2, #69	; 0x45
     b5e:	718b      	strb	r3, [r1, #6]
     b60:	234b      	movs	r3, #75	; 0x4b
     b62:	708a      	strb	r2, [r1, #2]
     b64:	71cb      	strb	r3, [r1, #7]
     b66:	2253      	movs	r2, #83	; 0x53
     b68:	235d      	movs	r3, #93	; 0x5d
     b6a:	70ca      	strb	r2, [r1, #3]
     b6c:	720b      	strb	r3, [r1, #8]
     b6e:	4770      	bx	lr

00000b70 <cmdTestParam>:
     b70:	2354      	movs	r3, #84	; 0x54
     b72:	700b      	strb	r3, [r1, #0]
     b74:	70cb      	strb	r3, [r1, #3]
     b76:	2320      	movs	r3, #32
     b78:	710b      	strb	r3, [r1, #4]
     b7a:	2350      	movs	r3, #80	; 0x50
     b7c:	2245      	movs	r2, #69	; 0x45
     b7e:	714b      	strb	r3, [r1, #5]
     b80:	2341      	movs	r3, #65	; 0x41
     b82:	704a      	strb	r2, [r1, #1]
     b84:	718b      	strb	r3, [r1, #6]
     b86:	2253      	movs	r2, #83	; 0x53
     b88:	720b      	strb	r3, [r1, #8]
     b8a:	234d      	movs	r3, #77	; 0x4d
     b8c:	708a      	strb	r2, [r1, #2]
     b8e:	724b      	strb	r3, [r1, #9]
     b90:	2252      	movs	r2, #82	; 0x52
     b92:	233a      	movs	r3, #58	; 0x3a
     b94:	728b      	strb	r3, [r1, #10]
     b96:	71ca      	strb	r2, [r1, #7]
     b98:	f100 0310 	add.w	r3, r0, #16
     b9c:	310b      	adds	r1, #11
     b9e:	f850 2b04 	ldr.w	r2, [r0], #4
     ba2:	4298      	cmp	r0, r3
     ba4:	f841 2b04 	str.w	r2, [r1], #4
     ba8:	d1f9      	bne.n	b9e <cmdTestParam+0x2e>
     baa:	4770      	bx	lr

00000bac <cmdReadAdc>:
     bac:	b513      	push	{r0, r1, r4, lr}
     bae:	2000      	movs	r0, #0
     bb0:	460c      	mov	r4, r1
     bb2:	f000 f919 	bl	de8 <ADCRead>
     bb6:	ab02      	add	r3, sp, #8
     bb8:	f843 0d04 	str.w	r0, [r3, #-4]!
     bbc:	6818      	ldr	r0, [r3, #0]
     bbe:	6020      	str	r0, [r4, #0]
     bc0:	b002      	add	sp, #8
     bc2:	bd10      	pop	{r4, pc}

00000bc4 <cmdLedsOff>:
     bc4:	4770      	bx	lr

00000bc6 <cmdLedsRed>:
     bc6:	4770      	bx	lr

00000bc8 <cmdLedsGreen>:
     bc8:	4770      	bx	lr

00000bca <cmdGetDebugBuf>:
     bca:	7803      	ldrb	r3, [r0, #0]
     bcc:	2b02      	cmp	r3, #2
     bce:	d00d      	beq.n	bec <cmdGetDebugBuf+0x22>
     bd0:	2b03      	cmp	r3, #3
     bd2:	d015      	beq.n	c00 <cmdGetDebugBuf+0x36>
     bd4:	2b01      	cmp	r3, #1
     bd6:	d11d      	bne.n	c14 <cmdGetDebugBuf+0x4a>
     bd8:	4b13      	ldr	r3, [pc, #76]	; (c28 <cmdGetDebugBuf+0x5e>)
     bda:	f103 0220 	add.w	r2, r3, #32
     bde:	f853 0b04 	ldr.w	r0, [r3], #4
     be2:	4293      	cmp	r3, r2
     be4:	f841 0b04 	str.w	r0, [r1], #4
     be8:	d1f9      	bne.n	bde <cmdGetDebugBuf+0x14>
     bea:	4770      	bx	lr
     bec:	4b0f      	ldr	r3, [pc, #60]	; (c2c <cmdGetDebugBuf+0x62>)
     bee:	f103 0220 	add.w	r2, r3, #32
     bf2:	f853 0b04 	ldr.w	r0, [r3], #4
     bf6:	4293      	cmp	r3, r2
     bf8:	f841 0b04 	str.w	r0, [r1], #4
     bfc:	d1f9      	bne.n	bf2 <cmdGetDebugBuf+0x28>
     bfe:	4770      	bx	lr
     c00:	4b0b      	ldr	r3, [pc, #44]	; (c30 <cmdGetDebugBuf+0x66>)
     c02:	f103 0220 	add.w	r2, r3, #32
     c06:	f853 0b04 	ldr.w	r0, [r3], #4
     c0a:	4293      	cmp	r3, r2
     c0c:	f841 0b04 	str.w	r0, [r1], #4
     c10:	d1f9      	bne.n	c06 <cmdGetDebugBuf+0x3c>
     c12:	4770      	bx	lr
     c14:	4b07      	ldr	r3, [pc, #28]	; (c34 <cmdGetDebugBuf+0x6a>)
     c16:	f103 0220 	add.w	r2, r3, #32
     c1a:	f853 0b04 	ldr.w	r0, [r3], #4
     c1e:	4293      	cmp	r3, r2
     c20:	f841 0b04 	str.w	r0, [r1], #4
     c24:	d1f9      	bne.n	c1a <cmdGetDebugBuf+0x50>
     c26:	4770      	bx	lr
     c28:	1000033c 	.word	0x1000033c
     c2c:	100002dc 	.word	0x100002dc
     c30:	1000031c 	.word	0x1000031c
     c34:	100002fc 	.word	0x100002fc

00000c38 <cmdSetDebugBuf>:
     c38:	b510      	push	{r4, lr}
     c3a:	4603      	mov	r3, r0
     c3c:	f813 2b01 	ldrb.w	r2, [r3], #1
     c40:	3021      	adds	r0, #33	; 0x21
     c42:	2a02      	cmp	r2, #2
     c44:	d00b      	beq.n	c5e <cmdSetDebugBuf+0x26>
     c46:	2a03      	cmp	r2, #3
     c48:	d011      	beq.n	c6e <cmdSetDebugBuf+0x36>
     c4a:	2a01      	cmp	r2, #1
     c4c:	d117      	bne.n	c7e <cmdSetDebugBuf+0x46>
     c4e:	4a11      	ldr	r2, [pc, #68]	; (c94 <cmdSetDebugBuf+0x5c>)
     c50:	f853 4b04 	ldr.w	r4, [r3], #4
     c54:	4283      	cmp	r3, r0
     c56:	f842 4b04 	str.w	r4, [r2], #4
     c5a:	d1f9      	bne.n	c50 <cmdSetDebugBuf+0x18>
     c5c:	e016      	b.n	c8c <cmdSetDebugBuf+0x54>
     c5e:	4a0e      	ldr	r2, [pc, #56]	; (c98 <cmdSetDebugBuf+0x60>)
     c60:	f853 4b04 	ldr.w	r4, [r3], #4
     c64:	4283      	cmp	r3, r0
     c66:	f842 4b04 	str.w	r4, [r2], #4
     c6a:	d1f9      	bne.n	c60 <cmdSetDebugBuf+0x28>
     c6c:	e00e      	b.n	c8c <cmdSetDebugBuf+0x54>
     c6e:	4a0b      	ldr	r2, [pc, #44]	; (c9c <cmdSetDebugBuf+0x64>)
     c70:	f853 4b04 	ldr.w	r4, [r3], #4
     c74:	4283      	cmp	r3, r0
     c76:	f842 4b04 	str.w	r4, [r2], #4
     c7a:	d1f9      	bne.n	c70 <cmdSetDebugBuf+0x38>
     c7c:	e006      	b.n	c8c <cmdSetDebugBuf+0x54>
     c7e:	4a08      	ldr	r2, [pc, #32]	; (ca0 <cmdSetDebugBuf+0x68>)
     c80:	f853 4b04 	ldr.w	r4, [r3], #4
     c84:	4283      	cmp	r3, r0
     c86:	f842 4b04 	str.w	r4, [r2], #4
     c8a:	d1f9      	bne.n	c80 <cmdSetDebugBuf+0x48>
     c8c:	23dd      	movs	r3, #221	; 0xdd
     c8e:	700b      	strb	r3, [r1, #0]
     c90:	bd10      	pop	{r4, pc}
     c92:	bf00      	nop
     c94:	1000033c 	.word	0x1000033c
     c98:	100002dc 	.word	0x100002dc
     c9c:	1000031c 	.word	0x1000031c
     ca0:	100002fc 	.word	0x100002fc

00000ca4 <cmdFmSendData>:
     ca4:	4770      	bx	lr

00000ca6 <cmdFmRecvData>:
     ca6:	4770      	bx	lr

00000ca8 <processCommand>:
     ca8:	3801      	subs	r0, #1
     caa:	460b      	mov	r3, r1
     cac:	4611      	mov	r1, r2
     cae:	2807      	cmp	r0, #7
     cb0:	d814      	bhi.n	cdc <processCommand+0x34>
     cb2:	e8df f000 	tbb	[pc, r0]
     cb6:	0704      	.short	0x0704
     cb8:	1313130a 	.word	0x1313130a
     cbc:	100d      	.short	0x100d
     cbe:	4618      	mov	r0, r3
     cc0:	f7ff bf44 	b.w	b4c <cmdTest>
     cc4:	4618      	mov	r0, r3
     cc6:	f7ff bf53 	b.w	b70 <cmdTestParam>
     cca:	4618      	mov	r0, r3
     ccc:	f7ff bf6e 	b.w	bac <cmdReadAdc>
     cd0:	4618      	mov	r0, r3
     cd2:	f7ff bf7a 	b.w	bca <cmdGetDebugBuf>
     cd6:	4618      	mov	r0, r3
     cd8:	f7ff bfae 	b.w	c38 <cmdSetDebugBuf>
     cdc:	4770      	bx	lr

00000cde <processCommandDPC>:
     cde:	4770      	bx	lr

00000ce0 <DPCDispatch>:
     ce0:	b570      	push	{r4, r5, r6, lr}
     ce2:	4c0b      	ldr	r4, [pc, #44]	; (d10 <DPCDispatch+0x30>)
     ce4:	8823      	ldrh	r3, [r4, #0]
     ce6:	b29b      	uxth	r3, r3
     ce8:	b183      	cbz	r3, d0c <DPCDispatch+0x2c>
     cea:	1ca5      	adds	r5, r4, #2
     cec:	4628      	mov	r0, r5
     cee:	2100      	movs	r1, #0
     cf0:	2240      	movs	r2, #64	; 0x40
     cf2:	f002 f969 	bl	2fc8 <memset>
     cf6:	4622      	mov	r2, r4
     cf8:	f852 3f42 	ldr.w	r3, [r2, #66]!
     cfc:	f8c4 3002 	str.w	r3, [r4, #2]
     d00:	6853      	ldr	r3, [r2, #4]
     d02:	f8c4 3006 	str.w	r3, [r4, #6]
     d06:	bf00      	nop
     d08:	2300      	movs	r3, #0
     d0a:	8023      	strh	r3, [r4, #0]
     d0c:	bd70      	pop	{r4, r5, r6, pc}
     d0e:	bf00      	nop
     d10:	100001b4 	.word	0x100001b4

00000d14 <GetInReport>:
     d14:	4b08      	ldr	r3, [pc, #32]	; (d38 <GetInReport+0x24>)
     d16:	881a      	ldrh	r2, [r3, #0]
     d18:	b292      	uxth	r2, r2
     d1a:	b11a      	cbz	r2, d24 <GetInReport+0x10>
     d1c:	2100      	movs	r1, #0
     d1e:	2240      	movs	r2, #64	; 0x40
     d20:	f002 b952 	b.w	2fc8 <memset>
     d24:	1c9a      	adds	r2, r3, #2
     d26:	3342      	adds	r3, #66	; 0x42
     d28:	f852 1b04 	ldr.w	r1, [r2], #4
     d2c:	429a      	cmp	r2, r3
     d2e:	f840 1b04 	str.w	r1, [r0], #4
     d32:	d1f9      	bne.n	d28 <GetInReport+0x14>
     d34:	4770      	bx	lr
     d36:	bf00      	nop
     d38:	100001b4 	.word	0x100001b4

00000d3c <SetOutReport>:
     d3c:	b570      	push	{r4, r5, r6, lr}
     d3e:	4d13      	ldr	r5, [pc, #76]	; (d8c <SetOutReport+0x50>)
     d40:	4604      	mov	r4, r0
     d42:	1cae      	adds	r6, r5, #2
     d44:	4630      	mov	r0, r6
     d46:	2100      	movs	r1, #0
     d48:	2240      	movs	r2, #64	; 0x40
     d4a:	f002 f93d 	bl	2fc8 <memset>
     d4e:	6860      	ldr	r0, [r4, #4]
     d50:	462b      	mov	r3, r5
     d52:	f010 5f80 	tst.w	r0, #268435456	; 0x10000000
     d56:	d00c      	beq.n	d72 <SetOutReport+0x36>
     d58:	f105 0242 	add.w	r2, r5, #66	; 0x42
     d5c:	f104 0140 	add.w	r1, r4, #64	; 0x40
     d60:	f854 0b04 	ldr.w	r0, [r4], #4
     d64:	428c      	cmp	r4, r1
     d66:	f842 0b04 	str.w	r0, [r2], #4
     d6a:	d1f9      	bne.n	d60 <SetOutReport+0x24>
     d6c:	2201      	movs	r2, #1
     d6e:	801a      	strh	r2, [r3, #0]
     d70:	bd70      	pop	{r4, r5, r6, pc}
     d72:	6823      	ldr	r3, [r4, #0]
     d74:	f104 0108 	add.w	r1, r4, #8
     d78:	f8c5 3002 	str.w	r3, [r5, #2]
     d7c:	6863      	ldr	r3, [r4, #4]
     d7e:	f105 020a 	add.w	r2, r5, #10
     d82:	6073      	str	r3, [r6, #4]
     d84:	e8bd 4070 	ldmia.w	sp!, {r4, r5, r6, lr}
     d88:	f7ff bf8e 	b.w	ca8 <processCommand>
     d8c:	100001b4 	.word	0x100001b4

00000d90 <ADCInit>:
     d90:	4b11      	ldr	r3, [pc, #68]	; (dd8 <ADCInit+0x48>)
     d92:	f8d3 2238 	ldr.w	r2, [r3, #568]	; 0x238
     d96:	f022 0210 	bic.w	r2, r2, #16
     d9a:	f8c3 2238 	str.w	r2, [r3, #568]	; 0x238
     d9e:	f8d3 2080 	ldr.w	r2, [r3, #128]	; 0x80
     da2:	f442 5200 	orr.w	r2, r2, #8192	; 0x2000
     da6:	f8c3 2080 	str.w	r2, [r3, #128]	; 0x80
     daa:	4a0c      	ldr	r2, [pc, #48]	; (ddc <ADCInit+0x4c>)
     dac:	6f51      	ldr	r1, [r2, #116]	; 0x74
     dae:	f021 018f 	bic.w	r1, r1, #143	; 0x8f
     db2:	6751      	str	r1, [r2, #116]	; 0x74
     db4:	6f51      	ldr	r1, [r2, #116]	; 0x74
     db6:	f041 0102 	orr.w	r1, r1, #2
     dba:	6751      	str	r1, [r2, #116]	; 0x74
     dbc:	2102      	movs	r1, #2
     dbe:	6751      	str	r1, [r2, #116]	; 0x74
     dc0:	6f9b      	ldr	r3, [r3, #120]	; 0x78
     dc2:	4a07      	ldr	r2, [pc, #28]	; (de0 <ADCInit+0x50>)
     dc4:	fbb2 f3f3 	udiv	r3, r2, r3
     dc8:	fbb3 f0f0 	udiv	r0, r3, r0
     dcc:	1e43      	subs	r3, r0, #1
     dce:	4a05      	ldr	r2, [pc, #20]	; (de4 <ADCInit+0x54>)
     dd0:	021b      	lsls	r3, r3, #8
     dd2:	6013      	str	r3, [r2, #0]
     dd4:	4770      	bx	lr
     dd6:	bf00      	nop
     dd8:	40048000 	.word	0x40048000
     ddc:	40044000 	.word	0x40044000
     de0:	044aa200 	.word	0x044aa200
     de4:	4001c000 	.word	0x4001c000

00000de8 <ADCRead>:
     de8:	4b0f      	ldr	r3, [pc, #60]	; (e28 <ADCRead+0x40>)
     dea:	2807      	cmp	r0, #7
     dec:	bf88      	it	hi
     dee:	2000      	movhi	r0, #0
     df0:	681a      	ldr	r2, [r3, #0]
     df2:	f022 02ff 	bic.w	r2, r2, #255	; 0xff
     df6:	601a      	str	r2, [r3, #0]
     df8:	2201      	movs	r2, #1
     dfa:	4082      	lsls	r2, r0
     dfc:	6819      	ldr	r1, [r3, #0]
     dfe:	0080      	lsls	r0, r0, #2
     e00:	f041 7180 	orr.w	r1, r1, #16777216	; 0x1000000
     e04:	430a      	orrs	r2, r1
     e06:	601a      	str	r2, [r3, #0]
     e08:	4a08      	ldr	r2, [pc, #32]	; (e2c <ADCRead+0x44>)
     e0a:	4402      	add	r2, r0
     e0c:	6810      	ldr	r0, [r2, #0]
     e0e:	2800      	cmp	r0, #0
     e10:	dafc      	bge.n	e0c <ADCRead+0x24>
     e12:	681a      	ldr	r2, [r3, #0]
     e14:	f022 62e0 	bic.w	r2, r2, #117440512	; 0x7000000
     e18:	601a      	str	r2, [r3, #0]
     e1a:	0043      	lsls	r3, r0, #1
     e1c:	bf54      	ite	pl
     e1e:	f3c0 1089 	ubfxpl	r0, r0, #6, #10
     e22:	2000      	movmi	r0, #0
     e24:	4770      	bx	lr
     e26:	bf00      	nop
     e28:	4001c000 	.word	0x4001c000
     e2c:	4001c010 	.word	0x4001c010

00000e30 <ADCBurstRead>:
     e30:	4b0a      	ldr	r3, [pc, #40]	; (e5c <ADCBurstRead+0x2c>)
     e32:	681a      	ldr	r2, [r3, #0]
     e34:	f012 6fe0 	tst.w	r2, #117440512	; 0x7000000
     e38:	d003      	beq.n	e42 <ADCBurstRead+0x12>
     e3a:	681a      	ldr	r2, [r3, #0]
     e3c:	f022 62e0 	bic.w	r2, r2, #117440512	; 0x7000000
     e40:	601a      	str	r2, [r3, #0]
     e42:	681a      	ldr	r2, [r3, #0]
     e44:	f022 02ff 	bic.w	r2, r2, #255	; 0xff
     e48:	601a      	str	r2, [r3, #0]
     e4a:	681a      	ldr	r2, [r3, #0]
     e4c:	f042 02ff 	orr.w	r2, r2, #255	; 0xff
     e50:	601a      	str	r2, [r3, #0]
     e52:	681a      	ldr	r2, [r3, #0]
     e54:	f442 3280 	orr.w	r2, r2, #65536	; 0x10000
     e58:	601a      	str	r2, [r3, #0]
     e5a:	4770      	bx	lr
     e5c:	4001c000 	.word	0x4001c000

00000e60 <bit_mask>:
     e60:	2301      	movs	r3, #1
     e62:	fa03 f000 	lsl.w	r0, r3, r0
     e66:	4770      	bx	lr

00000e68 <set_bit_zero>:
     e68:	2201      	movs	r2, #1
     e6a:	fa02 f101 	lsl.w	r1, r2, r1
     e6e:	6803      	ldr	r3, [r0, #0]
     e70:	ea23 0301 	bic.w	r3, r3, r1
     e74:	6003      	str	r3, [r0, #0]
     e76:	4770      	bx	lr

00000e78 <set_bit_one>:
     e78:	2201      	movs	r2, #1
     e7a:	fa02 f101 	lsl.w	r1, r2, r1
     e7e:	6803      	ldr	r3, [r0, #0]
     e80:	430b      	orrs	r3, r1
     e82:	6003      	str	r3, [r0, #0]
     e84:	4770      	bx	lr

00000e86 <set_bit>:
     e86:	b510      	push	{r4, lr}
     e88:	460c      	mov	r4, r1
     e8a:	b132      	cbz	r2, e9a <set_bit+0x14>
     e8c:	2101      	movs	r1, #1
     e8e:	fa01 f404 	lsl.w	r4, r1, r4
     e92:	6802      	ldr	r2, [r0, #0]
     e94:	4314      	orrs	r4, r2
     e96:	6004      	str	r4, [r0, #0]
     e98:	bd10      	pop	{r4, pc}
     e9a:	e8bd 4010 	ldmia.w	sp!, {r4, lr}
     e9e:	f7ff bfe3 	b.w	e68 <set_bit_zero>

00000ea2 <bit_is_set>:
     ea2:	2201      	movs	r2, #1
     ea4:	fa02 f101 	lsl.w	r1, r2, r1
     ea8:	6803      	ldr	r3, [r0, #0]
     eaa:	4219      	tst	r1, r3
     eac:	bf0c      	ite	eq
     eae:	2000      	moveq	r0, #0
     eb0:	2001      	movne	r0, #1
     eb2:	4770      	bx	lr

00000eb4 <set_all_bits_zero>:
     eb4:	6803      	ldr	r3, [r0, #0]
     eb6:	ea23 0101 	bic.w	r1, r3, r1
     eba:	6001      	str	r1, [r0, #0]
     ebc:	4770      	bx	lr

00000ebe <set_all_bits_one>:
     ebe:	6803      	ldr	r3, [r0, #0]
     ec0:	4319      	orrs	r1, r3
     ec2:	6001      	str	r1, [r0, #0]
     ec4:	4770      	bx	lr

00000ec6 <init_buttons>:
     ec6:	b508      	push	{r3, lr}
     ec8:	2002      	movs	r0, #2
     eca:	210a      	movs	r1, #10
     ecc:	f000 f8a0 	bl	1010 <gpio_set_dir_in>
     ed0:	2000      	movs	r0, #0
     ed2:	2105      	movs	r1, #5
     ed4:	f000 f89c 	bl	1010 <gpio_set_dir_in>
     ed8:	2002      	movs	r0, #2
     eda:	210b      	movs	r1, #11
     edc:	f000 f898 	bl	1010 <gpio_set_dir_in>
     ee0:	2000      	movs	r0, #0
     ee2:	2107      	movs	r1, #7
     ee4:	f000 f894 	bl	1010 <gpio_set_dir_in>
     ee8:	2000      	movs	r0, #0
     eea:	2108      	movs	r1, #8
     eec:	f000 f890 	bl	1010 <gpio_set_dir_in>
     ef0:	e8bd 4008 	ldmia.w	sp!, {r3, lr}
     ef4:	2000      	movs	r0, #0
     ef6:	2109      	movs	r1, #9
     ef8:	f000 b88a 	b.w	1010 <gpio_set_dir_in>

00000efc <btn_0_is_set>:
     efc:	b508      	push	{r3, lr}
     efe:	210a      	movs	r1, #10
     f00:	2002      	movs	r0, #2
     f02:	f000 f8a9 	bl	1058 <gpio_get_data_bit>
     f06:	f1d0 0001 	rsbs	r0, r0, #1
     f0a:	bf38      	it	cc
     f0c:	2000      	movcc	r0, #0
     f0e:	bd08      	pop	{r3, pc}

00000f10 <btn_1_is_set>:
     f10:	b508      	push	{r3, lr}
     f12:	2105      	movs	r1, #5
     f14:	2000      	movs	r0, #0
     f16:	f000 f89f 	bl	1058 <gpio_get_data_bit>
     f1a:	f1d0 0001 	rsbs	r0, r0, #1
     f1e:	bf38      	it	cc
     f20:	2000      	movcc	r0, #0
     f22:	bd08      	pop	{r3, pc}

00000f24 <btn_2_is_set>:
     f24:	b508      	push	{r3, lr}
     f26:	210b      	movs	r1, #11
     f28:	2002      	movs	r0, #2
     f2a:	f000 f895 	bl	1058 <gpio_get_data_bit>
     f2e:	f1d0 0001 	rsbs	r0, r0, #1
     f32:	bf38      	it	cc
     f34:	2000      	movcc	r0, #0
     f36:	bd08      	pop	{r3, pc}

00000f38 <btn_3_is_set>:
     f38:	b508      	push	{r3, lr}
     f3a:	2107      	movs	r1, #7
     f3c:	2000      	movs	r0, #0
     f3e:	f000 f88b 	bl	1058 <gpio_get_data_bit>
     f42:	f1d0 0001 	rsbs	r0, r0, #1
     f46:	bf38      	it	cc
     f48:	2000      	movcc	r0, #0
     f4a:	bd08      	pop	{r3, pc}

00000f4c <btn_4_is_set>:
     f4c:	b508      	push	{r3, lr}
     f4e:	2108      	movs	r1, #8
     f50:	2000      	movs	r0, #0
     f52:	f000 f881 	bl	1058 <gpio_get_data_bit>
     f56:	f1d0 0001 	rsbs	r0, r0, #1
     f5a:	bf38      	it	cc
     f5c:	2000      	movcc	r0, #0
     f5e:	bd08      	pop	{r3, pc}

00000f60 <btn_5_is_set>:
     f60:	b508      	push	{r3, lr}
     f62:	2109      	movs	r1, #9
     f64:	2000      	movs	r0, #0
     f66:	f000 f877 	bl	1058 <gpio_get_data_bit>
     f6a:	f1d0 0001 	rsbs	r0, r0, #1
     f6e:	bf38      	it	cc
     f70:	2000      	movcc	r0, #0
     f72:	bd08      	pop	{r3, pc}

00000f74 <btn_fsm_init>:
     f74:	b510      	push	{r4, lr}
     f76:	6103      	str	r3, [r0, #16]
     f78:	9b02      	ldr	r3, [sp, #8]
     f7a:	2400      	movs	r4, #0
     f7c:	6004      	str	r4, [r0, #0]
     f7e:	6044      	str	r4, [r0, #4]
     f80:	6081      	str	r1, [r0, #8]
     f82:	60c2      	str	r2, [r0, #12]
     f84:	6143      	str	r3, [r0, #20]
     f86:	bd10      	pop	{r4, pc}

00000f88 <btn_fsm_step>:
     f88:	b538      	push	{r3, r4, r5, lr}
     f8a:	6805      	ldr	r5, [r0, #0]
     f8c:	4604      	mov	r4, r0
     f8e:	b945      	cbnz	r5, fa2 <btn_fsm_step+0x1a>
     f90:	6883      	ldr	r3, [r0, #8]
     f92:	4798      	blx	r3
     f94:	b338      	cbz	r0, fe6 <btn_fsm_step+0x5e>
     f96:	68e3      	ldr	r3, [r4, #12]
     f98:	4798      	blx	r3
     f9a:	2301      	movs	r3, #1
     f9c:	e884 0028 	stmia.w	r4, {r3, r5}
     fa0:	bd38      	pop	{r3, r4, r5, pc}
     fa2:	2d01      	cmp	r5, #1
     fa4:	d109      	bne.n	fba <btn_fsm_step+0x32>
     fa6:	6843      	ldr	r3, [r0, #4]
     fa8:	6902      	ldr	r2, [r0, #16]
     faa:	3301      	adds	r3, #1
     fac:	4293      	cmp	r3, r2
     fae:	6043      	str	r3, [r0, #4]
     fb0:	db19      	blt.n	fe6 <btn_fsm_step+0x5e>
     fb2:	2300      	movs	r3, #0
     fb4:	6043      	str	r3, [r0, #4]
     fb6:	2302      	movs	r3, #2
     fb8:	e006      	b.n	fc8 <btn_fsm_step+0x40>
     fba:	2d02      	cmp	r5, #2
     fbc:	d106      	bne.n	fcc <btn_fsm_step+0x44>
     fbe:	6883      	ldr	r3, [r0, #8]
     fc0:	4798      	blx	r3
     fc2:	b980      	cbnz	r0, fe6 <btn_fsm_step+0x5e>
     fc4:	6060      	str	r0, [r4, #4]
     fc6:	2303      	movs	r3, #3
     fc8:	6023      	str	r3, [r4, #0]
     fca:	bd38      	pop	{r3, r4, r5, pc}
     fcc:	2d03      	cmp	r5, #3
     fce:	d10a      	bne.n	fe6 <btn_fsm_step+0x5e>
     fd0:	6843      	ldr	r3, [r0, #4]
     fd2:	6942      	ldr	r2, [r0, #20]
     fd4:	3301      	adds	r3, #1
     fd6:	4293      	cmp	r3, r2
     fd8:	6043      	str	r3, [r0, #4]
     fda:	db04      	blt.n	fe6 <btn_fsm_step+0x5e>
     fdc:	6883      	ldr	r3, [r0, #8]
     fde:	4798      	blx	r3
     fe0:	b908      	cbnz	r0, fe6 <btn_fsm_step+0x5e>
     fe2:	6060      	str	r0, [r4, #4]
     fe4:	6020      	str	r0, [r4, #0]
     fe6:	bd38      	pop	{r3, r4, r5, pc}

00000fe8 <delay_ticks>:
     fe8:	2300      	movs	r3, #0
     fea:	4283      	cmp	r3, r0
     fec:	d002      	beq.n	ff4 <delay_ticks+0xc>
     fee:	bf00      	nop
     ff0:	3301      	adds	r3, #1
     ff2:	e7fa      	b.n	fea <delay_ticks+0x2>
     ff4:	4770      	bx	lr
	...

00000ff8 <gpio_set_dir>:
     ff8:	2803      	cmp	r0, #3
     ffa:	bf96      	itet	ls
     ffc:	4b03      	ldrls	r3, [pc, #12]	; (100c <gpio_set_dir+0x14>)
     ffe:	2000      	movhi	r0, #0
    1000:	f853 0020 	ldrls.w	r0, [r3, r0, lsl #2]
    1004:	f500 4000 	add.w	r0, r0, #32768	; 0x8000
    1008:	f7ff bf3d 	b.w	e86 <set_bit>
    100c:	00003f94 	.word	0x00003f94

00001010 <gpio_set_dir_in>:
    1010:	2200      	movs	r2, #0
    1012:	f7ff bff1 	b.w	ff8 <gpio_set_dir>

00001016 <gpio_set_dir_out>:
    1016:	2201      	movs	r2, #1
    1018:	f7ff bfee 	b.w	ff8 <gpio_set_dir>

0000101c <gpio_set_data_bit>:
    101c:	2803      	cmp	r0, #3
    101e:	bf98      	it	ls
    1020:	4b09      	ldrls	r3, [pc, #36]	; (1048 <gpio_set_data_bit+0x2c>)
    1022:	b570      	push	{r4, r5, r6, lr}
    1024:	bf98      	it	ls
    1026:	f853 5020 	ldrls.w	r5, [r3, r0, lsl #2]
    102a:	4608      	mov	r0, r1
    102c:	460c      	mov	r4, r1
    102e:	4616      	mov	r6, r2
    1030:	bf88      	it	hi
    1032:	2500      	movhi	r5, #0
    1034:	f7ff ff14 	bl	e60 <bit_mask>
    1038:	4621      	mov	r1, r4
    103a:	eb05 0080 	add.w	r0, r5, r0, lsl #2
    103e:	4632      	mov	r2, r6
    1040:	e8bd 4070 	ldmia.w	sp!, {r4, r5, r6, lr}
    1044:	f7ff bf1f 	b.w	e86 <set_bit>
    1048:	00003f94 	.word	0x00003f94

0000104c <gpio_set_data_bit_zero>:
    104c:	2200      	movs	r2, #0
    104e:	f7ff bfe5 	b.w	101c <gpio_set_data_bit>

00001052 <gpio_set_data_bit_one>:
    1052:	2201      	movs	r2, #1
    1054:	f7ff bfe2 	b.w	101c <gpio_set_data_bit>

00001058 <gpio_get_data_bit>:
    1058:	2803      	cmp	r0, #3
    105a:	b538      	push	{r3, r4, r5, lr}
    105c:	bf98      	it	ls
    105e:	4b08      	ldrls	r3, [pc, #32]	; (1080 <gpio_get_data_bit+0x28>)
    1060:	460c      	mov	r4, r1
    1062:	bf98      	it	ls
    1064:	f853 5020 	ldrls.w	r5, [r3, r0, lsl #2]
    1068:	4608      	mov	r0, r1
    106a:	bf88      	it	hi
    106c:	2500      	movhi	r5, #0
    106e:	f7ff fef7 	bl	e60 <bit_mask>
    1072:	4621      	mov	r1, r4
    1074:	eb05 0080 	add.w	r0, r5, r0, lsl #2
    1078:	e8bd 4038 	ldmia.w	sp!, {r3, r4, r5, lr}
    107c:	f7ff bf11 	b.w	ea2 <bit_is_set>
    1080:	00003f94 	.word	0x00003f94

00001084 <iocfg_pio2_6_set_func_gpio>:
    1084:	4801      	ldr	r0, [pc, #4]	; (108c <iocfg_pio2_6_set_func_gpio+0x8>)
    1086:	2107      	movs	r1, #7
    1088:	f7ff bf14 	b.w	eb4 <set_all_bits_zero>
    108c:	40044000 	.word	0x40044000

00001090 <iocfg_pio2_6_set_resistor_none>:
    1090:	4801      	ldr	r0, [pc, #4]	; (1098 <iocfg_pio2_6_set_resistor_none+0x8>)
    1092:	2118      	movs	r1, #24
    1094:	f7ff bf0e 	b.w	eb4 <set_all_bits_zero>
    1098:	40044000 	.word	0x40044000

0000109c <iocfg_pio2_6_set_resistor_pull_down>:
    109c:	b510      	push	{r4, lr}
    109e:	4c05      	ldr	r4, [pc, #20]	; (10b4 <iocfg_pio2_6_set_resistor_pull_down+0x18>)
    10a0:	2118      	movs	r1, #24
    10a2:	4620      	mov	r0, r4
    10a4:	f7ff ff06 	bl	eb4 <set_all_bits_zero>
    10a8:	4620      	mov	r0, r4
    10aa:	2108      	movs	r1, #8
    10ac:	e8bd 4010 	ldmia.w	sp!, {r4, lr}
    10b0:	f7ff bf05 	b.w	ebe <set_all_bits_one>
    10b4:	40044000 	.word	0x40044000

000010b8 <iocfg_pio2_6_set_resistor_pull_up>:
    10b8:	b510      	push	{r4, lr}
    10ba:	4c05      	ldr	r4, [pc, #20]	; (10d0 <iocfg_pio2_6_set_resistor_pull_up+0x18>)
    10bc:	2118      	movs	r1, #24
    10be:	4620      	mov	r0, r4
    10c0:	f7ff fef8 	bl	eb4 <set_all_bits_zero>
    10c4:	4620      	mov	r0, r4
    10c6:	2110      	movs	r1, #16
    10c8:	e8bd 4010 	ldmia.w	sp!, {r4, lr}
    10cc:	f7ff bef7 	b.w	ebe <set_all_bits_one>
    10d0:	40044000 	.word	0x40044000

000010d4 <iocfg_pio2_6_set_resistor_repeater>:
    10d4:	4801      	ldr	r0, [pc, #4]	; (10dc <iocfg_pio2_6_set_resistor_repeater+0x8>)
    10d6:	2118      	movs	r1, #24
    10d8:	f7ff bef1 	b.w	ebe <set_all_bits_one>
    10dc:	40044000 	.word	0x40044000

000010e0 <iocfg_pio2_6_set_hysteresis_disable>:
    10e0:	4801      	ldr	r0, [pc, #4]	; (10e8 <iocfg_pio2_6_set_hysteresis_disable+0x8>)
    10e2:	2120      	movs	r1, #32
    10e4:	f7ff bee6 	b.w	eb4 <set_all_bits_zero>
    10e8:	40044000 	.word	0x40044000

000010ec <iocfg_pio2_6_set_hysteresis_enable>:
    10ec:	4801      	ldr	r0, [pc, #4]	; (10f4 <iocfg_pio2_6_set_hysteresis_enable+0x8>)
    10ee:	2120      	movs	r1, #32
    10f0:	f7ff bee5 	b.w	ebe <set_all_bits_one>
    10f4:	40044000 	.word	0x40044000

000010f8 <iocfg_pio2_0_set_func_gpio>:
    10f8:	4801      	ldr	r0, [pc, #4]	; (1100 <iocfg_pio2_0_set_func_gpio+0x8>)
    10fa:	2107      	movs	r1, #7
    10fc:	f7ff beda 	b.w	eb4 <set_all_bits_zero>
    1100:	40044008 	.word	0x40044008

00001104 <iocfg_pio2_0_set_func_dtr>:
    1104:	b510      	push	{r4, lr}
    1106:	4c05      	ldr	r4, [pc, #20]	; (111c <iocfg_pio2_0_set_func_dtr+0x18>)
    1108:	2107      	movs	r1, #7
    110a:	4620      	mov	r0, r4
    110c:	f7ff fed2 	bl	eb4 <set_all_bits_zero>
    1110:	4620      	mov	r0, r4
    1112:	2101      	movs	r1, #1
    1114:	e8bd 4010 	ldmia.w	sp!, {r4, lr}
    1118:	f7ff bed1 	b.w	ebe <set_all_bits_one>
    111c:	40044008 	.word	0x40044008

00001120 <iocfg_pio2_0_set_resistor_none>:
    1120:	4801      	ldr	r0, [pc, #4]	; (1128 <iocfg_pio2_0_set_resistor_none+0x8>)
    1122:	2118      	movs	r1, #24
    1124:	f7ff bec6 	b.w	eb4 <set_all_bits_zero>
    1128:	40044008 	.word	0x40044008

0000112c <iocfg_pio2_0_set_resistor_pull_down>:
    112c:	b510      	push	{r4, lr}
    112e:	4c05      	ldr	r4, [pc, #20]	; (1144 <iocfg_pio2_0_set_resistor_pull_down+0x18>)
    1130:	2118      	movs	r1, #24
    1132:	4620      	mov	r0, r4
    1134:	f7ff febe 	bl	eb4 <set_all_bits_zero>
    1138:	4620      	mov	r0, r4
    113a:	2108      	movs	r1, #8
    113c:	e8bd 4010 	ldmia.w	sp!, {r4, lr}
    1140:	f7ff bebd 	b.w	ebe <set_all_bits_one>
    1144:	40044008 	.word	0x40044008

00001148 <iocfg_pio2_0_set_resistor_pull_up>:
    1148:	b510      	push	{r4, lr}
    114a:	4c05      	ldr	r4, [pc, #20]	; (1160 <iocfg_pio2_0_set_resistor_pull_up+0x18>)
    114c:	2118      	movs	r1, #24
    114e:	4620      	mov	r0, r4
    1150:	f7ff feb0 	bl	eb4 <set_all_bits_zero>
    1154:	4620      	mov	r0, r4
    1156:	2110      	movs	r1, #16
    1158:	e8bd 4010 	ldmia.w	sp!, {r4, lr}
    115c:	f7ff beaf 	b.w	ebe <set_all_bits_one>
    1160:	40044008 	.word	0x40044008

00001164 <iocfg_pio2_0_set_resistor_repeater>:
    1164:	4801      	ldr	r0, [pc, #4]	; (116c <iocfg_pio2_0_set_resistor_repeater+0x8>)
    1166:	2118      	movs	r1, #24
    1168:	f7ff bea9 	b.w	ebe <set_all_bits_one>
    116c:	40044008 	.word	0x40044008

00001170 <iocfg_pio2_0_set_hysteresis_disable>:
    1170:	4801      	ldr	r0, [pc, #4]	; (1178 <iocfg_pio2_0_set_hysteresis_disable+0x8>)
    1172:	2120      	movs	r1, #32
    1174:	f7ff be9e 	b.w	eb4 <set_all_bits_zero>
    1178:	40044008 	.word	0x40044008

0000117c <iocfg_pio2_0_set_hysteresis_enable>:
    117c:	4801      	ldr	r0, [pc, #4]	; (1184 <iocfg_pio2_0_set_hysteresis_enable+0x8>)
    117e:	2120      	movs	r1, #32
    1180:	f7ff be9d 	b.w	ebe <set_all_bits_one>
    1184:	40044008 	.word	0x40044008

00001188 <iocfg_pio0_0_set_func_reset>:
    1188:	4801      	ldr	r0, [pc, #4]	; (1190 <iocfg_pio0_0_set_func_reset+0x8>)
    118a:	2107      	movs	r1, #7
    118c:	f7ff be92 	b.w	eb4 <set_all_bits_zero>
    1190:	4004400c 	.word	0x4004400c

00001194 <iocfg_pio0_0_set_func_gpio>:
    1194:	b510      	push	{r4, lr}
    1196:	4c05      	ldr	r4, [pc, #20]	; (11ac <iocfg_pio0_0_set_func_gpio+0x18>)
    1198:	2107      	movs	r1, #7
    119a:	4620      	mov	r0, r4
    119c:	f7ff fe8a 	bl	eb4 <set_all_bits_zero>
    11a0:	4620      	mov	r0, r4
    11a2:	2101      	movs	r1, #1
    11a4:	e8bd 4010 	ldmia.w	sp!, {r4, lr}
    11a8:	f7ff be89 	b.w	ebe <set_all_bits_one>
    11ac:	4004400c 	.word	0x4004400c

000011b0 <iocfg_pio0_0_set_resistor_none>:
    11b0:	4801      	ldr	r0, [pc, #4]	; (11b8 <iocfg_pio0_0_set_resistor_none+0x8>)
    11b2:	2118      	movs	r1, #24
    11b4:	f7ff be7e 	b.w	eb4 <set_all_bits_zero>
    11b8:	4004400c 	.word	0x4004400c

000011bc <iocfg_pio0_0_set_resistor_pull_down>:
    11bc:	b510      	push	{r4, lr}
    11be:	4c05      	ldr	r4, [pc, #20]	; (11d4 <iocfg_pio0_0_set_resistor_pull_down+0x18>)
    11c0:	2118      	movs	r1, #24
    11c2:	4620      	mov	r0, r4
    11c4:	f7ff fe76 	bl	eb4 <set_all_bits_zero>
    11c8:	4620      	mov	r0, r4
    11ca:	2108      	movs	r1, #8
    11cc:	e8bd 4010 	ldmia.w	sp!, {r4, lr}
    11d0:	f7ff be75 	b.w	ebe <set_all_bits_one>
    11d4:	4004400c 	.word	0x4004400c

000011d8 <iocfg_pio0_0_set_resistor_pull_up>:
    11d8:	b510      	push	{r4, lr}
    11da:	4c05      	ldr	r4, [pc, #20]	; (11f0 <iocfg_pio0_0_set_resistor_pull_up+0x18>)
    11dc:	2118      	movs	r1, #24
    11de:	4620      	mov	r0, r4
    11e0:	f7ff fe68 	bl	eb4 <set_all_bits_zero>
    11e4:	4620      	mov	r0, r4
    11e6:	2110      	movs	r1, #16
    11e8:	e8bd 4010 	ldmia.w	sp!, {r4, lr}
    11ec:	f7ff be67 	b.w	ebe <set_all_bits_one>
    11f0:	4004400c 	.word	0x4004400c

000011f4 <iocfg_pio0_0_set_resistor_repeater>:
    11f4:	4801      	ldr	r0, [pc, #4]	; (11fc <iocfg_pio0_0_set_resistor_repeater+0x8>)
    11f6:	2118      	movs	r1, #24
    11f8:	f7ff be61 	b.w	ebe <set_all_bits_one>
    11fc:	4004400c 	.word	0x4004400c

00001200 <iocfg_pio0_0_set_hysteresis_disable>:
    1200:	4801      	ldr	r0, [pc, #4]	; (1208 <iocfg_pio0_0_set_hysteresis_disable+0x8>)
    1202:	2120      	movs	r1, #32
    1204:	f7ff be56 	b.w	eb4 <set_all_bits_zero>
    1208:	4004400c 	.word	0x4004400c

0000120c <iocfg_pio0_0_set_hysteresis_enable>:
    120c:	4801      	ldr	r0, [pc, #4]	; (1214 <iocfg_pio0_0_set_hysteresis_enable+0x8>)
    120e:	2120      	movs	r1, #32
    1210:	f7ff be55 	b.w	ebe <set_all_bits_one>
    1214:	4004400c 	.word	0x4004400c

00001218 <iocfg_pio0_1_set_func_gpio>:
    1218:	4801      	ldr	r0, [pc, #4]	; (1220 <iocfg_pio0_1_set_func_gpio+0x8>)
    121a:	2107      	movs	r1, #7
    121c:	f7ff be4a 	b.w	eb4 <set_all_bits_zero>
    1220:	40044010 	.word	0x40044010

00001224 <iocfg_pio0_1_set_func_clkout>:
    1224:	b510      	push	{r4, lr}
    1226:	4c05      	ldr	r4, [pc, #20]	; (123c <iocfg_pio0_1_set_func_clkout+0x18>)
    1228:	2107      	movs	r1, #7
    122a:	4620      	mov	r0, r4
    122c:	f7ff fe42 	bl	eb4 <set_all_bits_zero>
    1230:	4620      	mov	r0, r4
    1232:	2101      	movs	r1, #1
    1234:	e8bd 4010 	ldmia.w	sp!, {r4, lr}
    1238:	f7ff be41 	b.w	ebe <set_all_bits_one>
    123c:	40044010 	.word	0x40044010

00001240 <iocfg_pio0_1_set_func_ct32b0_mat2>:
    1240:	b510      	push	{r4, lr}
    1242:	4c05      	ldr	r4, [pc, #20]	; (1258 <iocfg_pio0_1_set_func_ct32b0_mat2+0x18>)
    1244:	2107      	movs	r1, #7
    1246:	4620      	mov	r0, r4
    1248:	f7ff fe34 	bl	eb4 <set_all_bits_zero>
    124c:	4620      	mov	r0, r4
    124e:	2102      	movs	r1, #2
    1250:	e8bd 4010 	ldmia.w	sp!, {r4, lr}
    1254:	f7ff be33 	b.w	ebe <set_all_bits_one>
    1258:	40044010 	.word	0x40044010

0000125c <iocfg_pio0_1_set_func_usb_ftoggle>:
    125c:	b510      	push	{r4, lr}
    125e:	4c05      	ldr	r4, [pc, #20]	; (1274 <iocfg_pio0_1_set_func_usb_ftoggle+0x18>)
    1260:	2107      	movs	r1, #7
    1262:	4620      	mov	r0, r4
    1264:	f7ff fe26 	bl	eb4 <set_all_bits_zero>
    1268:	4620      	mov	r0, r4
    126a:	2103      	movs	r1, #3
    126c:	e8bd 4010 	ldmia.w	sp!, {r4, lr}
    1270:	f7ff be25 	b.w	ebe <set_all_bits_one>
    1274:	40044010 	.word	0x40044010

00001278 <iocfg_pio0_1_set_resistor_none>:
    1278:	4801      	ldr	r0, [pc, #4]	; (1280 <iocfg_pio0_1_set_resistor_none+0x8>)
    127a:	2118      	movs	r1, #24
    127c:	f7ff be1a 	b.w	eb4 <set_all_bits_zero>
    1280:	40044010 	.word	0x40044010

00001284 <iocfg_pio0_1_set_resistor_pull_down>:
    1284:	b510      	push	{r4, lr}
    1286:	4c05      	ldr	r4, [pc, #20]	; (129c <iocfg_pio0_1_set_resistor_pull_down+0x18>)
    1288:	2118      	movs	r1, #24
    128a:	4620      	mov	r0, r4
    128c:	f7ff fe12 	bl	eb4 <set_all_bits_zero>
    1290:	4620      	mov	r0, r4
    1292:	2108      	movs	r1, #8
    1294:	e8bd 4010 	ldmia.w	sp!, {r4, lr}
    1298:	f7ff be11 	b.w	ebe <set_all_bits_one>
    129c:	40044010 	.word	0x40044010

000012a0 <iocfg_pio0_1_set_resistor_pull_up>:
    12a0:	b510      	push	{r4, lr}
    12a2:	4c05      	ldr	r4, [pc, #20]	; (12b8 <iocfg_pio0_1_set_resistor_pull_up+0x18>)
    12a4:	2118      	movs	r1, #24
    12a6:	4620      	mov	r0, r4
    12a8:	f7ff fe04 	bl	eb4 <set_all_bits_zero>
    12ac:	4620      	mov	r0, r4
    12ae:	2110      	movs	r1, #16
    12b0:	e8bd 4010 	ldmia.w	sp!, {r4, lr}
    12b4:	f7ff be03 	b.w	ebe <set_all_bits_one>
    12b8:	40044010 	.word	0x40044010

000012bc <iocfg_pio0_1_set_resistor_repeater>:
    12bc:	4801      	ldr	r0, [pc, #4]	; (12c4 <iocfg_pio0_1_set_resistor_repeater+0x8>)
    12be:	2118      	movs	r1, #24
    12c0:	f7ff bdfd 	b.w	ebe <set_all_bits_one>
    12c4:	40044010 	.word	0x40044010

000012c8 <iocfg_pio0_1_set_hysteresis_disable>:
    12c8:	4801      	ldr	r0, [pc, #4]	; (12d0 <iocfg_pio0_1_set_hysteresis_disable+0x8>)
    12ca:	2120      	movs	r1, #32
    12cc:	f7ff bdf2 	b.w	eb4 <set_all_bits_zero>
    12d0:	40044010 	.word	0x40044010

000012d4 <iocfg_pio0_1_set_hysteresis_enable>:
    12d4:	4801      	ldr	r0, [pc, #4]	; (12dc <iocfg_pio0_1_set_hysteresis_enable+0x8>)
    12d6:	2120      	movs	r1, #32
    12d8:	f7ff bdf1 	b.w	ebe <set_all_bits_one>
    12dc:	40044010 	.word	0x40044010

000012e0 <iocfg_pio1_8_set_func_gpio>:
    12e0:	4801      	ldr	r0, [pc, #4]	; (12e8 <iocfg_pio1_8_set_func_gpio+0x8>)
    12e2:	2107      	movs	r1, #7
    12e4:	f7ff bde6 	b.w	eb4 <set_all_bits_zero>
    12e8:	40044014 	.word	0x40044014

000012ec <iocfg_pio1_8_set_func_ct16b1_cap0>:
    12ec:	b510      	push	{r4, lr}
    12ee:	4c05      	ldr	r4, [pc, #20]	; (1304 <iocfg_pio1_8_set_func_ct16b1_cap0+0x18>)
    12f0:	2107      	movs	r1, #7
    12f2:	4620      	mov	r0, r4
    12f4:	f7ff fdde 	bl	eb4 <set_all_bits_zero>
    12f8:	4620      	mov	r0, r4
    12fa:	2101      	movs	r1, #1
    12fc:	e8bd 4010 	ldmia.w	sp!, {r4, lr}
    1300:	f7ff bddd 	b.w	ebe <set_all_bits_one>
    1304:	40044014 	.word	0x40044014

00001308 <iocfg_pio1_8_set_resistor_none>:
    1308:	4801      	ldr	r0, [pc, #4]	; (1310 <iocfg_pio1_8_set_resistor_none+0x8>)
    130a:	2118      	movs	r1, #24
    130c:	f7ff bdd2 	b.w	eb4 <set_all_bits_zero>
    1310:	40044014 	.word	0x40044014

00001314 <iocfg_pio1_8_set_resistor_pull_down>:
    1314:	b510      	push	{r4, lr}
    1316:	4c05      	ldr	r4, [pc, #20]	; (132c <iocfg_pio1_8_set_resistor_pull_down+0x18>)
    1318:	2118      	movs	r1, #24
    131a:	4620      	mov	r0, r4
    131c:	f7ff fdca 	bl	eb4 <set_all_bits_zero>
    1320:	4620      	mov	r0, r4
    1322:	2108      	movs	r1, #8
    1324:	e8bd 4010 	ldmia.w	sp!, {r4, lr}
    1328:	f7ff bdc9 	b.w	ebe <set_all_bits_one>
    132c:	40044014 	.word	0x40044014

00001330 <iocfg_pio1_8_set_resistor_pull_up>:
    1330:	b510      	push	{r4, lr}
    1332:	4c05      	ldr	r4, [pc, #20]	; (1348 <iocfg_pio1_8_set_resistor_pull_up+0x18>)
    1334:	2118      	movs	r1, #24
    1336:	4620      	mov	r0, r4
    1338:	f7ff fdbc 	bl	eb4 <set_all_bits_zero>
    133c:	4620      	mov	r0, r4
    133e:	2110      	movs	r1, #16
    1340:	e8bd 4010 	ldmia.w	sp!, {r4, lr}
    1344:	f7ff bdbb 	b.w	ebe <set_all_bits_one>
    1348:	40044014 	.word	0x40044014

0000134c <iocfg_pio1_8_set_resistor_repeater>:
    134c:	4801      	ldr	r0, [pc, #4]	; (1354 <iocfg_pio1_8_set_resistor_repeater+0x8>)
    134e:	2118      	movs	r1, #24
    1350:	f7ff bdb5 	b.w	ebe <set_all_bits_one>
    1354:	40044014 	.word	0x40044014

00001358 <iocfg_pio1_8_set_hysteresis_disable>:
    1358:	4801      	ldr	r0, [pc, #4]	; (1360 <iocfg_pio1_8_set_hysteresis_disable+0x8>)
    135a:	2120      	movs	r1, #32
    135c:	f7ff bdaa 	b.w	eb4 <set_all_bits_zero>
    1360:	40044014 	.word	0x40044014

00001364 <iocfg_pio1_8_set_hysteresis_enable>:
    1364:	4801      	ldr	r0, [pc, #4]	; (136c <iocfg_pio1_8_set_hysteresis_enable+0x8>)
    1366:	2120      	movs	r1, #32
    1368:	f7ff bda9 	b.w	ebe <set_all_bits_one>
    136c:	40044014 	.word	0x40044014

00001370 <iocfg_pio0_2_set_func_gpio>:
    1370:	4801      	ldr	r0, [pc, #4]	; (1378 <iocfg_pio0_2_set_func_gpio+0x8>)
    1372:	2107      	movs	r1, #7
    1374:	f7ff bd9e 	b.w	eb4 <set_all_bits_zero>
    1378:	4004401c 	.word	0x4004401c

0000137c <iocfg_pio0_2_set_func_ssel>:
    137c:	b510      	push	{r4, lr}
    137e:	4c05      	ldr	r4, [pc, #20]	; (1394 <iocfg_pio0_2_set_func_ssel+0x18>)
    1380:	2107      	movs	r1, #7
    1382:	4620      	mov	r0, r4
    1384:	f7ff fd96 	bl	eb4 <set_all_bits_zero>
    1388:	4620      	mov	r0, r4
    138a:	2101      	movs	r1, #1
    138c:	e8bd 4010 	ldmia.w	sp!, {r4, lr}
    1390:	f7ff bd95 	b.w	ebe <set_all_bits_one>
    1394:	4004401c 	.word	0x4004401c

00001398 <iocfg_pio0_2_set_func_ct16b0_cap0>:
    1398:	b510      	push	{r4, lr}
    139a:	4c05      	ldr	r4, [pc, #20]	; (13b0 <iocfg_pio0_2_set_func_ct16b0_cap0+0x18>)
    139c:	2107      	movs	r1, #7
    139e:	4620      	mov	r0, r4
    13a0:	f7ff fd88 	bl	eb4 <set_all_bits_zero>
    13a4:	4620      	mov	r0, r4
    13a6:	2102      	movs	r1, #2
    13a8:	e8bd 4010 	ldmia.w	sp!, {r4, lr}
    13ac:	f7ff bd87 	b.w	ebe <set_all_bits_one>
    13b0:	4004401c 	.word	0x4004401c

000013b4 <iocfg_pio0_2_set_resistor_none>:
    13b4:	4801      	ldr	r0, [pc, #4]	; (13bc <iocfg_pio0_2_set_resistor_none+0x8>)
    13b6:	2118      	movs	r1, #24
    13b8:	f7ff bd7c 	b.w	eb4 <set_all_bits_zero>
    13bc:	4004401c 	.word	0x4004401c

000013c0 <iocfg_pio0_2_set_resistor_pull_down>:
    13c0:	b510      	push	{r4, lr}
    13c2:	4c05      	ldr	r4, [pc, #20]	; (13d8 <iocfg_pio0_2_set_resistor_pull_down+0x18>)
    13c4:	2118      	movs	r1, #24
    13c6:	4620      	mov	r0, r4
    13c8:	f7ff fd74 	bl	eb4 <set_all_bits_zero>
    13cc:	4620      	mov	r0, r4
    13ce:	2108      	movs	r1, #8
    13d0:	e8bd 4010 	ldmia.w	sp!, {r4, lr}
    13d4:	f7ff bd73 	b.w	ebe <set_all_bits_one>
    13d8:	4004401c 	.word	0x4004401c

000013dc <iocfg_pio0_2_set_resistor_pull_up>:
    13dc:	b510      	push	{r4, lr}
    13de:	4c05      	ldr	r4, [pc, #20]	; (13f4 <iocfg_pio0_2_set_resistor_pull_up+0x18>)
    13e0:	2118      	movs	r1, #24
    13e2:	4620      	mov	r0, r4
    13e4:	f7ff fd66 	bl	eb4 <set_all_bits_zero>
    13e8:	4620      	mov	r0, r4
    13ea:	2110      	movs	r1, #16
    13ec:	e8bd 4010 	ldmia.w	sp!, {r4, lr}
    13f0:	f7ff bd65 	b.w	ebe <set_all_bits_one>
    13f4:	4004401c 	.word	0x4004401c

000013f8 <iocfg_pio0_2_set_resistor_repeater>:
    13f8:	4801      	ldr	r0, [pc, #4]	; (1400 <iocfg_pio0_2_set_resistor_repeater+0x8>)
    13fa:	2118      	movs	r1, #24
    13fc:	f7ff bd5f 	b.w	ebe <set_all_bits_one>
    1400:	4004401c 	.word	0x4004401c

00001404 <iocfg_pio0_2_set_hysteresis_disable>:
    1404:	4801      	ldr	r0, [pc, #4]	; (140c <iocfg_pio0_2_set_hysteresis_disable+0x8>)
    1406:	2120      	movs	r1, #32
    1408:	f7ff bd54 	b.w	eb4 <set_all_bits_zero>
    140c:	4004401c 	.word	0x4004401c

00001410 <iocfg_pio0_2_set_hysteresis_enable>:
    1410:	4801      	ldr	r0, [pc, #4]	; (1418 <iocfg_pio0_2_set_hysteresis_enable+0x8>)
    1412:	2120      	movs	r1, #32
    1414:	f7ff bd53 	b.w	ebe <set_all_bits_one>
    1418:	4004401c 	.word	0x4004401c

0000141c <iocfg_pio2_7_set_func_gpio>:
    141c:	4801      	ldr	r0, [pc, #4]	; (1424 <iocfg_pio2_7_set_func_gpio+0x8>)
    141e:	2107      	movs	r1, #7
    1420:	f7ff bd48 	b.w	eb4 <set_all_bits_zero>
    1424:	40044020 	.word	0x40044020

00001428 <iocfg_pio2_7_set_resistor_none>:
    1428:	4801      	ldr	r0, [pc, #4]	; (1430 <iocfg_pio2_7_set_resistor_none+0x8>)
    142a:	2118      	movs	r1, #24
    142c:	f7ff bd42 	b.w	eb4 <set_all_bits_zero>
    1430:	40044020 	.word	0x40044020

00001434 <iocfg_pio2_7_set_resistor_pull_down>:
    1434:	b510      	push	{r4, lr}
    1436:	4c05      	ldr	r4, [pc, #20]	; (144c <iocfg_pio2_7_set_resistor_pull_down+0x18>)
    1438:	2118      	movs	r1, #24
    143a:	4620      	mov	r0, r4
    143c:	f7ff fd3a 	bl	eb4 <set_all_bits_zero>
    1440:	4620      	mov	r0, r4
    1442:	2108      	movs	r1, #8
    1444:	e8bd 4010 	ldmia.w	sp!, {r4, lr}
    1448:	f7ff bd39 	b.w	ebe <set_all_bits_one>
    144c:	40044020 	.word	0x40044020

00001450 <iocfg_pio2_7_set_resistor_pull_up>:
    1450:	b510      	push	{r4, lr}
    1452:	4c05      	ldr	r4, [pc, #20]	; (1468 <iocfg_pio2_7_set_resistor_pull_up+0x18>)
    1454:	2118      	movs	r1, #24
    1456:	4620      	mov	r0, r4
    1458:	f7ff fd2c 	bl	eb4 <set_all_bits_zero>
    145c:	4620      	mov	r0, r4
    145e:	2110      	movs	r1, #16
    1460:	e8bd 4010 	ldmia.w	sp!, {r4, lr}
    1464:	f7ff bd2b 	b.w	ebe <set_all_bits_one>
    1468:	40044020 	.word	0x40044020

0000146c <iocfg_pio2_7_set_resistor_repeater>:
    146c:	4801      	ldr	r0, [pc, #4]	; (1474 <iocfg_pio2_7_set_resistor_repeater+0x8>)
    146e:	2118      	movs	r1, #24
    1470:	f7ff bd25 	b.w	ebe <set_all_bits_one>
    1474:	40044020 	.word	0x40044020

00001478 <iocfg_pio2_7_set_hysteresis_disable>:
    1478:	4801      	ldr	r0, [pc, #4]	; (1480 <iocfg_pio2_7_set_hysteresis_disable+0x8>)
    147a:	2120      	movs	r1, #32
    147c:	f7ff bd1a 	b.w	eb4 <set_all_bits_zero>
    1480:	40044020 	.word	0x40044020

00001484 <iocfg_pio2_7_set_hysteresis_enable>:
    1484:	4801      	ldr	r0, [pc, #4]	; (148c <iocfg_pio2_7_set_hysteresis_enable+0x8>)
    1486:	2120      	movs	r1, #32
    1488:	f7ff bd19 	b.w	ebe <set_all_bits_one>
    148c:	40044020 	.word	0x40044020

00001490 <iocfg_pio2_8_set_func_gpio>:
    1490:	4801      	ldr	r0, [pc, #4]	; (1498 <iocfg_pio2_8_set_func_gpio+0x8>)
    1492:	2107      	movs	r1, #7
    1494:	f7ff bd0e 	b.w	eb4 <set_all_bits_zero>
    1498:	40044024 	.word	0x40044024

0000149c <iocfg_pio2_8_set_resistor_none>:
    149c:	4801      	ldr	r0, [pc, #4]	; (14a4 <iocfg_pio2_8_set_resistor_none+0x8>)
    149e:	2118      	movs	r1, #24
    14a0:	f7ff bd08 	b.w	eb4 <set_all_bits_zero>
    14a4:	40044024 	.word	0x40044024

000014a8 <iocfg_pio2_8_set_resistor_pull_down>:
    14a8:	b510      	push	{r4, lr}
    14aa:	4c05      	ldr	r4, [pc, #20]	; (14c0 <iocfg_pio2_8_set_resistor_pull_down+0x18>)
    14ac:	2118      	movs	r1, #24
    14ae:	4620      	mov	r0, r4
    14b0:	f7ff fd00 	bl	eb4 <set_all_bits_zero>
    14b4:	4620      	mov	r0, r4
    14b6:	2108      	movs	r1, #8
    14b8:	e8bd 4010 	ldmia.w	sp!, {r4, lr}
    14bc:	f7ff bcff 	b.w	ebe <set_all_bits_one>
    14c0:	40044024 	.word	0x40044024

000014c4 <iocfg_pio2_8_set_resistor_pull_up>:
    14c4:	b510      	push	{r4, lr}
    14c6:	4c05      	ldr	r4, [pc, #20]	; (14dc <iocfg_pio2_8_set_resistor_pull_up+0x18>)
    14c8:	2118      	movs	r1, #24
    14ca:	4620      	mov	r0, r4
    14cc:	f7ff fcf2 	bl	eb4 <set_all_bits_zero>
    14d0:	4620      	mov	r0, r4
    14d2:	2110      	movs	r1, #16
    14d4:	e8bd 4010 	ldmia.w	sp!, {r4, lr}
    14d8:	f7ff bcf1 	b.w	ebe <set_all_bits_one>
    14dc:	40044024 	.word	0x40044024

000014e0 <iocfg_pio2_8_set_resistor_repeater>:
    14e0:	4801      	ldr	r0, [pc, #4]	; (14e8 <iocfg_pio2_8_set_resistor_repeater+0x8>)
    14e2:	2118      	movs	r1, #24
    14e4:	f7ff bceb 	b.w	ebe <set_all_bits_one>
    14e8:	40044024 	.word	0x40044024

000014ec <iocfg_pio2_8_set_hysteresis_disable>:
    14ec:	4801      	ldr	r0, [pc, #4]	; (14f4 <iocfg_pio2_8_set_hysteresis_disable+0x8>)
    14ee:	2120      	movs	r1, #32
    14f0:	f7ff bce0 	b.w	eb4 <set_all_bits_zero>
    14f4:	40044024 	.word	0x40044024

000014f8 <iocfg_pio2_8_set_hysteresis_enable>:
    14f8:	4801      	ldr	r0, [pc, #4]	; (1500 <iocfg_pio2_8_set_hysteresis_enable+0x8>)
    14fa:	2120      	movs	r1, #32
    14fc:	f7ff bcdf 	b.w	ebe <set_all_bits_one>
    1500:	40044024 	.word	0x40044024

00001504 <iocfg_pio2_1_set_func_gpio>:
    1504:	4801      	ldr	r0, [pc, #4]	; (150c <iocfg_pio2_1_set_func_gpio+0x8>)
    1506:	2107      	movs	r1, #7
    1508:	f7ff bcd4 	b.w	eb4 <set_all_bits_zero>
    150c:	40044028 	.word	0x40044028

00001510 <iocfg_pio2_1_set_func_dsr>:
    1510:	b510      	push	{r4, lr}
    1512:	4c05      	ldr	r4, [pc, #20]	; (1528 <iocfg_pio2_1_set_func_dsr+0x18>)
    1514:	2107      	movs	r1, #7
    1516:	4620      	mov	r0, r4
    1518:	f7ff fccc 	bl	eb4 <set_all_bits_zero>
    151c:	4620      	mov	r0, r4
    151e:	2101      	movs	r1, #1
    1520:	e8bd 4010 	ldmia.w	sp!, {r4, lr}
    1524:	f7ff bccb 	b.w	ebe <set_all_bits_one>
    1528:	40044028 	.word	0x40044028

0000152c <iocfg_pio2_1_set_resistor_none>:
    152c:	4801      	ldr	r0, [pc, #4]	; (1534 <iocfg_pio2_1_set_resistor_none+0x8>)
    152e:	2118      	movs	r1, #24
    1530:	f7ff bcc0 	b.w	eb4 <set_all_bits_zero>
    1534:	40044028 	.word	0x40044028

00001538 <iocfg_pio2_1_set_resistor_pull_down>:
    1538:	b510      	push	{r4, lr}
    153a:	4c05      	ldr	r4, [pc, #20]	; (1550 <iocfg_pio2_1_set_resistor_pull_down+0x18>)
    153c:	2118      	movs	r1, #24
    153e:	4620      	mov	r0, r4
    1540:	f7ff fcb8 	bl	eb4 <set_all_bits_zero>
    1544:	4620      	mov	r0, r4
    1546:	2108      	movs	r1, #8
    1548:	e8bd 4010 	ldmia.w	sp!, {r4, lr}
    154c:	f7ff bcb7 	b.w	ebe <set_all_bits_one>
    1550:	40044028 	.word	0x40044028

00001554 <iocfg_pio2_1_set_resistor_pull_up>:
    1554:	b510      	push	{r4, lr}
    1556:	4c05      	ldr	r4, [pc, #20]	; (156c <iocfg_pio2_1_set_resistor_pull_up+0x18>)
    1558:	2118      	movs	r1, #24
    155a:	4620      	mov	r0, r4
    155c:	f7ff fcaa 	bl	eb4 <set_all_bits_zero>
    1560:	4620      	mov	r0, r4
    1562:	2110      	movs	r1, #16
    1564:	e8bd 4010 	ldmia.w	sp!, {r4, lr}
    1568:	f7ff bca9 	b.w	ebe <set_all_bits_one>
    156c:	40044028 	.word	0x40044028

00001570 <iocfg_pio2_1_set_resistor_repeater>:
    1570:	4801      	ldr	r0, [pc, #4]	; (1578 <iocfg_pio2_1_set_resistor_repeater+0x8>)
    1572:	2118      	movs	r1, #24
    1574:	f7ff bca3 	b.w	ebe <set_all_bits_one>
    1578:	40044028 	.word	0x40044028

0000157c <iocfg_pio2_1_set_hysteresis_disable>:
    157c:	4801      	ldr	r0, [pc, #4]	; (1584 <iocfg_pio2_1_set_hysteresis_disable+0x8>)
    157e:	2120      	movs	r1, #32
    1580:	f7ff bc98 	b.w	eb4 <set_all_bits_zero>
    1584:	40044028 	.word	0x40044028

00001588 <iocfg_pio2_1_set_hysteresis_enable>:
    1588:	4801      	ldr	r0, [pc, #4]	; (1590 <iocfg_pio2_1_set_hysteresis_enable+0x8>)
    158a:	2120      	movs	r1, #32
    158c:	f7ff bc97 	b.w	ebe <set_all_bits_one>
    1590:	40044028 	.word	0x40044028

00001594 <iocfg_pio0_3_set_func_gpio>:
    1594:	4801      	ldr	r0, [pc, #4]	; (159c <iocfg_pio0_3_set_func_gpio+0x8>)
    1596:	2107      	movs	r1, #7
    1598:	f7ff bc8c 	b.w	eb4 <set_all_bits_zero>
    159c:	4004402c 	.word	0x4004402c

000015a0 <iocfg_pio0_3_set_func_usb_vbus>:
    15a0:	b510      	push	{r4, lr}
    15a2:	4c05      	ldr	r4, [pc, #20]	; (15b8 <iocfg_pio0_3_set_func_usb_vbus+0x18>)
    15a4:	2107      	movs	r1, #7
    15a6:	4620      	mov	r0, r4
    15a8:	f7ff fc84 	bl	eb4 <set_all_bits_zero>
    15ac:	4620      	mov	r0, r4
    15ae:	2101      	movs	r1, #1
    15b0:	e8bd 4010 	ldmia.w	sp!, {r4, lr}
    15b4:	f7ff bc83 	b.w	ebe <set_all_bits_one>
    15b8:	4004402c 	.word	0x4004402c

000015bc <iocfg_pio0_3_set_resistor_none>:
    15bc:	4801      	ldr	r0, [pc, #4]	; (15c4 <iocfg_pio0_3_set_resistor_none+0x8>)
    15be:	2118      	movs	r1, #24
    15c0:	f7ff bc78 	b.w	eb4 <set_all_bits_zero>
    15c4:	4004402c 	.word	0x4004402c

000015c8 <iocfg_pio0_3_set_resistor_pull_down>:
    15c8:	b510      	push	{r4, lr}
    15ca:	4c05      	ldr	r4, [pc, #20]	; (15e0 <iocfg_pio0_3_set_resistor_pull_down+0x18>)
    15cc:	2118      	movs	r1, #24
    15ce:	4620      	mov	r0, r4
    15d0:	f7ff fc70 	bl	eb4 <set_all_bits_zero>
    15d4:	4620      	mov	r0, r4
    15d6:	2108      	movs	r1, #8
    15d8:	e8bd 4010 	ldmia.w	sp!, {r4, lr}
    15dc:	f7ff bc6f 	b.w	ebe <set_all_bits_one>
    15e0:	4004402c 	.word	0x4004402c

000015e4 <iocfg_pio0_3_set_resistor_pull_up>:
    15e4:	b510      	push	{r4, lr}
    15e6:	4c05      	ldr	r4, [pc, #20]	; (15fc <iocfg_pio0_3_set_resistor_pull_up+0x18>)
    15e8:	2118      	movs	r1, #24
    15ea:	4620      	mov	r0, r4
    15ec:	f7ff fc62 	bl	eb4 <set_all_bits_zero>
    15f0:	4620      	mov	r0, r4
    15f2:	2110      	movs	r1, #16
    15f4:	e8bd 4010 	ldmia.w	sp!, {r4, lr}
    15f8:	f7ff bc61 	b.w	ebe <set_all_bits_one>
    15fc:	4004402c 	.word	0x4004402c

00001600 <iocfg_pio0_3_set_resistor_repeater>:
    1600:	4801      	ldr	r0, [pc, #4]	; (1608 <iocfg_pio0_3_set_resistor_repeater+0x8>)
    1602:	2118      	movs	r1, #24
    1604:	f7ff bc5b 	b.w	ebe <set_all_bits_one>
    1608:	4004402c 	.word	0x4004402c

0000160c <iocfg_pio0_3_set_hysteresis_disable>:
    160c:	4801      	ldr	r0, [pc, #4]	; (1614 <iocfg_pio0_3_set_hysteresis_disable+0x8>)
    160e:	2120      	movs	r1, #32
    1610:	f7ff bc50 	b.w	eb4 <set_all_bits_zero>
    1614:	4004402c 	.word	0x4004402c

00001618 <iocfg_pio0_3_set_hysteresis_enable>:
    1618:	4801      	ldr	r0, [pc, #4]	; (1620 <iocfg_pio0_3_set_hysteresis_enable+0x8>)
    161a:	2120      	movs	r1, #32
    161c:	f7ff bc4f 	b.w	ebe <set_all_bits_one>
    1620:	4004402c 	.word	0x4004402c

00001624 <iocfg_pio0_4_set_func_gpio>:
    1624:	b510      	push	{r4, lr}
    1626:	4c08      	ldr	r4, [pc, #32]	; (1648 <iocfg_pio0_4_set_func_gpio+0x24>)
    1628:	2107      	movs	r1, #7
    162a:	4620      	mov	r0, r4
    162c:	f7ff fc42 	bl	eb4 <set_all_bits_zero>
    1630:	4620      	mov	r0, r4
    1632:	f44f 7140 	mov.w	r1, #768	; 0x300
    1636:	f7ff fc3d 	bl	eb4 <set_all_bits_zero>
    163a:	4620      	mov	r0, r4
    163c:	f44f 7180 	mov.w	r1, #256	; 0x100
    1640:	e8bd 4010 	ldmia.w	sp!, {r4, lr}
    1644:	f7ff bc3b 	b.w	ebe <set_all_bits_one>
    1648:	40044030 	.word	0x40044030

0000164c <iocfg_pio0_4_set_func_scl_i2c_standard_or_fast>:
    164c:	b510      	push	{r4, lr}
    164e:	4c08      	ldr	r4, [pc, #32]	; (1670 <iocfg_pio0_4_set_func_scl_i2c_standard_or_fast+0x24>)
    1650:	2107      	movs	r1, #7
    1652:	4620      	mov	r0, r4
    1654:	f7ff fc2e 	bl	eb4 <set_all_bits_zero>
    1658:	4620      	mov	r0, r4
    165a:	2101      	movs	r1, #1
    165c:	f7ff fc2f 	bl	ebe <set_all_bits_one>
    1660:	4620      	mov	r0, r4
    1662:	f44f 7140 	mov.w	r1, #768	; 0x300
    1666:	e8bd 4010 	ldmia.w	sp!, {r4, lr}
    166a:	f7ff bc23 	b.w	eb4 <set_all_bits_zero>
    166e:	bf00      	nop
    1670:	40044030 	.word	0x40044030

00001674 <iocfg_pio0_4_set_func_scl_i2c_fast_plus>:
    1674:	b510      	push	{r4, lr}
    1676:	4c0a      	ldr	r4, [pc, #40]	; (16a0 <iocfg_pio0_4_set_func_scl_i2c_fast_plus+0x2c>)
    1678:	2107      	movs	r1, #7
    167a:	4620      	mov	r0, r4
    167c:	f7ff fc1a 	bl	eb4 <set_all_bits_zero>
    1680:	4620      	mov	r0, r4
    1682:	2101      	movs	r1, #1
    1684:	f7ff fc1b 	bl	ebe <set_all_bits_one>
    1688:	4620      	mov	r0, r4
    168a:	f44f 7140 	mov.w	r1, #768	; 0x300
    168e:	f7ff fc11 	bl	eb4 <set_all_bits_zero>
    1692:	4620      	mov	r0, r4
    1694:	f44f 7100 	mov.w	r1, #512	; 0x200
    1698:	e8bd 4010 	ldmia.w	sp!, {r4, lr}
    169c:	f7ff bc0f 	b.w	ebe <set_all_bits_one>
    16a0:	40044030 	.word	0x40044030

000016a4 <iocfg_pio0_5_set_func_gpio>:
    16a4:	b510      	push	{r4, lr}
    16a6:	4c08      	ldr	r4, [pc, #32]	; (16c8 <iocfg_pio0_5_set_func_gpio+0x24>)
    16a8:	2107      	movs	r1, #7
    16aa:	4620      	mov	r0, r4
    16ac:	f7ff fc02 	bl	eb4 <set_all_bits_zero>
    16b0:	4620      	mov	r0, r4
    16b2:	f44f 7140 	mov.w	r1, #768	; 0x300
    16b6:	f7ff fbfd 	bl	eb4 <set_all_bits_zero>
    16ba:	4620      	mov	r0, r4
    16bc:	f44f 7180 	mov.w	r1, #256	; 0x100
    16c0:	e8bd 4010 	ldmia.w	sp!, {r4, lr}
    16c4:	f7ff bbfb 	b.w	ebe <set_all_bits_one>
    16c8:	40044034 	.word	0x40044034

000016cc <iocfg_pio0_5_set_func_sda_i2c_standard_or_fast>:
    16cc:	b510      	push	{r4, lr}
    16ce:	4c08      	ldr	r4, [pc, #32]	; (16f0 <iocfg_pio0_5_set_func_sda_i2c_standard_or_fast+0x24>)
    16d0:	2107      	movs	r1, #7
    16d2:	4620      	mov	r0, r4
    16d4:	f7ff fbee 	bl	eb4 <set_all_bits_zero>
    16d8:	4620      	mov	r0, r4
    16da:	2101      	movs	r1, #1
    16dc:	f7ff fbef 	bl	ebe <set_all_bits_one>
    16e0:	4620      	mov	r0, r4
    16e2:	f44f 7140 	mov.w	r1, #768	; 0x300
    16e6:	e8bd 4010 	ldmia.w	sp!, {r4, lr}
    16ea:	f7ff bbe3 	b.w	eb4 <set_all_bits_zero>
    16ee:	bf00      	nop
    16f0:	40044034 	.word	0x40044034

000016f4 <iocfg_pio0_5_set_func_sda_i2c_fast_plus>:
    16f4:	b510      	push	{r4, lr}
    16f6:	4c0a      	ldr	r4, [pc, #40]	; (1720 <iocfg_pio0_5_set_func_sda_i2c_fast_plus+0x2c>)
    16f8:	2107      	movs	r1, #7
    16fa:	4620      	mov	r0, r4
    16fc:	f7ff fbda 	bl	eb4 <set_all_bits_zero>
    1700:	4620      	mov	r0, r4
    1702:	2101      	movs	r1, #1
    1704:	f7ff fbdb 	bl	ebe <set_all_bits_one>
    1708:	4620      	mov	r0, r4
    170a:	f44f 7140 	mov.w	r1, #768	; 0x300
    170e:	f7ff fbd1 	bl	eb4 <set_all_bits_zero>
    1712:	4620      	mov	r0, r4
    1714:	f44f 7100 	mov.w	r1, #512	; 0x200
    1718:	e8bd 4010 	ldmia.w	sp!, {r4, lr}
    171c:	f7ff bbcf 	b.w	ebe <set_all_bits_one>
    1720:	40044034 	.word	0x40044034

00001724 <iocfg_pio1_9_set_func_gpio>:
    1724:	4801      	ldr	r0, [pc, #4]	; (172c <iocfg_pio1_9_set_func_gpio+0x8>)
    1726:	2107      	movs	r1, #7
    1728:	f7ff bbc4 	b.w	eb4 <set_all_bits_zero>
    172c:	40044038 	.word	0x40044038

00001730 <iocfg_pio1_9_set_func_ct16b1_mat0>:
    1730:	b510      	push	{r4, lr}
    1732:	4c05      	ldr	r4, [pc, #20]	; (1748 <iocfg_pio1_9_set_func_ct16b1_mat0+0x18>)
    1734:	2107      	movs	r1, #7
    1736:	4620      	mov	r0, r4
    1738:	f7ff fbbc 	bl	eb4 <set_all_bits_zero>
    173c:	4620      	mov	r0, r4
    173e:	2101      	movs	r1, #1
    1740:	e8bd 4010 	ldmia.w	sp!, {r4, lr}
    1744:	f7ff bbbb 	b.w	ebe <set_all_bits_one>
    1748:	40044038 	.word	0x40044038

0000174c <iocfg_pio1_9_set_resistor_none>:
    174c:	4801      	ldr	r0, [pc, #4]	; (1754 <iocfg_pio1_9_set_resistor_none+0x8>)
    174e:	2118      	movs	r1, #24
    1750:	f7ff bbb0 	b.w	eb4 <set_all_bits_zero>
    1754:	40044038 	.word	0x40044038

00001758 <iocfg_pio1_9_set_resistor_pull_down>:
    1758:	b510      	push	{r4, lr}
    175a:	4c05      	ldr	r4, [pc, #20]	; (1770 <iocfg_pio1_9_set_resistor_pull_down+0x18>)
    175c:	2118      	movs	r1, #24
    175e:	4620      	mov	r0, r4
    1760:	f7ff fba8 	bl	eb4 <set_all_bits_zero>
    1764:	4620      	mov	r0, r4
    1766:	2108      	movs	r1, #8
    1768:	e8bd 4010 	ldmia.w	sp!, {r4, lr}
    176c:	f7ff bba7 	b.w	ebe <set_all_bits_one>
    1770:	40044038 	.word	0x40044038

00001774 <iocfg_pio1_9_set_resistor_pull_up>:
    1774:	b510      	push	{r4, lr}
    1776:	4c05      	ldr	r4, [pc, #20]	; (178c <iocfg_pio1_9_set_resistor_pull_up+0x18>)
    1778:	2118      	movs	r1, #24
    177a:	4620      	mov	r0, r4
    177c:	f7ff fb9a 	bl	eb4 <set_all_bits_zero>
    1780:	4620      	mov	r0, r4
    1782:	2110      	movs	r1, #16
    1784:	e8bd 4010 	ldmia.w	sp!, {r4, lr}
    1788:	f7ff bb99 	b.w	ebe <set_all_bits_one>
    178c:	40044038 	.word	0x40044038

00001790 <iocfg_pio1_9_set_resistor_repeater>:
    1790:	4801      	ldr	r0, [pc, #4]	; (1798 <iocfg_pio1_9_set_resistor_repeater+0x8>)
    1792:	2118      	movs	r1, #24
    1794:	f7ff bb93 	b.w	ebe <set_all_bits_one>
    1798:	40044038 	.word	0x40044038

0000179c <iocfg_pio1_9_set_hysteresis_disable>:
    179c:	4801      	ldr	r0, [pc, #4]	; (17a4 <iocfg_pio1_9_set_hysteresis_disable+0x8>)
    179e:	2120      	movs	r1, #32
    17a0:	f7ff bb88 	b.w	eb4 <set_all_bits_zero>
    17a4:	40044038 	.word	0x40044038

000017a8 <iocfg_pio1_9_set_hysteresis_enable>:
    17a8:	4801      	ldr	r0, [pc, #4]	; (17b0 <iocfg_pio1_9_set_hysteresis_enable+0x8>)
    17aa:	2120      	movs	r1, #32
    17ac:	f7ff bb87 	b.w	ebe <set_all_bits_one>
    17b0:	40044038 	.word	0x40044038

000017b4 <iocfg_pio2_4_set_func_gpio>:
    17b4:	4801      	ldr	r0, [pc, #4]	; (17bc <iocfg_pio2_4_set_func_gpio+0x8>)
    17b6:	2107      	movs	r1, #7
    17b8:	f7ff bb7c 	b.w	eb4 <set_all_bits_zero>
    17bc:	40044040 	.word	0x40044040

000017c0 <iocfg_pio2_4_set_resistor_none>:
    17c0:	4801      	ldr	r0, [pc, #4]	; (17c8 <iocfg_pio2_4_set_resistor_none+0x8>)
    17c2:	2118      	movs	r1, #24
    17c4:	f7ff bb76 	b.w	eb4 <set_all_bits_zero>
    17c8:	40044040 	.word	0x40044040

000017cc <iocfg_pio2_4_set_resistor_pull_down>:
    17cc:	b510      	push	{r4, lr}
    17ce:	4c05      	ldr	r4, [pc, #20]	; (17e4 <iocfg_pio2_4_set_resistor_pull_down+0x18>)
    17d0:	2118      	movs	r1, #24
    17d2:	4620      	mov	r0, r4
    17d4:	f7ff fb6e 	bl	eb4 <set_all_bits_zero>
    17d8:	4620      	mov	r0, r4
    17da:	2108      	movs	r1, #8
    17dc:	e8bd 4010 	ldmia.w	sp!, {r4, lr}
    17e0:	f7ff bb6d 	b.w	ebe <set_all_bits_one>
    17e4:	40044040 	.word	0x40044040

000017e8 <iocfg_pio2_4_set_resistor_pull_up>:
    17e8:	b510      	push	{r4, lr}
    17ea:	4c05      	ldr	r4, [pc, #20]	; (1800 <iocfg_pio2_4_set_resistor_pull_up+0x18>)
    17ec:	2118      	movs	r1, #24
    17ee:	4620      	mov	r0, r4
    17f0:	f7ff fb60 	bl	eb4 <set_all_bits_zero>
    17f4:	4620      	mov	r0, r4
    17f6:	2110      	movs	r1, #16
    17f8:	e8bd 4010 	ldmia.w	sp!, {r4, lr}
    17fc:	f7ff bb5f 	b.w	ebe <set_all_bits_one>
    1800:	40044040 	.word	0x40044040

00001804 <iocfg_pio2_4_set_resistor_repeater>:
    1804:	4801      	ldr	r0, [pc, #4]	; (180c <iocfg_pio2_4_set_resistor_repeater+0x8>)
    1806:	2118      	movs	r1, #24
    1808:	f7ff bb59 	b.w	ebe <set_all_bits_one>
    180c:	40044040 	.word	0x40044040

00001810 <iocfg_pio2_4_set_hysteresis_disable>:
    1810:	4801      	ldr	r0, [pc, #4]	; (1818 <iocfg_pio2_4_set_hysteresis_disable+0x8>)
    1812:	2120      	movs	r1, #32
    1814:	f7ff bb4e 	b.w	eb4 <set_all_bits_zero>
    1818:	40044040 	.word	0x40044040

0000181c <iocfg_pio2_4_set_hysteresis_enable>:
    181c:	4801      	ldr	r0, [pc, #4]	; (1824 <iocfg_pio2_4_set_hysteresis_enable+0x8>)
    181e:	2120      	movs	r1, #32
    1820:	f7ff bb4d 	b.w	ebe <set_all_bits_one>
    1824:	40044040 	.word	0x40044040

00001828 <iocfg_pio2_5_set_func_gpio>:
    1828:	4801      	ldr	r0, [pc, #4]	; (1830 <iocfg_pio2_5_set_func_gpio+0x8>)
    182a:	2107      	movs	r1, #7
    182c:	f7ff bb42 	b.w	eb4 <set_all_bits_zero>
    1830:	40044044 	.word	0x40044044

00001834 <iocfg_pio2_5_set_resistor_none>:
    1834:	4801      	ldr	r0, [pc, #4]	; (183c <iocfg_pio2_5_set_resistor_none+0x8>)
    1836:	2118      	movs	r1, #24
    1838:	f7ff bb3c 	b.w	eb4 <set_all_bits_zero>
    183c:	40044044 	.word	0x40044044

00001840 <iocfg_pio2_5_set_resistor_pull_down>:
    1840:	b510      	push	{r4, lr}
    1842:	4c05      	ldr	r4, [pc, #20]	; (1858 <iocfg_pio2_5_set_resistor_pull_down+0x18>)
    1844:	2118      	movs	r1, #24
    1846:	4620      	mov	r0, r4
    1848:	f7ff fb34 	bl	eb4 <set_all_bits_zero>
    184c:	4620      	mov	r0, r4
    184e:	2108      	movs	r1, #8
    1850:	e8bd 4010 	ldmia.w	sp!, {r4, lr}
    1854:	f7ff bb33 	b.w	ebe <set_all_bits_one>
    1858:	40044044 	.word	0x40044044

0000185c <iocfg_pio2_5_set_resistor_pull_up>:
    185c:	b510      	push	{r4, lr}
    185e:	4c05      	ldr	r4, [pc, #20]	; (1874 <iocfg_pio2_5_set_resistor_pull_up+0x18>)
    1860:	2118      	movs	r1, #24
    1862:	4620      	mov	r0, r4
    1864:	f7ff fb26 	bl	eb4 <set_all_bits_zero>
    1868:	4620      	mov	r0, r4
    186a:	2110      	movs	r1, #16
    186c:	e8bd 4010 	ldmia.w	sp!, {r4, lr}
    1870:	f7ff bb25 	b.w	ebe <set_all_bits_one>
    1874:	40044044 	.word	0x40044044

00001878 <iocfg_pio2_5_set_resistor_repeater>:
    1878:	4801      	ldr	r0, [pc, #4]	; (1880 <iocfg_pio2_5_set_resistor_repeater+0x8>)
    187a:	2118      	movs	r1, #24
    187c:	f7ff bb1f 	b.w	ebe <set_all_bits_one>
    1880:	40044044 	.word	0x40044044

00001884 <iocfg_pio2_5_set_hysteresis_disable>:
    1884:	4801      	ldr	r0, [pc, #4]	; (188c <iocfg_pio2_5_set_hysteresis_disable+0x8>)
    1886:	2120      	movs	r1, #32
    1888:	f7ff bb14 	b.w	eb4 <set_all_bits_zero>
    188c:	40044044 	.word	0x40044044

00001890 <iocfg_pio2_5_set_hysteresis_enable>:
    1890:	4801      	ldr	r0, [pc, #4]	; (1898 <iocfg_pio2_5_set_hysteresis_enable+0x8>)
    1892:	2120      	movs	r1, #32
    1894:	f7ff bb13 	b.w	ebe <set_all_bits_one>
    1898:	40044044 	.word	0x40044044

0000189c <iocfg_pio0_6_set_func_gpio>:
    189c:	4801      	ldr	r0, [pc, #4]	; (18a4 <iocfg_pio0_6_set_func_gpio+0x8>)
    189e:	2107      	movs	r1, #7
    18a0:	f7ff bb08 	b.w	eb4 <set_all_bits_zero>
    18a4:	4004404c 	.word	0x4004404c

000018a8 <iocfg_pio0_6_set_func_usb_connect>:
    18a8:	b510      	push	{r4, lr}
    18aa:	4c05      	ldr	r4, [pc, #20]	; (18c0 <iocfg_pio0_6_set_func_usb_connect+0x18>)
    18ac:	2107      	movs	r1, #7
    18ae:	4620      	mov	r0, r4
    18b0:	f7ff fb00 	bl	eb4 <set_all_bits_zero>
    18b4:	4620      	mov	r0, r4
    18b6:	2101      	movs	r1, #1
    18b8:	e8bd 4010 	ldmia.w	sp!, {r4, lr}
    18bc:	f7ff baff 	b.w	ebe <set_all_bits_one>
    18c0:	4004404c 	.word	0x4004404c

000018c4 <iocfg_pio0_6_set_func_sck>:
    18c4:	b510      	push	{r4, lr}
    18c6:	4c0a      	ldr	r4, [pc, #40]	; (18f0 <iocfg_pio0_6_set_func_sck+0x2c>)
    18c8:	2107      	movs	r1, #7
    18ca:	4620      	mov	r0, r4
    18cc:	f7ff faf2 	bl	eb4 <set_all_bits_zero>
    18d0:	4620      	mov	r0, r4
    18d2:	2102      	movs	r1, #2
    18d4:	3464      	adds	r4, #100	; 0x64
    18d6:	f7ff faf2 	bl	ebe <set_all_bits_one>
    18da:	4620      	mov	r0, r4
    18dc:	2103      	movs	r1, #3
    18de:	f7ff fae9 	bl	eb4 <set_all_bits_zero>
    18e2:	4620      	mov	r0, r4
    18e4:	2102      	movs	r1, #2
    18e6:	e8bd 4010 	ldmia.w	sp!, {r4, lr}
    18ea:	f7ff bae8 	b.w	ebe <set_all_bits_one>
    18ee:	bf00      	nop
    18f0:	4004404c 	.word	0x4004404c

000018f4 <iocfg_pio0_6_set_resistor_none>:
    18f4:	4801      	ldr	r0, [pc, #4]	; (18fc <iocfg_pio0_6_set_resistor_none+0x8>)
    18f6:	2118      	movs	r1, #24
    18f8:	f7ff badc 	b.w	eb4 <set_all_bits_zero>
    18fc:	4004404c 	.word	0x4004404c

00001900 <iocfg_pio0_6_set_resistor_pull_down>:
    1900:	b510      	push	{r4, lr}
    1902:	4c05      	ldr	r4, [pc, #20]	; (1918 <iocfg_pio0_6_set_resistor_pull_down+0x18>)
    1904:	2118      	movs	r1, #24
    1906:	4620      	mov	r0, r4
    1908:	f7ff fad4 	bl	eb4 <set_all_bits_zero>
    190c:	4620      	mov	r0, r4
    190e:	2108      	movs	r1, #8
    1910:	e8bd 4010 	ldmia.w	sp!, {r4, lr}
    1914:	f7ff bad3 	b.w	ebe <set_all_bits_one>
    1918:	4004404c 	.word	0x4004404c

0000191c <iocfg_pio0_6_set_resistor_pull_up>:
    191c:	b510      	push	{r4, lr}
    191e:	4c05      	ldr	r4, [pc, #20]	; (1934 <iocfg_pio0_6_set_resistor_pull_up+0x18>)
    1920:	2118      	movs	r1, #24
    1922:	4620      	mov	r0, r4
    1924:	f7ff fac6 	bl	eb4 <set_all_bits_zero>
    1928:	4620      	mov	r0, r4
    192a:	2110      	movs	r1, #16
    192c:	e8bd 4010 	ldmia.w	sp!, {r4, lr}
    1930:	f7ff bac5 	b.w	ebe <set_all_bits_one>
    1934:	4004404c 	.word	0x4004404c

00001938 <iocfg_pio0_6_set_resistor_repeater>:
    1938:	4801      	ldr	r0, [pc, #4]	; (1940 <iocfg_pio0_6_set_resistor_repeater+0x8>)
    193a:	2118      	movs	r1, #24
    193c:	f7ff babf 	b.w	ebe <set_all_bits_one>
    1940:	4004404c 	.word	0x4004404c

00001944 <iocfg_pio0_6_set_hysteresis_disable>:
    1944:	4801      	ldr	r0, [pc, #4]	; (194c <iocfg_pio0_6_set_hysteresis_disable+0x8>)
    1946:	2120      	movs	r1, #32
    1948:	f7ff bab4 	b.w	eb4 <set_all_bits_zero>
    194c:	4004404c 	.word	0x4004404c

00001950 <iocfg_pio0_6_set_hysteresis_enable>:
    1950:	4801      	ldr	r0, [pc, #4]	; (1958 <iocfg_pio0_6_set_hysteresis_enable+0x8>)
    1952:	2120      	movs	r1, #32
    1954:	f7ff bab3 	b.w	ebe <set_all_bits_one>
    1958:	4004404c 	.word	0x4004404c

0000195c <iocfg_pio0_7_set_func_gpio>:
    195c:	4801      	ldr	r0, [pc, #4]	; (1964 <iocfg_pio0_7_set_func_gpio+0x8>)
    195e:	2107      	movs	r1, #7
    1960:	f7ff baa8 	b.w	eb4 <set_all_bits_zero>
    1964:	40044050 	.word	0x40044050

00001968 <iocfg_pio0_7_set_func_cts>:
    1968:	b510      	push	{r4, lr}
    196a:	4c05      	ldr	r4, [pc, #20]	; (1980 <iocfg_pio0_7_set_func_cts+0x18>)
    196c:	2107      	movs	r1, #7
    196e:	4620      	mov	r0, r4
    1970:	f7ff faa0 	bl	eb4 <set_all_bits_zero>
    1974:	4620      	mov	r0, r4
    1976:	2101      	movs	r1, #1
    1978:	e8bd 4010 	ldmia.w	sp!, {r4, lr}
    197c:	f7ff ba9f 	b.w	ebe <set_all_bits_one>
    1980:	40044050 	.word	0x40044050

00001984 <iocfg_pio0_7_set_resistor_none>:
    1984:	4801      	ldr	r0, [pc, #4]	; (198c <iocfg_pio0_7_set_resistor_none+0x8>)
    1986:	2118      	movs	r1, #24
    1988:	f7ff ba94 	b.w	eb4 <set_all_bits_zero>
    198c:	40044050 	.word	0x40044050

00001990 <iocfg_pio0_7_set_resistor_pull_down>:
    1990:	b510      	push	{r4, lr}
    1992:	4c05      	ldr	r4, [pc, #20]	; (19a8 <iocfg_pio0_7_set_resistor_pull_down+0x18>)
    1994:	2118      	movs	r1, #24
    1996:	4620      	mov	r0, r4
    1998:	f7ff fa8c 	bl	eb4 <set_all_bits_zero>
    199c:	4620      	mov	r0, r4
    199e:	2108      	movs	r1, #8
    19a0:	e8bd 4010 	ldmia.w	sp!, {r4, lr}
    19a4:	f7ff ba8b 	b.w	ebe <set_all_bits_one>
    19a8:	40044050 	.word	0x40044050

000019ac <iocfg_pio0_7_set_resistor_pull_up>:
    19ac:	b510      	push	{r4, lr}
    19ae:	4c05      	ldr	r4, [pc, #20]	; (19c4 <iocfg_pio0_7_set_resistor_pull_up+0x18>)
    19b0:	2118      	movs	r1, #24
    19b2:	4620      	mov	r0, r4
    19b4:	f7ff fa7e 	bl	eb4 <set_all_bits_zero>
    19b8:	4620      	mov	r0, r4
    19ba:	2110      	movs	r1, #16
    19bc:	e8bd 4010 	ldmia.w	sp!, {r4, lr}
    19c0:	f7ff ba7d 	b.w	ebe <set_all_bits_one>
    19c4:	40044050 	.word	0x40044050

000019c8 <iocfg_pio0_7_set_resistor_repeater>:
    19c8:	4801      	ldr	r0, [pc, #4]	; (19d0 <iocfg_pio0_7_set_resistor_repeater+0x8>)
    19ca:	2118      	movs	r1, #24
    19cc:	f7ff ba77 	b.w	ebe <set_all_bits_one>
    19d0:	40044050 	.word	0x40044050

000019d4 <iocfg_pio0_7_set_hysteresis_disable>:
    19d4:	4801      	ldr	r0, [pc, #4]	; (19dc <iocfg_pio0_7_set_hysteresis_disable+0x8>)
    19d6:	2120      	movs	r1, #32
    19d8:	f7ff ba6c 	b.w	eb4 <set_all_bits_zero>
    19dc:	40044050 	.word	0x40044050

000019e0 <iocfg_pio0_7_set_hysteresis_enable>:
    19e0:	4801      	ldr	r0, [pc, #4]	; (19e8 <iocfg_pio0_7_set_hysteresis_enable+0x8>)
    19e2:	2120      	movs	r1, #32
    19e4:	f7ff ba6b 	b.w	ebe <set_all_bits_one>
    19e8:	40044050 	.word	0x40044050

000019ec <iocfg_pio2_9_set_func_gpio>:
    19ec:	4801      	ldr	r0, [pc, #4]	; (19f4 <iocfg_pio2_9_set_func_gpio+0x8>)
    19ee:	2107      	movs	r1, #7
    19f0:	f7ff ba60 	b.w	eb4 <set_all_bits_zero>
    19f4:	40044054 	.word	0x40044054

000019f8 <iocfg_pio2_9_set_resistor_none>:
    19f8:	4801      	ldr	r0, [pc, #4]	; (1a00 <iocfg_pio2_9_set_resistor_none+0x8>)
    19fa:	2118      	movs	r1, #24
    19fc:	f7ff ba5a 	b.w	eb4 <set_all_bits_zero>
    1a00:	40044054 	.word	0x40044054

00001a04 <iocfg_pio2_9_set_resistor_pull_down>:
    1a04:	b510      	push	{r4, lr}
    1a06:	4c05      	ldr	r4, [pc, #20]	; (1a1c <iocfg_pio2_9_set_resistor_pull_down+0x18>)
    1a08:	2118      	movs	r1, #24
    1a0a:	4620      	mov	r0, r4
    1a0c:	f7ff fa52 	bl	eb4 <set_all_bits_zero>
    1a10:	4620      	mov	r0, r4
    1a12:	2108      	movs	r1, #8
    1a14:	e8bd 4010 	ldmia.w	sp!, {r4, lr}
    1a18:	f7ff ba51 	b.w	ebe <set_all_bits_one>
    1a1c:	40044054 	.word	0x40044054

00001a20 <iocfg_pio2_9_set_resistor_pull_up>:
    1a20:	b510      	push	{r4, lr}
    1a22:	4c05      	ldr	r4, [pc, #20]	; (1a38 <iocfg_pio2_9_set_resistor_pull_up+0x18>)
    1a24:	2118      	movs	r1, #24
    1a26:	4620      	mov	r0, r4
    1a28:	f7ff fa44 	bl	eb4 <set_all_bits_zero>
    1a2c:	4620      	mov	r0, r4
    1a2e:	2110      	movs	r1, #16
    1a30:	e8bd 4010 	ldmia.w	sp!, {r4, lr}
    1a34:	f7ff ba43 	b.w	ebe <set_all_bits_one>
    1a38:	40044054 	.word	0x40044054

00001a3c <iocfg_pio2_9_set_resistor_repeater>:
    1a3c:	4801      	ldr	r0, [pc, #4]	; (1a44 <iocfg_pio2_9_set_resistor_repeater+0x8>)
    1a3e:	2118      	movs	r1, #24
    1a40:	f7ff ba3d 	b.w	ebe <set_all_bits_one>
    1a44:	40044054 	.word	0x40044054

00001a48 <iocfg_pio2_9_set_hysteresis_disable>:
    1a48:	4801      	ldr	r0, [pc, #4]	; (1a50 <iocfg_pio2_9_set_hysteresis_disable+0x8>)
    1a4a:	2120      	movs	r1, #32
    1a4c:	f7ff ba32 	b.w	eb4 <set_all_bits_zero>
    1a50:	40044054 	.word	0x40044054

00001a54 <iocfg_pio2_9_set_hysteresis_enable>:
    1a54:	4801      	ldr	r0, [pc, #4]	; (1a5c <iocfg_pio2_9_set_hysteresis_enable+0x8>)
    1a56:	2120      	movs	r1, #32
    1a58:	f7ff ba31 	b.w	ebe <set_all_bits_one>
    1a5c:	40044054 	.word	0x40044054

00001a60 <iocfg_pio2_10_set_func_gpio>:
    1a60:	4801      	ldr	r0, [pc, #4]	; (1a68 <iocfg_pio2_10_set_func_gpio+0x8>)
    1a62:	2107      	movs	r1, #7
    1a64:	f7ff ba26 	b.w	eb4 <set_all_bits_zero>
    1a68:	40044058 	.word	0x40044058

00001a6c <iocfg_pio2_10_set_resistor_none>:
    1a6c:	4801      	ldr	r0, [pc, #4]	; (1a74 <iocfg_pio2_10_set_resistor_none+0x8>)
    1a6e:	2118      	movs	r1, #24
    1a70:	f7ff ba20 	b.w	eb4 <set_all_bits_zero>
    1a74:	40044058 	.word	0x40044058

00001a78 <iocfg_pio2_10_set_resistor_pull_down>:
    1a78:	b510      	push	{r4, lr}
    1a7a:	4c05      	ldr	r4, [pc, #20]	; (1a90 <iocfg_pio2_10_set_resistor_pull_down+0x18>)
    1a7c:	2118      	movs	r1, #24
    1a7e:	4620      	mov	r0, r4
    1a80:	f7ff fa18 	bl	eb4 <set_all_bits_zero>
    1a84:	4620      	mov	r0, r4
    1a86:	2108      	movs	r1, #8
    1a88:	e8bd 4010 	ldmia.w	sp!, {r4, lr}
    1a8c:	f7ff ba17 	b.w	ebe <set_all_bits_one>
    1a90:	40044058 	.word	0x40044058

00001a94 <iocfg_pio2_10_set_resistor_pull_up>:
    1a94:	b510      	push	{r4, lr}
    1a96:	4c05      	ldr	r4, [pc, #20]	; (1aac <iocfg_pio2_10_set_resistor_pull_up+0x18>)
    1a98:	2118      	movs	r1, #24
    1a9a:	4620      	mov	r0, r4
    1a9c:	f7ff fa0a 	bl	eb4 <set_all_bits_zero>
    1aa0:	4620      	mov	r0, r4
    1aa2:	2110      	movs	r1, #16
    1aa4:	e8bd 4010 	ldmia.w	sp!, {r4, lr}
    1aa8:	f7ff ba09 	b.w	ebe <set_all_bits_one>
    1aac:	40044058 	.word	0x40044058

00001ab0 <iocfg_pio2_10_set_resistor_repeater>:
    1ab0:	4801      	ldr	r0, [pc, #4]	; (1ab8 <iocfg_pio2_10_set_resistor_repeater+0x8>)
    1ab2:	2118      	movs	r1, #24
    1ab4:	f7ff ba03 	b.w	ebe <set_all_bits_one>
    1ab8:	40044058 	.word	0x40044058

00001abc <iocfg_pio2_10_set_hysteresis_disable>:
    1abc:	4801      	ldr	r0, [pc, #4]	; (1ac4 <iocfg_pio2_10_set_hysteresis_disable+0x8>)
    1abe:	2120      	movs	r1, #32
    1ac0:	f7ff b9f8 	b.w	eb4 <set_all_bits_zero>
    1ac4:	40044058 	.word	0x40044058

00001ac8 <iocfg_pio2_10_set_hysteresis_enable>:
    1ac8:	4801      	ldr	r0, [pc, #4]	; (1ad0 <iocfg_pio2_10_set_hysteresis_enable+0x8>)
    1aca:	2120      	movs	r1, #32
    1acc:	f7ff b9f7 	b.w	ebe <set_all_bits_one>
    1ad0:	40044058 	.word	0x40044058

00001ad4 <iocfg_pio2_2_set_func_gpio>:
    1ad4:	4801      	ldr	r0, [pc, #4]	; (1adc <iocfg_pio2_2_set_func_gpio+0x8>)
    1ad6:	2107      	movs	r1, #7
    1ad8:	f7ff b9ec 	b.w	eb4 <set_all_bits_zero>
    1adc:	4004405c 	.word	0x4004405c

00001ae0 <iocfg_pio2_2_set_func_dcd>:
    1ae0:	b510      	push	{r4, lr}
    1ae2:	4c05      	ldr	r4, [pc, #20]	; (1af8 <iocfg_pio2_2_set_func_dcd+0x18>)
    1ae4:	2107      	movs	r1, #7
    1ae6:	4620      	mov	r0, r4
    1ae8:	f7ff f9e4 	bl	eb4 <set_all_bits_zero>
    1aec:	4620      	mov	r0, r4
    1aee:	2101      	movs	r1, #1
    1af0:	e8bd 4010 	ldmia.w	sp!, {r4, lr}
    1af4:	f7ff b9e3 	b.w	ebe <set_all_bits_one>
    1af8:	4004405c 	.word	0x4004405c

00001afc <iocfg_pio2_2_set_resistor_none>:
    1afc:	4801      	ldr	r0, [pc, #4]	; (1b04 <iocfg_pio2_2_set_resistor_none+0x8>)
    1afe:	2118      	movs	r1, #24
    1b00:	f7ff b9d8 	b.w	eb4 <set_all_bits_zero>
    1b04:	4004405c 	.word	0x4004405c

00001b08 <iocfg_pio2_2_set_resistor_pull_down>:
    1b08:	b510      	push	{r4, lr}
    1b0a:	4c05      	ldr	r4, [pc, #20]	; (1b20 <iocfg_pio2_2_set_resistor_pull_down+0x18>)
    1b0c:	2118      	movs	r1, #24
    1b0e:	4620      	mov	r0, r4
    1b10:	f7ff f9d0 	bl	eb4 <set_all_bits_zero>
    1b14:	4620      	mov	r0, r4
    1b16:	2108      	movs	r1, #8
    1b18:	e8bd 4010 	ldmia.w	sp!, {r4, lr}
    1b1c:	f7ff b9cf 	b.w	ebe <set_all_bits_one>
    1b20:	4004405c 	.word	0x4004405c

00001b24 <iocfg_pio2_2_set_resistor_pull_up>:
    1b24:	b510      	push	{r4, lr}
    1b26:	4c05      	ldr	r4, [pc, #20]	; (1b3c <iocfg_pio2_2_set_resistor_pull_up+0x18>)
    1b28:	2118      	movs	r1, #24
    1b2a:	4620      	mov	r0, r4
    1b2c:	f7ff f9c2 	bl	eb4 <set_all_bits_zero>
    1b30:	4620      	mov	r0, r4
    1b32:	2110      	movs	r1, #16
    1b34:	e8bd 4010 	ldmia.w	sp!, {r4, lr}
    1b38:	f7ff b9c1 	b.w	ebe <set_all_bits_one>
    1b3c:	4004405c 	.word	0x4004405c

00001b40 <iocfg_pio2_2_set_resistor_repeater>:
    1b40:	4801      	ldr	r0, [pc, #4]	; (1b48 <iocfg_pio2_2_set_resistor_repeater+0x8>)
    1b42:	2118      	movs	r1, #24
    1b44:	f7ff b9bb 	b.w	ebe <set_all_bits_one>
    1b48:	4004405c 	.word	0x4004405c

00001b4c <iocfg_pio2_2_set_hysteresis_disable>:
    1b4c:	4801      	ldr	r0, [pc, #4]	; (1b54 <iocfg_pio2_2_set_hysteresis_disable+0x8>)
    1b4e:	2120      	movs	r1, #32
    1b50:	f7ff b9b0 	b.w	eb4 <set_all_bits_zero>
    1b54:	4004405c 	.word	0x4004405c

00001b58 <iocfg_pio2_2_set_hysteresis_enable>:
    1b58:	4801      	ldr	r0, [pc, #4]	; (1b60 <iocfg_pio2_2_set_hysteresis_enable+0x8>)
    1b5a:	2120      	movs	r1, #32
    1b5c:	f7ff b9af 	b.w	ebe <set_all_bits_one>
    1b60:	4004405c 	.word	0x4004405c

00001b64 <iocfg_pio0_8_set_func_gpio>:
    1b64:	4801      	ldr	r0, [pc, #4]	; (1b6c <iocfg_pio0_8_set_func_gpio+0x8>)
    1b66:	2107      	movs	r1, #7
    1b68:	f7ff b9a4 	b.w	eb4 <set_all_bits_zero>
    1b6c:	40044060 	.word	0x40044060

00001b70 <iocfg_pio0_8_set_func_miso>:
    1b70:	b510      	push	{r4, lr}
    1b72:	4c05      	ldr	r4, [pc, #20]	; (1b88 <iocfg_pio0_8_set_func_miso+0x18>)
    1b74:	2107      	movs	r1, #7
    1b76:	4620      	mov	r0, r4
    1b78:	f7ff f99c 	bl	eb4 <set_all_bits_zero>
    1b7c:	4620      	mov	r0, r4
    1b7e:	2101      	movs	r1, #1
    1b80:	e8bd 4010 	ldmia.w	sp!, {r4, lr}
    1b84:	f7ff b99b 	b.w	ebe <set_all_bits_one>
    1b88:	40044060 	.word	0x40044060

00001b8c <iocfg_pio0_8_set_func_ct16b0_mat0>:
    1b8c:	b510      	push	{r4, lr}
    1b8e:	4c05      	ldr	r4, [pc, #20]	; (1ba4 <iocfg_pio0_8_set_func_ct16b0_mat0+0x18>)
    1b90:	2107      	movs	r1, #7
    1b92:	4620      	mov	r0, r4
    1b94:	f7ff f98e 	bl	eb4 <set_all_bits_zero>
    1b98:	4620      	mov	r0, r4
    1b9a:	2102      	movs	r1, #2
    1b9c:	e8bd 4010 	ldmia.w	sp!, {r4, lr}
    1ba0:	f7ff b98d 	b.w	ebe <set_all_bits_one>
    1ba4:	40044060 	.word	0x40044060

00001ba8 <iocfg_pio0_8_set_resistor_none>:
    1ba8:	4801      	ldr	r0, [pc, #4]	; (1bb0 <iocfg_pio0_8_set_resistor_none+0x8>)
    1baa:	2118      	movs	r1, #24
    1bac:	f7ff b982 	b.w	eb4 <set_all_bits_zero>
    1bb0:	40044060 	.word	0x40044060

00001bb4 <iocfg_pio0_8_set_resistor_pull_down>:
    1bb4:	b510      	push	{r4, lr}
    1bb6:	4c05      	ldr	r4, [pc, #20]	; (1bcc <iocfg_pio0_8_set_resistor_pull_down+0x18>)
    1bb8:	2118      	movs	r1, #24
    1bba:	4620      	mov	r0, r4
    1bbc:	f7ff f97a 	bl	eb4 <set_all_bits_zero>
    1bc0:	4620      	mov	r0, r4
    1bc2:	2108      	movs	r1, #8
    1bc4:	e8bd 4010 	ldmia.w	sp!, {r4, lr}
    1bc8:	f7ff b979 	b.w	ebe <set_all_bits_one>
    1bcc:	40044060 	.word	0x40044060

00001bd0 <iocfg_pio0_8_set_resistor_pull_up>:
    1bd0:	b510      	push	{r4, lr}
    1bd2:	4c05      	ldr	r4, [pc, #20]	; (1be8 <iocfg_pio0_8_set_resistor_pull_up+0x18>)
    1bd4:	2118      	movs	r1, #24
    1bd6:	4620      	mov	r0, r4
    1bd8:	f7ff f96c 	bl	eb4 <set_all_bits_zero>
    1bdc:	4620      	mov	r0, r4
    1bde:	2110      	movs	r1, #16
    1be0:	e8bd 4010 	ldmia.w	sp!, {r4, lr}
    1be4:	f7ff b96b 	b.w	ebe <set_all_bits_one>
    1be8:	40044060 	.word	0x40044060

00001bec <iocfg_pio0_8_set_resistor_repeater>:
    1bec:	4801      	ldr	r0, [pc, #4]	; (1bf4 <iocfg_pio0_8_set_resistor_repeater+0x8>)
    1bee:	2118      	movs	r1, #24
    1bf0:	f7ff b965 	b.w	ebe <set_all_bits_one>
    1bf4:	40044060 	.word	0x40044060

00001bf8 <iocfg_pio0_8_set_hysteresis_disable>:
    1bf8:	4801      	ldr	r0, [pc, #4]	; (1c00 <iocfg_pio0_8_set_hysteresis_disable+0x8>)
    1bfa:	2120      	movs	r1, #32
    1bfc:	f7ff b95a 	b.w	eb4 <set_all_bits_zero>
    1c00:	40044060 	.word	0x40044060

00001c04 <iocfg_pio0_8_set_hysteresis_enable>:
    1c04:	4801      	ldr	r0, [pc, #4]	; (1c0c <iocfg_pio0_8_set_hysteresis_enable+0x8>)
    1c06:	2120      	movs	r1, #32
    1c08:	f7ff b959 	b.w	ebe <set_all_bits_one>
    1c0c:	40044060 	.word	0x40044060

00001c10 <iocfg_pio0_9_set_func_gpio>:
    1c10:	4801      	ldr	r0, [pc, #4]	; (1c18 <iocfg_pio0_9_set_func_gpio+0x8>)
    1c12:	2107      	movs	r1, #7
    1c14:	f7ff b94e 	b.w	eb4 <set_all_bits_zero>
    1c18:	40044064 	.word	0x40044064

00001c1c <iocfg_pio0_9_set_func_mosi>:
    1c1c:	b510      	push	{r4, lr}
    1c1e:	4c05      	ldr	r4, [pc, #20]	; (1c34 <iocfg_pio0_9_set_func_mosi+0x18>)
    1c20:	2107      	movs	r1, #7
    1c22:	4620      	mov	r0, r4
    1c24:	f7ff f946 	bl	eb4 <set_all_bits_zero>
    1c28:	4620      	mov	r0, r4
    1c2a:	2101      	movs	r1, #1
    1c2c:	e8bd 4010 	ldmia.w	sp!, {r4, lr}
    1c30:	f7ff b945 	b.w	ebe <set_all_bits_one>
    1c34:	40044064 	.word	0x40044064

00001c38 <iocfg_pio0_9_set_func_ct16b0_mat1>:
    1c38:	b510      	push	{r4, lr}
    1c3a:	4c05      	ldr	r4, [pc, #20]	; (1c50 <iocfg_pio0_9_set_func_ct16b0_mat1+0x18>)
    1c3c:	2107      	movs	r1, #7
    1c3e:	4620      	mov	r0, r4
    1c40:	f7ff f938 	bl	eb4 <set_all_bits_zero>
    1c44:	4620      	mov	r0, r4
    1c46:	2102      	movs	r1, #2
    1c48:	e8bd 4010 	ldmia.w	sp!, {r4, lr}
    1c4c:	f7ff b937 	b.w	ebe <set_all_bits_one>
    1c50:	40044064 	.word	0x40044064

00001c54 <iocfg_pio0_9_set_func_swo>:
    1c54:	b510      	push	{r4, lr}
    1c56:	4c05      	ldr	r4, [pc, #20]	; (1c6c <iocfg_pio0_9_set_func_swo+0x18>)
    1c58:	2107      	movs	r1, #7
    1c5a:	4620      	mov	r0, r4
    1c5c:	f7ff f92a 	bl	eb4 <set_all_bits_zero>
    1c60:	4620      	mov	r0, r4
    1c62:	2103      	movs	r1, #3
    1c64:	e8bd 4010 	ldmia.w	sp!, {r4, lr}
    1c68:	f7ff b929 	b.w	ebe <set_all_bits_one>
    1c6c:	40044064 	.word	0x40044064

00001c70 <iocfg_pio0_9_set_resistor_none>:
    1c70:	4801      	ldr	r0, [pc, #4]	; (1c78 <iocfg_pio0_9_set_resistor_none+0x8>)
    1c72:	2118      	movs	r1, #24
    1c74:	f7ff b91e 	b.w	eb4 <set_all_bits_zero>
    1c78:	40044064 	.word	0x40044064

00001c7c <iocfg_pio0_9_set_resistor_pull_down>:
    1c7c:	b510      	push	{r4, lr}
    1c7e:	4c05      	ldr	r4, [pc, #20]	; (1c94 <iocfg_pio0_9_set_resistor_pull_down+0x18>)
    1c80:	2118      	movs	r1, #24
    1c82:	4620      	mov	r0, r4
    1c84:	f7ff f916 	bl	eb4 <set_all_bits_zero>
    1c88:	4620      	mov	r0, r4
    1c8a:	2108      	movs	r1, #8
    1c8c:	e8bd 4010 	ldmia.w	sp!, {r4, lr}
    1c90:	f7ff b915 	b.w	ebe <set_all_bits_one>
    1c94:	40044064 	.word	0x40044064

00001c98 <iocfg_pio0_9_set_resistor_pull_up>:
    1c98:	b510      	push	{r4, lr}
    1c9a:	4c05      	ldr	r4, [pc, #20]	; (1cb0 <iocfg_pio0_9_set_resistor_pull_up+0x18>)
    1c9c:	2118      	movs	r1, #24
    1c9e:	4620      	mov	r0, r4
    1ca0:	f7ff f908 	bl	eb4 <set_all_bits_zero>
    1ca4:	4620      	mov	r0, r4
    1ca6:	2110      	movs	r1, #16
    1ca8:	e8bd 4010 	ldmia.w	sp!, {r4, lr}
    1cac:	f7ff b907 	b.w	ebe <set_all_bits_one>
    1cb0:	40044064 	.word	0x40044064

00001cb4 <iocfg_pio0_9_set_resistor_repeater>:
    1cb4:	4801      	ldr	r0, [pc, #4]	; (1cbc <iocfg_pio0_9_set_resistor_repeater+0x8>)
    1cb6:	2118      	movs	r1, #24
    1cb8:	f7ff b901 	b.w	ebe <set_all_bits_one>
    1cbc:	40044064 	.word	0x40044064

00001cc0 <iocfg_pio0_9_set_hysteresis_disable>:
    1cc0:	4801      	ldr	r0, [pc, #4]	; (1cc8 <iocfg_pio0_9_set_hysteresis_disable+0x8>)
    1cc2:	2120      	movs	r1, #32
    1cc4:	f7ff b8f6 	b.w	eb4 <set_all_bits_zero>
    1cc8:	40044064 	.word	0x40044064

00001ccc <iocfg_pio0_9_set_hysteresis_enable>:
    1ccc:	4801      	ldr	r0, [pc, #4]	; (1cd4 <iocfg_pio0_9_set_hysteresis_enable+0x8>)
    1cce:	2120      	movs	r1, #32
    1cd0:	f7ff b8f5 	b.w	ebe <set_all_bits_one>
    1cd4:	40044064 	.word	0x40044064

00001cd8 <iocfg_pio0_10_set_func_swclk>:
    1cd8:	4801      	ldr	r0, [pc, #4]	; (1ce0 <iocfg_pio0_10_set_func_swclk+0x8>)
    1cda:	2107      	movs	r1, #7
    1cdc:	f7ff b8ea 	b.w	eb4 <set_all_bits_zero>
    1ce0:	40044068 	.word	0x40044068

00001ce4 <iocfg_pio0_10_set_func_gpio>:
    1ce4:	b510      	push	{r4, lr}
    1ce6:	4c05      	ldr	r4, [pc, #20]	; (1cfc <iocfg_pio0_10_set_func_gpio+0x18>)
    1ce8:	2107      	movs	r1, #7
    1cea:	4620      	mov	r0, r4
    1cec:	f7ff f8e2 	bl	eb4 <set_all_bits_zero>
    1cf0:	4620      	mov	r0, r4
    1cf2:	2101      	movs	r1, #1
    1cf4:	e8bd 4010 	ldmia.w	sp!, {r4, lr}
    1cf8:	f7ff b8e1 	b.w	ebe <set_all_bits_one>
    1cfc:	40044068 	.word	0x40044068

00001d00 <iocfg_pio0_10_set_func_sck>:
    1d00:	b510      	push	{r4, lr}
    1d02:	4c07      	ldr	r4, [pc, #28]	; (1d20 <iocfg_pio0_10_set_func_sck+0x20>)
    1d04:	2107      	movs	r1, #7
    1d06:	4620      	mov	r0, r4
    1d08:	f7ff f8d4 	bl	eb4 <set_all_bits_zero>
    1d0c:	4620      	mov	r0, r4
    1d0e:	2102      	movs	r1, #2
    1d10:	f7ff f8d5 	bl	ebe <set_all_bits_one>
    1d14:	e8bd 4010 	ldmia.w	sp!, {r4, lr}
    1d18:	4802      	ldr	r0, [pc, #8]	; (1d24 <iocfg_pio0_10_set_func_sck+0x24>)
    1d1a:	2103      	movs	r1, #3
    1d1c:	f7ff b8ca 	b.w	eb4 <set_all_bits_zero>
    1d20:	40044068 	.word	0x40044068
    1d24:	400440b0 	.word	0x400440b0

00001d28 <iocfg_pio0_10_set_func_ct16b0_mat2>:
    1d28:	b510      	push	{r4, lr}
    1d2a:	4c05      	ldr	r4, [pc, #20]	; (1d40 <iocfg_pio0_10_set_func_ct16b0_mat2+0x18>)
    1d2c:	2107      	movs	r1, #7
    1d2e:	4620      	mov	r0, r4
    1d30:	f7ff f8c0 	bl	eb4 <set_all_bits_zero>
    1d34:	4620      	mov	r0, r4
    1d36:	2103      	movs	r1, #3
    1d38:	e8bd 4010 	ldmia.w	sp!, {r4, lr}
    1d3c:	f7ff b8bf 	b.w	ebe <set_all_bits_one>
    1d40:	40044068 	.word	0x40044068

00001d44 <iocfg_pio0_10_set_resistor_none>:
    1d44:	4801      	ldr	r0, [pc, #4]	; (1d4c <iocfg_pio0_10_set_resistor_none+0x8>)
    1d46:	2118      	movs	r1, #24
    1d48:	f7ff b8b4 	b.w	eb4 <set_all_bits_zero>
    1d4c:	40044068 	.word	0x40044068

00001d50 <iocfg_pio0_10_set_resistor_pull_down>:
    1d50:	b510      	push	{r4, lr}
    1d52:	4c05      	ldr	r4, [pc, #20]	; (1d68 <iocfg_pio0_10_set_resistor_pull_down+0x18>)
    1d54:	2118      	movs	r1, #24
    1d56:	4620      	mov	r0, r4
    1d58:	f7ff f8ac 	bl	eb4 <set_all_bits_zero>
    1d5c:	4620      	mov	r0, r4
    1d5e:	2108      	movs	r1, #8
    1d60:	e8bd 4010 	ldmia.w	sp!, {r4, lr}
    1d64:	f7ff b8ab 	b.w	ebe <set_all_bits_one>
    1d68:	40044068 	.word	0x40044068

00001d6c <iocfg_pio0_10_set_resistor_pull_up>:
    1d6c:	b510      	push	{r4, lr}
    1d6e:	4c05      	ldr	r4, [pc, #20]	; (1d84 <iocfg_pio0_10_set_resistor_pull_up+0x18>)
    1d70:	2118      	movs	r1, #24
    1d72:	4620      	mov	r0, r4
    1d74:	f7ff f89e 	bl	eb4 <set_all_bits_zero>
    1d78:	4620      	mov	r0, r4
    1d7a:	2110      	movs	r1, #16
    1d7c:	e8bd 4010 	ldmia.w	sp!, {r4, lr}
    1d80:	f7ff b89d 	b.w	ebe <set_all_bits_one>
    1d84:	40044068 	.word	0x40044068

00001d88 <iocfg_pio0_10_set_resistor_repeater>:
    1d88:	4801      	ldr	r0, [pc, #4]	; (1d90 <iocfg_pio0_10_set_resistor_repeater+0x8>)
    1d8a:	2118      	movs	r1, #24
    1d8c:	f7ff b897 	b.w	ebe <set_all_bits_one>
    1d90:	40044068 	.word	0x40044068

00001d94 <iocfg_pio0_10_set_hysteresis_disable>:
    1d94:	4801      	ldr	r0, [pc, #4]	; (1d9c <iocfg_pio0_10_set_hysteresis_disable+0x8>)
    1d96:	2120      	movs	r1, #32
    1d98:	f7ff b88c 	b.w	eb4 <set_all_bits_zero>
    1d9c:	40044068 	.word	0x40044068

00001da0 <iocfg_pio0_10_set_hysteresis_enable>:
    1da0:	4801      	ldr	r0, [pc, #4]	; (1da8 <iocfg_pio0_10_set_hysteresis_enable+0x8>)
    1da2:	2120      	movs	r1, #32
    1da4:	f7ff b88b 	b.w	ebe <set_all_bits_one>
    1da8:	40044068 	.word	0x40044068

00001dac <iocfg_pio1_10_set_func_gpio>:
    1dac:	b510      	push	{r4, lr}
    1dae:	4c05      	ldr	r4, [pc, #20]	; (1dc4 <iocfg_pio1_10_set_func_gpio+0x18>)
    1db0:	2180      	movs	r1, #128	; 0x80
    1db2:	4620      	mov	r0, r4
    1db4:	f7ff f883 	bl	ebe <set_all_bits_one>
    1db8:	4620      	mov	r0, r4
    1dba:	2107      	movs	r1, #7
    1dbc:	e8bd 4010 	ldmia.w	sp!, {r4, lr}
    1dc0:	f7ff b878 	b.w	eb4 <set_all_bits_zero>
    1dc4:	4004406c 	.word	0x4004406c

00001dc8 <iocfg_pio1_10_set_func_ad6>:
    1dc8:	b510      	push	{r4, lr}
    1dca:	4c07      	ldr	r4, [pc, #28]	; (1de8 <iocfg_pio1_10_set_func_ad6+0x20>)
    1dcc:	2180      	movs	r1, #128	; 0x80
    1dce:	4620      	mov	r0, r4
    1dd0:	f7ff f870 	bl	eb4 <set_all_bits_zero>
    1dd4:	4620      	mov	r0, r4
    1dd6:	2107      	movs	r1, #7
    1dd8:	f7ff f86c 	bl	eb4 <set_all_bits_zero>
    1ddc:	4620      	mov	r0, r4
    1dde:	2101      	movs	r1, #1
    1de0:	e8bd 4010 	ldmia.w	sp!, {r4, lr}
    1de4:	f7ff b86b 	b.w	ebe <set_all_bits_one>
    1de8:	4004406c 	.word	0x4004406c

00001dec <iocfg_pio1_10_set_func_ct16b1_mat1>:
    1dec:	b510      	push	{r4, lr}
    1dee:	4c07      	ldr	r4, [pc, #28]	; (1e0c <iocfg_pio1_10_set_func_ct16b1_mat1+0x20>)
    1df0:	2180      	movs	r1, #128	; 0x80
    1df2:	4620      	mov	r0, r4
    1df4:	f7ff f863 	bl	ebe <set_all_bits_one>
    1df8:	4620      	mov	r0, r4
    1dfa:	2107      	movs	r1, #7
    1dfc:	f7ff f85a 	bl	eb4 <set_all_bits_zero>
    1e00:	4620      	mov	r0, r4
    1e02:	2102      	movs	r1, #2
    1e04:	e8bd 4010 	ldmia.w	sp!, {r4, lr}
    1e08:	f7ff b859 	b.w	ebe <set_all_bits_one>
    1e0c:	4004406c 	.word	0x4004406c

00001e10 <iocfg_pio1_10_set_resistor_none>:
    1e10:	4801      	ldr	r0, [pc, #4]	; (1e18 <iocfg_pio1_10_set_resistor_none+0x8>)
    1e12:	2118      	movs	r1, #24
    1e14:	f7ff b84e 	b.w	eb4 <set_all_bits_zero>
    1e18:	4004406c 	.word	0x4004406c

00001e1c <iocfg_pio1_10_set_resistor_pull_down>:
    1e1c:	b510      	push	{r4, lr}
    1e1e:	4c05      	ldr	r4, [pc, #20]	; (1e34 <iocfg_pio1_10_set_resistor_pull_down+0x18>)
    1e20:	2118      	movs	r1, #24
    1e22:	4620      	mov	r0, r4
    1e24:	f7ff f846 	bl	eb4 <set_all_bits_zero>
    1e28:	4620      	mov	r0, r4
    1e2a:	2108      	movs	r1, #8
    1e2c:	e8bd 4010 	ldmia.w	sp!, {r4, lr}
    1e30:	f7ff b845 	b.w	ebe <set_all_bits_one>
    1e34:	4004406c 	.word	0x4004406c

00001e38 <iocfg_pio1_10_set_resistor_pull_up>:
    1e38:	b510      	push	{r4, lr}
    1e3a:	4c05      	ldr	r4, [pc, #20]	; (1e50 <iocfg_pio1_10_set_resistor_pull_up+0x18>)
    1e3c:	2118      	movs	r1, #24
    1e3e:	4620      	mov	r0, r4
    1e40:	f7ff f838 	bl	eb4 <set_all_bits_zero>
    1e44:	4620      	mov	r0, r4
    1e46:	2110      	movs	r1, #16
    1e48:	e8bd 4010 	ldmia.w	sp!, {r4, lr}
    1e4c:	f7ff b837 	b.w	ebe <set_all_bits_one>
    1e50:	4004406c 	.word	0x4004406c

00001e54 <iocfg_pio1_10_set_resistor_repeater>:
    1e54:	4801      	ldr	r0, [pc, #4]	; (1e5c <iocfg_pio1_10_set_resistor_repeater+0x8>)
    1e56:	2118      	movs	r1, #24
    1e58:	f7ff b831 	b.w	ebe <set_all_bits_one>
    1e5c:	4004406c 	.word	0x4004406c

00001e60 <iocfg_pio1_10_set_hysteresis_disable>:
    1e60:	4801      	ldr	r0, [pc, #4]	; (1e68 <iocfg_pio1_10_set_hysteresis_disable+0x8>)
    1e62:	2120      	movs	r1, #32
    1e64:	f7ff b826 	b.w	eb4 <set_all_bits_zero>
    1e68:	4004406c 	.word	0x4004406c

00001e6c <iocfg_pio1_10_set_hysteresis_enable>:
    1e6c:	4801      	ldr	r0, [pc, #4]	; (1e74 <iocfg_pio1_10_set_hysteresis_enable+0x8>)
    1e6e:	2120      	movs	r1, #32
    1e70:	f7ff b825 	b.w	ebe <set_all_bits_one>
    1e74:	4004406c 	.word	0x4004406c

00001e78 <iocfg_pio2_11_set_func_gpio>:
    1e78:	4801      	ldr	r0, [pc, #4]	; (1e80 <iocfg_pio2_11_set_func_gpio+0x8>)
    1e7a:	2107      	movs	r1, #7
    1e7c:	f7ff b81a 	b.w	eb4 <set_all_bits_zero>
    1e80:	40044070 	.word	0x40044070

00001e84 <iocfg_pio2_11_set_func_sck>:
    1e84:	b510      	push	{r4, lr}
    1e86:	4c0a      	ldr	r4, [pc, #40]	; (1eb0 <iocfg_pio2_11_set_func_sck+0x2c>)
    1e88:	2107      	movs	r1, #7
    1e8a:	4620      	mov	r0, r4
    1e8c:	f7ff f812 	bl	eb4 <set_all_bits_zero>
    1e90:	4620      	mov	r0, r4
    1e92:	2101      	movs	r1, #1
    1e94:	3440      	adds	r4, #64	; 0x40
    1e96:	f7ff f812 	bl	ebe <set_all_bits_one>
    1e9a:	4620      	mov	r0, r4
    1e9c:	2103      	movs	r1, #3
    1e9e:	f7ff f809 	bl	eb4 <set_all_bits_zero>
    1ea2:	4620      	mov	r0, r4
    1ea4:	2101      	movs	r1, #1
    1ea6:	e8bd 4010 	ldmia.w	sp!, {r4, lr}
    1eaa:	f7ff b808 	b.w	ebe <set_all_bits_one>
    1eae:	bf00      	nop
    1eb0:	40044070 	.word	0x40044070

00001eb4 <iocfg_pio2_11_set_resistor_none>:
    1eb4:	4801      	ldr	r0, [pc, #4]	; (1ebc <iocfg_pio2_11_set_resistor_none+0x8>)
    1eb6:	2118      	movs	r1, #24
    1eb8:	f7fe bffc 	b.w	eb4 <set_all_bits_zero>
    1ebc:	40044070 	.word	0x40044070

00001ec0 <iocfg_pio2_11_set_resistor_pull_down>:
    1ec0:	b510      	push	{r4, lr}
    1ec2:	4c05      	ldr	r4, [pc, #20]	; (1ed8 <iocfg_pio2_11_set_resistor_pull_down+0x18>)
    1ec4:	2118      	movs	r1, #24
    1ec6:	4620      	mov	r0, r4
    1ec8:	f7fe fff4 	bl	eb4 <set_all_bits_zero>
    1ecc:	4620      	mov	r0, r4
    1ece:	2108      	movs	r1, #8
    1ed0:	e8bd 4010 	ldmia.w	sp!, {r4, lr}
    1ed4:	f7fe bff3 	b.w	ebe <set_all_bits_one>
    1ed8:	40044070 	.word	0x40044070

00001edc <iocfg_pio2_11_set_resistor_pull_up>:
    1edc:	b510      	push	{r4, lr}
    1ede:	4c05      	ldr	r4, [pc, #20]	; (1ef4 <iocfg_pio2_11_set_resistor_pull_up+0x18>)
    1ee0:	2118      	movs	r1, #24
    1ee2:	4620      	mov	r0, r4
    1ee4:	f7fe ffe6 	bl	eb4 <set_all_bits_zero>
    1ee8:	4620      	mov	r0, r4
    1eea:	2110      	movs	r1, #16
    1eec:	e8bd 4010 	ldmia.w	sp!, {r4, lr}
    1ef0:	f7fe bfe5 	b.w	ebe <set_all_bits_one>
    1ef4:	40044070 	.word	0x40044070

00001ef8 <iocfg_pio2_11_set_resistor_repeater>:
    1ef8:	4801      	ldr	r0, [pc, #4]	; (1f00 <iocfg_pio2_11_set_resistor_repeater+0x8>)
    1efa:	2118      	movs	r1, #24
    1efc:	f7fe bfdf 	b.w	ebe <set_all_bits_one>
    1f00:	40044070 	.word	0x40044070

00001f04 <iocfg_pio2_11_set_hysteresis_disable>:
    1f04:	4801      	ldr	r0, [pc, #4]	; (1f0c <iocfg_pio2_11_set_hysteresis_disable+0x8>)
    1f06:	2120      	movs	r1, #32
    1f08:	f7fe bfd4 	b.w	eb4 <set_all_bits_zero>
    1f0c:	40044070 	.word	0x40044070

00001f10 <iocfg_pio2_11_set_hysteresis_enable>:
    1f10:	4801      	ldr	r0, [pc, #4]	; (1f18 <iocfg_pio2_11_set_hysteresis_enable+0x8>)
    1f12:	2120      	movs	r1, #32
    1f14:	f7fe bfd3 	b.w	ebe <set_all_bits_one>
    1f18:	40044070 	.word	0x40044070

00001f1c <iocfg_pio0_11_set_func_r_jtag_tdi>:
    1f1c:	b510      	push	{r4, lr}
    1f1e:	4c05      	ldr	r4, [pc, #20]	; (1f34 <iocfg_pio0_11_set_func_r_jtag_tdi+0x18>)
    1f20:	2180      	movs	r1, #128	; 0x80
    1f22:	4620      	mov	r0, r4
    1f24:	f7fe ffcb 	bl	ebe <set_all_bits_one>
    1f28:	4620      	mov	r0, r4
    1f2a:	2107      	movs	r1, #7
    1f2c:	e8bd 4010 	ldmia.w	sp!, {r4, lr}
    1f30:	f7fe bfc0 	b.w	eb4 <set_all_bits_zero>
    1f34:	40044074 	.word	0x40044074

00001f38 <iocfg_pio0_11_set_func_gpio>:
    1f38:	b510      	push	{r4, lr}
    1f3a:	4c07      	ldr	r4, [pc, #28]	; (1f58 <iocfg_pio0_11_set_func_gpio+0x20>)
    1f3c:	2180      	movs	r1, #128	; 0x80
    1f3e:	4620      	mov	r0, r4
    1f40:	f7fe ffbd 	bl	ebe <set_all_bits_one>
    1f44:	4620      	mov	r0, r4
    1f46:	2107      	movs	r1, #7
    1f48:	f7fe ffb4 	bl	eb4 <set_all_bits_zero>
    1f4c:	4620      	mov	r0, r4
    1f4e:	2101      	movs	r1, #1
    1f50:	e8bd 4010 	ldmia.w	sp!, {r4, lr}
    1f54:	f7fe bfb3 	b.w	ebe <set_all_bits_one>
    1f58:	40044074 	.word	0x40044074

00001f5c <iocfg_pio0_11_set_func_ad0>:
    1f5c:	b510      	push	{r4, lr}
    1f5e:	4c07      	ldr	r4, [pc, #28]	; (1f7c <iocfg_pio0_11_set_func_ad0+0x20>)
    1f60:	2180      	movs	r1, #128	; 0x80
    1f62:	4620      	mov	r0, r4
    1f64:	f7fe ffa6 	bl	eb4 <set_all_bits_zero>
    1f68:	4620      	mov	r0, r4
    1f6a:	2107      	movs	r1, #7
    1f6c:	f7fe ffa2 	bl	eb4 <set_all_bits_zero>
    1f70:	4620      	mov	r0, r4
    1f72:	2102      	movs	r1, #2
    1f74:	e8bd 4010 	ldmia.w	sp!, {r4, lr}
    1f78:	f7fe bfa1 	b.w	ebe <set_all_bits_one>
    1f7c:	40044074 	.word	0x40044074

00001f80 <iocfg_pio0_11_set_func_ct32b0_mat3>:
    1f80:	b510      	push	{r4, lr}
    1f82:	4c07      	ldr	r4, [pc, #28]	; (1fa0 <iocfg_pio0_11_set_func_ct32b0_mat3+0x20>)
    1f84:	2180      	movs	r1, #128	; 0x80
    1f86:	4620      	mov	r0, r4
    1f88:	f7fe ff99 	bl	ebe <set_all_bits_one>
    1f8c:	4620      	mov	r0, r4
    1f8e:	2107      	movs	r1, #7
    1f90:	f7fe ff90 	bl	eb4 <set_all_bits_zero>
    1f94:	4620      	mov	r0, r4
    1f96:	2103      	movs	r1, #3
    1f98:	e8bd 4010 	ldmia.w	sp!, {r4, lr}
    1f9c:	f7fe bf8f 	b.w	ebe <set_all_bits_one>
    1fa0:	40044074 	.word	0x40044074

00001fa4 <iocfg_pio0_11_set_resistor_none>:
    1fa4:	4801      	ldr	r0, [pc, #4]	; (1fac <iocfg_pio0_11_set_resistor_none+0x8>)
    1fa6:	2118      	movs	r1, #24
    1fa8:	f7fe bf84 	b.w	eb4 <set_all_bits_zero>
    1fac:	40044074 	.word	0x40044074

00001fb0 <iocfg_pio0_11_set_resistor_pull_down>:
    1fb0:	b510      	push	{r4, lr}
    1fb2:	4c05      	ldr	r4, [pc, #20]	; (1fc8 <iocfg_pio0_11_set_resistor_pull_down+0x18>)
    1fb4:	2118      	movs	r1, #24
    1fb6:	4620      	mov	r0, r4
    1fb8:	f7fe ff7c 	bl	eb4 <set_all_bits_zero>
    1fbc:	4620      	mov	r0, r4
    1fbe:	2108      	movs	r1, #8
    1fc0:	e8bd 4010 	ldmia.w	sp!, {r4, lr}
    1fc4:	f7fe bf7b 	b.w	ebe <set_all_bits_one>
    1fc8:	40044074 	.word	0x40044074

00001fcc <iocfg_pio0_11_set_resistor_pull_up>:
    1fcc:	b510      	push	{r4, lr}
    1fce:	4c05      	ldr	r4, [pc, #20]	; (1fe4 <iocfg_pio0_11_set_resistor_pull_up+0x18>)
    1fd0:	2118      	movs	r1, #24
    1fd2:	4620      	mov	r0, r4
    1fd4:	f7fe ff6e 	bl	eb4 <set_all_bits_zero>
    1fd8:	4620      	mov	r0, r4
    1fda:	2110      	movs	r1, #16
    1fdc:	e8bd 4010 	ldmia.w	sp!, {r4, lr}
    1fe0:	f7fe bf6d 	b.w	ebe <set_all_bits_one>
    1fe4:	40044074 	.word	0x40044074

00001fe8 <iocfg_pio0_11_set_resistor_repeater>:
    1fe8:	4801      	ldr	r0, [pc, #4]	; (1ff0 <iocfg_pio0_11_set_resistor_repeater+0x8>)
    1fea:	2118      	movs	r1, #24
    1fec:	f7fe bf67 	b.w	ebe <set_all_bits_one>
    1ff0:	40044074 	.word	0x40044074

00001ff4 <iocfg_pio0_11_set_hysteresis_disable>:
    1ff4:	4801      	ldr	r0, [pc, #4]	; (1ffc <iocfg_pio0_11_set_hysteresis_disable+0x8>)
    1ff6:	2120      	movs	r1, #32
    1ff8:	f7fe bf5c 	b.w	eb4 <set_all_bits_zero>
    1ffc:	40044074 	.word	0x40044074

00002000 <iocfg_pio0_11_set_hysteresis_enable>:
    2000:	4801      	ldr	r0, [pc, #4]	; (2008 <_ram_size+0x8>)
    2002:	2120      	movs	r1, #32
    2004:	f7fe bf5b 	b.w	ebe <set_all_bits_one>
    2008:	40044074 	.word	0x40044074

0000200c <iocfg_pio1_0_set_func_r_jtag_tms>:
    200c:	b510      	push	{r4, lr}
    200e:	4c05      	ldr	r4, [pc, #20]	; (2024 <iocfg_pio1_0_set_func_r_jtag_tms+0x18>)
    2010:	2180      	movs	r1, #128	; 0x80
    2012:	4620      	mov	r0, r4
    2014:	f7fe ff53 	bl	ebe <set_all_bits_one>
    2018:	4620      	mov	r0, r4
    201a:	2107      	movs	r1, #7
    201c:	e8bd 4010 	ldmia.w	sp!, {r4, lr}
    2020:	f7fe bf48 	b.w	eb4 <set_all_bits_zero>
    2024:	40044078 	.word	0x40044078

00002028 <iocfg_pio1_0_set_func_gpio>:
    2028:	b510      	push	{r4, lr}
    202a:	4c07      	ldr	r4, [pc, #28]	; (2048 <iocfg_pio1_0_set_func_gpio+0x20>)
    202c:	2180      	movs	r1, #128	; 0x80
    202e:	4620      	mov	r0, r4
    2030:	f7fe ff45 	bl	ebe <set_all_bits_one>
    2034:	4620      	mov	r0, r4
    2036:	2107      	movs	r1, #7
    2038:	f7fe ff3c 	bl	eb4 <set_all_bits_zero>
    203c:	4620      	mov	r0, r4
    203e:	2101      	movs	r1, #1
    2040:	e8bd 4010 	ldmia.w	sp!, {r4, lr}
    2044:	f7fe bf3b 	b.w	ebe <set_all_bits_one>
    2048:	40044078 	.word	0x40044078

0000204c <iocfg_pio1_0_set_func_ad1>:
    204c:	b510      	push	{r4, lr}
    204e:	4c07      	ldr	r4, [pc, #28]	; (206c <iocfg_pio1_0_set_func_ad1+0x20>)
    2050:	2180      	movs	r1, #128	; 0x80
    2052:	4620      	mov	r0, r4
    2054:	f7fe ff2e 	bl	eb4 <set_all_bits_zero>
    2058:	4620      	mov	r0, r4
    205a:	2107      	movs	r1, #7
    205c:	f7fe ff2a 	bl	eb4 <set_all_bits_zero>
    2060:	4620      	mov	r0, r4
    2062:	2102      	movs	r1, #2
    2064:	e8bd 4010 	ldmia.w	sp!, {r4, lr}
    2068:	f7fe bf29 	b.w	ebe <set_all_bits_one>
    206c:	40044078 	.word	0x40044078

00002070 <iocfg_pio1_0_set_func_ct32b1_cap0>:
    2070:	b510      	push	{r4, lr}
    2072:	4c07      	ldr	r4, [pc, #28]	; (2090 <iocfg_pio1_0_set_func_ct32b1_cap0+0x20>)
    2074:	2180      	movs	r1, #128	; 0x80
    2076:	4620      	mov	r0, r4
    2078:	f7fe ff21 	bl	ebe <set_all_bits_one>
    207c:	4620      	mov	r0, r4
    207e:	2107      	movs	r1, #7
    2080:	f7fe ff18 	bl	eb4 <set_all_bits_zero>
    2084:	4620      	mov	r0, r4
    2086:	2103      	movs	r1, #3
    2088:	e8bd 4010 	ldmia.w	sp!, {r4, lr}
    208c:	f7fe bf17 	b.w	ebe <set_all_bits_one>
    2090:	40044078 	.word	0x40044078

00002094 <iocfg_pio1_0_set_resistor_none>:
    2094:	4801      	ldr	r0, [pc, #4]	; (209c <iocfg_pio1_0_set_resistor_none+0x8>)
    2096:	2118      	movs	r1, #24
    2098:	f7fe bf0c 	b.w	eb4 <set_all_bits_zero>
    209c:	40044078 	.word	0x40044078

000020a0 <iocfg_pio1_0_set_resistor_pull_down>:
    20a0:	b510      	push	{r4, lr}
    20a2:	4c05      	ldr	r4, [pc, #20]	; (20b8 <iocfg_pio1_0_set_resistor_pull_down+0x18>)
    20a4:	2118      	movs	r1, #24
    20a6:	4620      	mov	r0, r4
    20a8:	f7fe ff04 	bl	eb4 <set_all_bits_zero>
    20ac:	4620      	mov	r0, r4
    20ae:	2108      	movs	r1, #8
    20b0:	e8bd 4010 	ldmia.w	sp!, {r4, lr}
    20b4:	f7fe bf03 	b.w	ebe <set_all_bits_one>
    20b8:	40044078 	.word	0x40044078

000020bc <iocfg_pio1_0_set_resistor_pull_up>:
    20bc:	b510      	push	{r4, lr}
    20be:	4c05      	ldr	r4, [pc, #20]	; (20d4 <iocfg_pio1_0_set_resistor_pull_up+0x18>)
    20c0:	2118      	movs	r1, #24
    20c2:	4620      	mov	r0, r4
    20c4:	f7fe fef6 	bl	eb4 <set_all_bits_zero>
    20c8:	4620      	mov	r0, r4
    20ca:	2110      	movs	r1, #16
    20cc:	e8bd 4010 	ldmia.w	sp!, {r4, lr}
    20d0:	f7fe bef5 	b.w	ebe <set_all_bits_one>
    20d4:	40044078 	.word	0x40044078

000020d8 <iocfg_pio1_0_set_resistor_repeater>:
    20d8:	4801      	ldr	r0, [pc, #4]	; (20e0 <iocfg_pio1_0_set_resistor_repeater+0x8>)
    20da:	2118      	movs	r1, #24
    20dc:	f7fe beef 	b.w	ebe <set_all_bits_one>
    20e0:	40044078 	.word	0x40044078

000020e4 <iocfg_pio1_0_set_hysteresis_disable>:
    20e4:	4801      	ldr	r0, [pc, #4]	; (20ec <iocfg_pio1_0_set_hysteresis_disable+0x8>)
    20e6:	2120      	movs	r1, #32
    20e8:	f7fe bee4 	b.w	eb4 <set_all_bits_zero>
    20ec:	40044078 	.word	0x40044078

000020f0 <iocfg_pio1_0_set_hysteresis_enable>:
    20f0:	4801      	ldr	r0, [pc, #4]	; (20f8 <iocfg_pio1_0_set_hysteresis_enable+0x8>)
    20f2:	2120      	movs	r1, #32
    20f4:	f7fe bee3 	b.w	ebe <set_all_bits_one>
    20f8:	40044078 	.word	0x40044078

000020fc <iocfg_pio1_1_set_func_r_jtag_tdo>:
    20fc:	b510      	push	{r4, lr}
    20fe:	4c05      	ldr	r4, [pc, #20]	; (2114 <iocfg_pio1_1_set_func_r_jtag_tdo+0x18>)
    2100:	2180      	movs	r1, #128	; 0x80
    2102:	4620      	mov	r0, r4
    2104:	f7fe fedb 	bl	ebe <set_all_bits_one>
    2108:	4620      	mov	r0, r4
    210a:	2107      	movs	r1, #7
    210c:	e8bd 4010 	ldmia.w	sp!, {r4, lr}
    2110:	f7fe bed0 	b.w	eb4 <set_all_bits_zero>
    2114:	4004407c 	.word	0x4004407c

00002118 <iocfg_pio1_1_set_func_gpio>:
    2118:	b510      	push	{r4, lr}
    211a:	4c07      	ldr	r4, [pc, #28]	; (2138 <iocfg_pio1_1_set_func_gpio+0x20>)
    211c:	2180      	movs	r1, #128	; 0x80
    211e:	4620      	mov	r0, r4
    2120:	f7fe fecd 	bl	ebe <set_all_bits_one>
    2124:	4620      	mov	r0, r4
    2126:	2107      	movs	r1, #7
    2128:	f7fe fec4 	bl	eb4 <set_all_bits_zero>
    212c:	4620      	mov	r0, r4
    212e:	2101      	movs	r1, #1
    2130:	e8bd 4010 	ldmia.w	sp!, {r4, lr}
    2134:	f7fe bec3 	b.w	ebe <set_all_bits_one>
    2138:	4004407c 	.word	0x4004407c

0000213c <iocfg_pio1_1_set_func_ad2>:
    213c:	b510      	push	{r4, lr}
    213e:	4c07      	ldr	r4, [pc, #28]	; (215c <iocfg_pio1_1_set_func_ad2+0x20>)
    2140:	2180      	movs	r1, #128	; 0x80
    2142:	4620      	mov	r0, r4
    2144:	f7fe feb6 	bl	eb4 <set_all_bits_zero>
    2148:	4620      	mov	r0, r4
    214a:	2107      	movs	r1, #7
    214c:	f7fe feb2 	bl	eb4 <set_all_bits_zero>
    2150:	4620      	mov	r0, r4
    2152:	2102      	movs	r1, #2
    2154:	e8bd 4010 	ldmia.w	sp!, {r4, lr}
    2158:	f7fe beb1 	b.w	ebe <set_all_bits_one>
    215c:	4004407c 	.word	0x4004407c

00002160 <iocfg_pio1_1_set_func_ct32b1_mat0>:
    2160:	b510      	push	{r4, lr}
    2162:	4c07      	ldr	r4, [pc, #28]	; (2180 <iocfg_pio1_1_set_func_ct32b1_mat0+0x20>)
    2164:	2180      	movs	r1, #128	; 0x80
    2166:	4620      	mov	r0, r4
    2168:	f7fe fea9 	bl	ebe <set_all_bits_one>
    216c:	4620      	mov	r0, r4
    216e:	2107      	movs	r1, #7
    2170:	f7fe fea0 	bl	eb4 <set_all_bits_zero>
    2174:	4620      	mov	r0, r4
    2176:	2103      	movs	r1, #3
    2178:	e8bd 4010 	ldmia.w	sp!, {r4, lr}
    217c:	f7fe be9f 	b.w	ebe <set_all_bits_one>
    2180:	4004407c 	.word	0x4004407c

00002184 <iocfg_pio1_1_set_resistor_none>:
    2184:	4801      	ldr	r0, [pc, #4]	; (218c <iocfg_pio1_1_set_resistor_none+0x8>)
    2186:	2118      	movs	r1, #24
    2188:	f7fe be94 	b.w	eb4 <set_all_bits_zero>
    218c:	4004407c 	.word	0x4004407c

00002190 <iocfg_pio1_1_set_resistor_pull_down>:
    2190:	b510      	push	{r4, lr}
    2192:	4c05      	ldr	r4, [pc, #20]	; (21a8 <iocfg_pio1_1_set_resistor_pull_down+0x18>)
    2194:	2118      	movs	r1, #24
    2196:	4620      	mov	r0, r4
    2198:	f7fe fe8c 	bl	eb4 <set_all_bits_zero>
    219c:	4620      	mov	r0, r4
    219e:	2108      	movs	r1, #8
    21a0:	e8bd 4010 	ldmia.w	sp!, {r4, lr}
    21a4:	f7fe be8b 	b.w	ebe <set_all_bits_one>
    21a8:	4004407c 	.word	0x4004407c

000021ac <iocfg_pio1_1_set_resistor_pull_up>:
    21ac:	b510      	push	{r4, lr}
    21ae:	4c05      	ldr	r4, [pc, #20]	; (21c4 <iocfg_pio1_1_set_resistor_pull_up+0x18>)
    21b0:	2118      	movs	r1, #24
    21b2:	4620      	mov	r0, r4
    21b4:	f7fe fe7e 	bl	eb4 <set_all_bits_zero>
    21b8:	4620      	mov	r0, r4
    21ba:	2110      	movs	r1, #16
    21bc:	e8bd 4010 	ldmia.w	sp!, {r4, lr}
    21c0:	f7fe be7d 	b.w	ebe <set_all_bits_one>
    21c4:	4004407c 	.word	0x4004407c

000021c8 <iocfg_pio1_1_set_resistor_repeater>:
    21c8:	4801      	ldr	r0, [pc, #4]	; (21d0 <iocfg_pio1_1_set_resistor_repeater+0x8>)
    21ca:	2118      	movs	r1, #24
    21cc:	f7fe be77 	b.w	ebe <set_all_bits_one>
    21d0:	4004407c 	.word	0x4004407c

000021d4 <iocfg_pio1_1_set_hysteresis_disable>:
    21d4:	4801      	ldr	r0, [pc, #4]	; (21dc <iocfg_pio1_1_set_hysteresis_disable+0x8>)
    21d6:	2120      	movs	r1, #32
    21d8:	f7fe be6c 	b.w	eb4 <set_all_bits_zero>
    21dc:	4004407c 	.word	0x4004407c

000021e0 <iocfg_pio1_1_set_hysteresis_enable>:
    21e0:	4801      	ldr	r0, [pc, #4]	; (21e8 <iocfg_pio1_1_set_hysteresis_enable+0x8>)
    21e2:	2120      	movs	r1, #32
    21e4:	f7fe be6b 	b.w	ebe <set_all_bits_one>
    21e8:	4004407c 	.word	0x4004407c

000021ec <iocfg_pio1_2_set_func_r_jtag_ntrst>:
    21ec:	b510      	push	{r4, lr}
    21ee:	4c05      	ldr	r4, [pc, #20]	; (2204 <iocfg_pio1_2_set_func_r_jtag_ntrst+0x18>)
    21f0:	2180      	movs	r1, #128	; 0x80
    21f2:	4620      	mov	r0, r4
    21f4:	f7fe fe63 	bl	ebe <set_all_bits_one>
    21f8:	4620      	mov	r0, r4
    21fa:	2107      	movs	r1, #7
    21fc:	e8bd 4010 	ldmia.w	sp!, {r4, lr}
    2200:	f7fe be58 	b.w	eb4 <set_all_bits_zero>
    2204:	40044080 	.word	0x40044080

00002208 <iocfg_pio1_2_set_func_gpio>:
    2208:	b510      	push	{r4, lr}
    220a:	4c07      	ldr	r4, [pc, #28]	; (2228 <iocfg_pio1_2_set_func_gpio+0x20>)
    220c:	2180      	movs	r1, #128	; 0x80
    220e:	4620      	mov	r0, r4
    2210:	f7fe fe55 	bl	ebe <set_all_bits_one>
    2214:	4620      	mov	r0, r4
    2216:	2107      	movs	r1, #7
    2218:	f7fe fe4c 	bl	eb4 <set_all_bits_zero>
    221c:	4620      	mov	r0, r4
    221e:	2101      	movs	r1, #1
    2220:	e8bd 4010 	ldmia.w	sp!, {r4, lr}
    2224:	f7fe be4b 	b.w	ebe <set_all_bits_one>
    2228:	40044080 	.word	0x40044080

0000222c <iocfg_pio1_2_set_func_ad3>:
    222c:	b510      	push	{r4, lr}
    222e:	4c07      	ldr	r4, [pc, #28]	; (224c <iocfg_pio1_2_set_func_ad3+0x20>)
    2230:	2180      	movs	r1, #128	; 0x80
    2232:	4620      	mov	r0, r4
    2234:	f7fe fe3e 	bl	eb4 <set_all_bits_zero>
    2238:	4620      	mov	r0, r4
    223a:	2107      	movs	r1, #7
    223c:	f7fe fe3a 	bl	eb4 <set_all_bits_zero>
    2240:	4620      	mov	r0, r4
    2242:	2102      	movs	r1, #2
    2244:	e8bd 4010 	ldmia.w	sp!, {r4, lr}
    2248:	f7fe be39 	b.w	ebe <set_all_bits_one>
    224c:	40044080 	.word	0x40044080

00002250 <iocfg_pio1_2_set_func_ct32b1_mat1>:
    2250:	b510      	push	{r4, lr}
    2252:	4c07      	ldr	r4, [pc, #28]	; (2270 <iocfg_pio1_2_set_func_ct32b1_mat1+0x20>)
    2254:	2180      	movs	r1, #128	; 0x80
    2256:	4620      	mov	r0, r4
    2258:	f7fe fe31 	bl	ebe <set_all_bits_one>
    225c:	4620      	mov	r0, r4
    225e:	2107      	movs	r1, #7
    2260:	f7fe fe28 	bl	eb4 <set_all_bits_zero>
    2264:	4620      	mov	r0, r4
    2266:	2103      	movs	r1, #3
    2268:	e8bd 4010 	ldmia.w	sp!, {r4, lr}
    226c:	f7fe be27 	b.w	ebe <set_all_bits_one>
    2270:	40044080 	.word	0x40044080

00002274 <iocfg_pio1_2_set_resistor_none>:
    2274:	4801      	ldr	r0, [pc, #4]	; (227c <iocfg_pio1_2_set_resistor_none+0x8>)
    2276:	2118      	movs	r1, #24
    2278:	f7fe be1c 	b.w	eb4 <set_all_bits_zero>
    227c:	40044080 	.word	0x40044080

00002280 <iocfg_pio1_2_set_resistor_pull_down>:
    2280:	b510      	push	{r4, lr}
    2282:	4c05      	ldr	r4, [pc, #20]	; (2298 <iocfg_pio1_2_set_resistor_pull_down+0x18>)
    2284:	2118      	movs	r1, #24
    2286:	4620      	mov	r0, r4
    2288:	f7fe fe14 	bl	eb4 <set_all_bits_zero>
    228c:	4620      	mov	r0, r4
    228e:	2108      	movs	r1, #8
    2290:	e8bd 4010 	ldmia.w	sp!, {r4, lr}
    2294:	f7fe be13 	b.w	ebe <set_all_bits_one>
    2298:	40044080 	.word	0x40044080

0000229c <iocfg_pio1_2_set_resistor_pull_up>:
    229c:	b510      	push	{r4, lr}
    229e:	4c05      	ldr	r4, [pc, #20]	; (22b4 <iocfg_pio1_2_set_resistor_pull_up+0x18>)
    22a0:	2118      	movs	r1, #24
    22a2:	4620      	mov	r0, r4
    22a4:	f7fe fe06 	bl	eb4 <set_all_bits_zero>
    22a8:	4620      	mov	r0, r4
    22aa:	2110      	movs	r1, #16
    22ac:	e8bd 4010 	ldmia.w	sp!, {r4, lr}
    22b0:	f7fe be05 	b.w	ebe <set_all_bits_one>
    22b4:	40044080 	.word	0x40044080

000022b8 <iocfg_pio1_2_set_resistor_repeater>:
    22b8:	4801      	ldr	r0, [pc, #4]	; (22c0 <iocfg_pio1_2_set_resistor_repeater+0x8>)
    22ba:	2118      	movs	r1, #24
    22bc:	f7fe bdff 	b.w	ebe <set_all_bits_one>
    22c0:	40044080 	.word	0x40044080

000022c4 <iocfg_pio1_2_set_hysteresis_disable>:
    22c4:	4801      	ldr	r0, [pc, #4]	; (22cc <iocfg_pio1_2_set_hysteresis_disable+0x8>)
    22c6:	2120      	movs	r1, #32
    22c8:	f7fe bdf4 	b.w	eb4 <set_all_bits_zero>
    22cc:	40044080 	.word	0x40044080

000022d0 <iocfg_pio1_2_set_hysteresis_enable>:
    22d0:	4801      	ldr	r0, [pc, #4]	; (22d8 <iocfg_pio1_2_set_hysteresis_enable+0x8>)
    22d2:	2120      	movs	r1, #32
    22d4:	f7fe bdf3 	b.w	ebe <set_all_bits_one>
    22d8:	40044080 	.word	0x40044080

000022dc <iocfg_pio3_0_set_func_gpio>:
    22dc:	4801      	ldr	r0, [pc, #4]	; (22e4 <iocfg_pio3_0_set_func_gpio+0x8>)
    22de:	2107      	movs	r1, #7
    22e0:	f7fe bde8 	b.w	eb4 <set_all_bits_zero>
    22e4:	40044084 	.word	0x40044084

000022e8 <iocfg_pio3_0_set_resistor_none>:
    22e8:	4801      	ldr	r0, [pc, #4]	; (22f0 <iocfg_pio3_0_set_resistor_none+0x8>)
    22ea:	2118      	movs	r1, #24
    22ec:	f7fe bde2 	b.w	eb4 <set_all_bits_zero>
    22f0:	40044084 	.word	0x40044084

000022f4 <iocfg_pio3_0_set_resistor_pull_down>:
    22f4:	b510      	push	{r4, lr}
    22f6:	4c05      	ldr	r4, [pc, #20]	; (230c <iocfg_pio3_0_set_resistor_pull_down+0x18>)
    22f8:	2118      	movs	r1, #24
    22fa:	4620      	mov	r0, r4
    22fc:	f7fe fdda 	bl	eb4 <set_all_bits_zero>
    2300:	4620      	mov	r0, r4
    2302:	2108      	movs	r1, #8
    2304:	e8bd 4010 	ldmia.w	sp!, {r4, lr}
    2308:	f7fe bdd9 	b.w	ebe <set_all_bits_one>
    230c:	40044084 	.word	0x40044084

00002310 <iocfg_pio3_0_set_resistor_pull_up>:
    2310:	b510      	push	{r4, lr}
    2312:	4c05      	ldr	r4, [pc, #20]	; (2328 <iocfg_pio3_0_set_resistor_pull_up+0x18>)
    2314:	2118      	movs	r1, #24
    2316:	4620      	mov	r0, r4
    2318:	f7fe fdcc 	bl	eb4 <set_all_bits_zero>
    231c:	4620      	mov	r0, r4
    231e:	2110      	movs	r1, #16
    2320:	e8bd 4010 	ldmia.w	sp!, {r4, lr}
    2324:	f7fe bdcb 	b.w	ebe <set_all_bits_one>
    2328:	40044084 	.word	0x40044084

0000232c <iocfg_pio3_0_set_resistor_repeater>:
    232c:	4801      	ldr	r0, [pc, #4]	; (2334 <iocfg_pio3_0_set_resistor_repeater+0x8>)
    232e:	2118      	movs	r1, #24
    2330:	f7fe bdc5 	b.w	ebe <set_all_bits_one>
    2334:	40044084 	.word	0x40044084

00002338 <iocfg_pio3_0_set_hysteresis_disable>:
    2338:	4801      	ldr	r0, [pc, #4]	; (2340 <iocfg_pio3_0_set_hysteresis_disable+0x8>)
    233a:	2120      	movs	r1, #32
    233c:	f7fe bdba 	b.w	eb4 <set_all_bits_zero>
    2340:	40044084 	.word	0x40044084

00002344 <iocfg_pio3_0_set_hysteresis_enable>:
    2344:	4801      	ldr	r0, [pc, #4]	; (234c <iocfg_pio3_0_set_hysteresis_enable+0x8>)
    2346:	2120      	movs	r1, #32
    2348:	f7fe bdb9 	b.w	ebe <set_all_bits_one>
    234c:	40044084 	.word	0x40044084

00002350 <iocfg_pio3_1_set_func_gpio>:
    2350:	4801      	ldr	r0, [pc, #4]	; (2358 <iocfg_pio3_1_set_func_gpio+0x8>)
    2352:	2107      	movs	r1, #7
    2354:	f7fe bdae 	b.w	eb4 <set_all_bits_zero>
    2358:	40044088 	.word	0x40044088

0000235c <iocfg_pio3_1_set_resistor_none>:
    235c:	4801      	ldr	r0, [pc, #4]	; (2364 <iocfg_pio3_1_set_resistor_none+0x8>)
    235e:	2118      	movs	r1, #24
    2360:	f7fe bda8 	b.w	eb4 <set_all_bits_zero>
    2364:	40044088 	.word	0x40044088

00002368 <iocfg_pio3_1_set_resistor_pull_down>:
    2368:	b510      	push	{r4, lr}
    236a:	4c05      	ldr	r4, [pc, #20]	; (2380 <iocfg_pio3_1_set_resistor_pull_down+0x18>)
    236c:	2118      	movs	r1, #24
    236e:	4620      	mov	r0, r4
    2370:	f7fe fda0 	bl	eb4 <set_all_bits_zero>
    2374:	4620      	mov	r0, r4
    2376:	2108      	movs	r1, #8
    2378:	e8bd 4010 	ldmia.w	sp!, {r4, lr}
    237c:	f7fe bd9f 	b.w	ebe <set_all_bits_one>
    2380:	40044088 	.word	0x40044088

00002384 <iocfg_pio3_1_set_resistor_pull_up>:
    2384:	b510      	push	{r4, lr}
    2386:	4c05      	ldr	r4, [pc, #20]	; (239c <iocfg_pio3_1_set_resistor_pull_up+0x18>)
    2388:	2118      	movs	r1, #24
    238a:	4620      	mov	r0, r4
    238c:	f7fe fd92 	bl	eb4 <set_all_bits_zero>
    2390:	4620      	mov	r0, r4
    2392:	2110      	movs	r1, #16
    2394:	e8bd 4010 	ldmia.w	sp!, {r4, lr}
    2398:	f7fe bd91 	b.w	ebe <set_all_bits_one>
    239c:	40044088 	.word	0x40044088

000023a0 <iocfg_pio3_1_set_resistor_repeater>:
    23a0:	4801      	ldr	r0, [pc, #4]	; (23a8 <iocfg_pio3_1_set_resistor_repeater+0x8>)
    23a2:	2118      	movs	r1, #24
    23a4:	f7fe bd8b 	b.w	ebe <set_all_bits_one>
    23a8:	40044088 	.word	0x40044088

000023ac <iocfg_pio3_1_set_hysteresis_disable>:
    23ac:	4801      	ldr	r0, [pc, #4]	; (23b4 <iocfg_pio3_1_set_hysteresis_disable+0x8>)
    23ae:	2120      	movs	r1, #32
    23b0:	f7fe bd80 	b.w	eb4 <set_all_bits_zero>
    23b4:	40044088 	.word	0x40044088

000023b8 <iocfg_pio3_1_set_hysteresis_enable>:
    23b8:	4801      	ldr	r0, [pc, #4]	; (23c0 <iocfg_pio3_1_set_hysteresis_enable+0x8>)
    23ba:	2120      	movs	r1, #32
    23bc:	f7fe bd7f 	b.w	ebe <set_all_bits_one>
    23c0:	40044088 	.word	0x40044088

000023c4 <iocfg_pio2_3_set_func_gpio>:
    23c4:	4801      	ldr	r0, [pc, #4]	; (23cc <iocfg_pio2_3_set_func_gpio+0x8>)
    23c6:	2107      	movs	r1, #7
    23c8:	f7fe bd74 	b.w	eb4 <set_all_bits_zero>
    23cc:	4004408c 	.word	0x4004408c

000023d0 <iocfg_pio2_3_set_func_ri>:
    23d0:	b510      	push	{r4, lr}
    23d2:	4c05      	ldr	r4, [pc, #20]	; (23e8 <iocfg_pio2_3_set_func_ri+0x18>)
    23d4:	2107      	movs	r1, #7
    23d6:	4620      	mov	r0, r4
    23d8:	f7fe fd6c 	bl	eb4 <set_all_bits_zero>
    23dc:	4620      	mov	r0, r4
    23de:	2101      	movs	r1, #1
    23e0:	e8bd 4010 	ldmia.w	sp!, {r4, lr}
    23e4:	f7fe bd6b 	b.w	ebe <set_all_bits_one>
    23e8:	4004408c 	.word	0x4004408c

000023ec <iocfg_pio2_3_set_resistor_none>:
    23ec:	4801      	ldr	r0, [pc, #4]	; (23f4 <iocfg_pio2_3_set_resistor_none+0x8>)
    23ee:	2118      	movs	r1, #24
    23f0:	f7fe bd60 	b.w	eb4 <set_all_bits_zero>
    23f4:	4004408c 	.word	0x4004408c

000023f8 <iocfg_pio2_3_set_resistor_pull_down>:
    23f8:	b510      	push	{r4, lr}
    23fa:	4c05      	ldr	r4, [pc, #20]	; (2410 <iocfg_pio2_3_set_resistor_pull_down+0x18>)
    23fc:	2118      	movs	r1, #24
    23fe:	4620      	mov	r0, r4
    2400:	f7fe fd58 	bl	eb4 <set_all_bits_zero>
    2404:	4620      	mov	r0, r4
    2406:	2108      	movs	r1, #8
    2408:	e8bd 4010 	ldmia.w	sp!, {r4, lr}
    240c:	f7fe bd57 	b.w	ebe <set_all_bits_one>
    2410:	4004408c 	.word	0x4004408c

00002414 <iocfg_pio2_3_set_resistor_pull_up>:
    2414:	b510      	push	{r4, lr}
    2416:	4c05      	ldr	r4, [pc, #20]	; (242c <iocfg_pio2_3_set_resistor_pull_up+0x18>)
    2418:	2118      	movs	r1, #24
    241a:	4620      	mov	r0, r4
    241c:	f7fe fd4a 	bl	eb4 <set_all_bits_zero>
    2420:	4620      	mov	r0, r4
    2422:	2110      	movs	r1, #16
    2424:	e8bd 4010 	ldmia.w	sp!, {r4, lr}
    2428:	f7fe bd49 	b.w	ebe <set_all_bits_one>
    242c:	4004408c 	.word	0x4004408c

00002430 <iocfg_pio2_3_set_resistor_repeater>:
    2430:	4801      	ldr	r0, [pc, #4]	; (2438 <iocfg_pio2_3_set_resistor_repeater+0x8>)
    2432:	2118      	movs	r1, #24
    2434:	f7fe bd43 	b.w	ebe <set_all_bits_one>
    2438:	4004408c 	.word	0x4004408c

0000243c <iocfg_pio2_3_set_hysteresis_disable>:
    243c:	4801      	ldr	r0, [pc, #4]	; (2444 <iocfg_pio2_3_set_hysteresis_disable+0x8>)
    243e:	2120      	movs	r1, #32
    2440:	f7fe bd38 	b.w	eb4 <set_all_bits_zero>
    2444:	4004408c 	.word	0x4004408c

00002448 <iocfg_pio2_3_set_hysteresis_enable>:
    2448:	4801      	ldr	r0, [pc, #4]	; (2450 <iocfg_pio2_3_set_hysteresis_enable+0x8>)
    244a:	2120      	movs	r1, #32
    244c:	f7fe bd37 	b.w	ebe <set_all_bits_one>
    2450:	4004408c 	.word	0x4004408c

00002454 <iocfg_pio1_3_set_func_swdio>:
    2454:	b510      	push	{r4, lr}
    2456:	4c05      	ldr	r4, [pc, #20]	; (246c <iocfg_pio1_3_set_func_swdio+0x18>)
    2458:	2180      	movs	r1, #128	; 0x80
    245a:	4620      	mov	r0, r4
    245c:	f7fe fd2f 	bl	ebe <set_all_bits_one>
    2460:	4620      	mov	r0, r4
    2462:	2107      	movs	r1, #7
    2464:	e8bd 4010 	ldmia.w	sp!, {r4, lr}
    2468:	f7fe bd24 	b.w	eb4 <set_all_bits_zero>
    246c:	40044090 	.word	0x40044090

00002470 <iocfg_pio1_3_set_func_gpio>:
    2470:	b510      	push	{r4, lr}
    2472:	4c07      	ldr	r4, [pc, #28]	; (2490 <iocfg_pio1_3_set_func_gpio+0x20>)
    2474:	2180      	movs	r1, #128	; 0x80
    2476:	4620      	mov	r0, r4
    2478:	f7fe fd21 	bl	ebe <set_all_bits_one>
    247c:	4620      	mov	r0, r4
    247e:	2107      	movs	r1, #7
    2480:	f7fe fd18 	bl	eb4 <set_all_bits_zero>
    2484:	4620      	mov	r0, r4
    2486:	2101      	movs	r1, #1
    2488:	e8bd 4010 	ldmia.w	sp!, {r4, lr}
    248c:	f7fe bd17 	b.w	ebe <set_all_bits_one>
    2490:	40044090 	.word	0x40044090

00002494 <iocfg_pio1_3_set_func_ad4>:
    2494:	b510      	push	{r4, lr}
    2496:	4c07      	ldr	r4, [pc, #28]	; (24b4 <iocfg_pio1_3_set_func_ad4+0x20>)
    2498:	2180      	movs	r1, #128	; 0x80
    249a:	4620      	mov	r0, r4
    249c:	f7fe fd0a 	bl	eb4 <set_all_bits_zero>
    24a0:	4620      	mov	r0, r4
    24a2:	2107      	movs	r1, #7
    24a4:	f7fe fd06 	bl	eb4 <set_all_bits_zero>
    24a8:	4620      	mov	r0, r4
    24aa:	2102      	movs	r1, #2
    24ac:	e8bd 4010 	ldmia.w	sp!, {r4, lr}
    24b0:	f7fe bd05 	b.w	ebe <set_all_bits_one>
    24b4:	40044090 	.word	0x40044090

000024b8 <iocfg_pio1_3_set_func_ct32b1_mat2>:
    24b8:	b510      	push	{r4, lr}
    24ba:	4c07      	ldr	r4, [pc, #28]	; (24d8 <iocfg_pio1_3_set_func_ct32b1_mat2+0x20>)
    24bc:	2180      	movs	r1, #128	; 0x80
    24be:	4620      	mov	r0, r4
    24c0:	f7fe fcfd 	bl	ebe <set_all_bits_one>
    24c4:	4620      	mov	r0, r4
    24c6:	2107      	movs	r1, #7
    24c8:	f7fe fcf4 	bl	eb4 <set_all_bits_zero>
    24cc:	4620      	mov	r0, r4
    24ce:	2103      	movs	r1, #3
    24d0:	e8bd 4010 	ldmia.w	sp!, {r4, lr}
    24d4:	f7fe bcf3 	b.w	ebe <set_all_bits_one>
    24d8:	40044090 	.word	0x40044090

000024dc <iocfg_pio1_3_set_resistor_none>:
    24dc:	4801      	ldr	r0, [pc, #4]	; (24e4 <iocfg_pio1_3_set_resistor_none+0x8>)
    24de:	2118      	movs	r1, #24
    24e0:	f7fe bce8 	b.w	eb4 <set_all_bits_zero>
    24e4:	40044090 	.word	0x40044090

000024e8 <iocfg_pio1_3_set_resistor_pull_down>:
    24e8:	b510      	push	{r4, lr}
    24ea:	4c05      	ldr	r4, [pc, #20]	; (2500 <iocfg_pio1_3_set_resistor_pull_down+0x18>)
    24ec:	2118      	movs	r1, #24
    24ee:	4620      	mov	r0, r4
    24f0:	f7fe fce0 	bl	eb4 <set_all_bits_zero>
    24f4:	4620      	mov	r0, r4
    24f6:	2108      	movs	r1, #8
    24f8:	e8bd 4010 	ldmia.w	sp!, {r4, lr}
    24fc:	f7fe bcdf 	b.w	ebe <set_all_bits_one>
    2500:	40044090 	.word	0x40044090

00002504 <iocfg_pio1_3_set_resistor_pull_up>:
    2504:	b510      	push	{r4, lr}
    2506:	4c05      	ldr	r4, [pc, #20]	; (251c <iocfg_pio1_3_set_resistor_pull_up+0x18>)
    2508:	2118      	movs	r1, #24
    250a:	4620      	mov	r0, r4
    250c:	f7fe fcd2 	bl	eb4 <set_all_bits_zero>
    2510:	4620      	mov	r0, r4
    2512:	2110      	movs	r1, #16
    2514:	e8bd 4010 	ldmia.w	sp!, {r4, lr}
    2518:	f7fe bcd1 	b.w	ebe <set_all_bits_one>
    251c:	40044090 	.word	0x40044090

00002520 <iocfg_pio1_3_set_resistor_repeater>:
    2520:	4801      	ldr	r0, [pc, #4]	; (2528 <iocfg_pio1_3_set_resistor_repeater+0x8>)
    2522:	2118      	movs	r1, #24
    2524:	f7fe bccb 	b.w	ebe <set_all_bits_one>
    2528:	40044090 	.word	0x40044090

0000252c <iocfg_pio1_3_set_hysteresis_disable>:
    252c:	4801      	ldr	r0, [pc, #4]	; (2534 <iocfg_pio1_3_set_hysteresis_disable+0x8>)
    252e:	2120      	movs	r1, #32
    2530:	f7fe bcc0 	b.w	eb4 <set_all_bits_zero>
    2534:	40044090 	.word	0x40044090

00002538 <iocfg_pio1_3_set_hysteresis_enable>:
    2538:	4801      	ldr	r0, [pc, #4]	; (2540 <iocfg_pio1_3_set_hysteresis_enable+0x8>)
    253a:	2120      	movs	r1, #32
    253c:	f7fe bcbf 	b.w	ebe <set_all_bits_one>
    2540:	40044090 	.word	0x40044090

00002544 <iocfg_pio1_4_set_func_gpio>:
    2544:	b510      	push	{r4, lr}
    2546:	4c05      	ldr	r4, [pc, #20]	; (255c <iocfg_pio1_4_set_func_gpio+0x18>)
    2548:	2180      	movs	r1, #128	; 0x80
    254a:	4620      	mov	r0, r4
    254c:	f7fe fcb7 	bl	ebe <set_all_bits_one>
    2550:	4620      	mov	r0, r4
    2552:	2107      	movs	r1, #7
    2554:	e8bd 4010 	ldmia.w	sp!, {r4, lr}
    2558:	f7fe bcac 	b.w	eb4 <set_all_bits_zero>
    255c:	40044094 	.word	0x40044094

00002560 <iocfg_pio1_4_set_func_ad5>:
    2560:	b510      	push	{r4, lr}
    2562:	4c07      	ldr	r4, [pc, #28]	; (2580 <iocfg_pio1_4_set_func_ad5+0x20>)
    2564:	2180      	movs	r1, #128	; 0x80
    2566:	4620      	mov	r0, r4
    2568:	f7fe fca4 	bl	eb4 <set_all_bits_zero>
    256c:	4620      	mov	r0, r4
    256e:	2107      	movs	r1, #7
    2570:	f7fe fca0 	bl	eb4 <set_all_bits_zero>
    2574:	4620      	mov	r0, r4
    2576:	2101      	movs	r1, #1
    2578:	e8bd 4010 	ldmia.w	sp!, {r4, lr}
    257c:	f7fe bc9f 	b.w	ebe <set_all_bits_one>
    2580:	40044094 	.word	0x40044094

00002584 <iocfg_pio1_4_set_func_ct32b1_mat3>:
    2584:	b510      	push	{r4, lr}
    2586:	4c07      	ldr	r4, [pc, #28]	; (25a4 <iocfg_pio1_4_set_func_ct32b1_mat3+0x20>)
    2588:	2180      	movs	r1, #128	; 0x80
    258a:	4620      	mov	r0, r4
    258c:	f7fe fc97 	bl	ebe <set_all_bits_one>
    2590:	4620      	mov	r0, r4
    2592:	2107      	movs	r1, #7
    2594:	f7fe fc8e 	bl	eb4 <set_all_bits_zero>
    2598:	4620      	mov	r0, r4
    259a:	2102      	movs	r1, #2
    259c:	e8bd 4010 	ldmia.w	sp!, {r4, lr}
    25a0:	f7fe bc8d 	b.w	ebe <set_all_bits_one>
    25a4:	40044094 	.word	0x40044094

000025a8 <iocfg_pio1_4_set_resistor_none>:
    25a8:	4801      	ldr	r0, [pc, #4]	; (25b0 <iocfg_pio1_4_set_resistor_none+0x8>)
    25aa:	2118      	movs	r1, #24
    25ac:	f7fe bc82 	b.w	eb4 <set_all_bits_zero>
    25b0:	40044094 	.word	0x40044094

000025b4 <iocfg_pio1_4_set_resistor_pull_down>:
    25b4:	b510      	push	{r4, lr}
    25b6:	4c05      	ldr	r4, [pc, #20]	; (25cc <iocfg_pio1_4_set_resistor_pull_down+0x18>)
    25b8:	2118      	movs	r1, #24
    25ba:	4620      	mov	r0, r4
    25bc:	f7fe fc7a 	bl	eb4 <set_all_bits_zero>
    25c0:	4620      	mov	r0, r4
    25c2:	2108      	movs	r1, #8
    25c4:	e8bd 4010 	ldmia.w	sp!, {r4, lr}
    25c8:	f7fe bc79 	b.w	ebe <set_all_bits_one>
    25cc:	40044094 	.word	0x40044094

000025d0 <iocfg_pio1_4_set_resistor_pull_up>:
    25d0:	b510      	push	{r4, lr}
    25d2:	4c05      	ldr	r4, [pc, #20]	; (25e8 <iocfg_pio1_4_set_resistor_pull_up+0x18>)
    25d4:	2118      	movs	r1, #24
    25d6:	4620      	mov	r0, r4
    25d8:	f7fe fc6c 	bl	eb4 <set_all_bits_zero>
    25dc:	4620      	mov	r0, r4
    25de:	2110      	movs	r1, #16
    25e0:	e8bd 4010 	ldmia.w	sp!, {r4, lr}
    25e4:	f7fe bc6b 	b.w	ebe <set_all_bits_one>
    25e8:	40044094 	.word	0x40044094

000025ec <iocfg_pio1_4_set_resistor_repeater>:
    25ec:	4801      	ldr	r0, [pc, #4]	; (25f4 <iocfg_pio1_4_set_resistor_repeater+0x8>)
    25ee:	2118      	movs	r1, #24
    25f0:	f7fe bc65 	b.w	ebe <set_all_bits_one>
    25f4:	40044094 	.word	0x40044094

000025f8 <iocfg_pio1_4_set_hysteresis_disable>:
    25f8:	4801      	ldr	r0, [pc, #4]	; (2600 <iocfg_pio1_4_set_hysteresis_disable+0x8>)
    25fa:	2120      	movs	r1, #32
    25fc:	f7fe bc5a 	b.w	eb4 <set_all_bits_zero>
    2600:	40044094 	.word	0x40044094

00002604 <iocfg_pio1_4_set_hysteresis_enable>:
    2604:	4801      	ldr	r0, [pc, #4]	; (260c <iocfg_pio1_4_set_hysteresis_enable+0x8>)
    2606:	2120      	movs	r1, #32
    2608:	f7fe bc59 	b.w	ebe <set_all_bits_one>
    260c:	40044094 	.word	0x40044094

00002610 <iocfg_pio1_11_set_func_gpio>:
    2610:	b510      	push	{r4, lr}
    2612:	4c05      	ldr	r4, [pc, #20]	; (2628 <iocfg_pio1_11_set_func_gpio+0x18>)
    2614:	2180      	movs	r1, #128	; 0x80
    2616:	4620      	mov	r0, r4
    2618:	f7fe fc51 	bl	ebe <set_all_bits_one>
    261c:	4620      	mov	r0, r4
    261e:	2107      	movs	r1, #7
    2620:	e8bd 4010 	ldmia.w	sp!, {r4, lr}
    2624:	f7fe bc46 	b.w	eb4 <set_all_bits_zero>
    2628:	40044098 	.word	0x40044098

0000262c <iocfg_pio1_11_set_func_ad7>:
    262c:	b510      	push	{r4, lr}
    262e:	4c07      	ldr	r4, [pc, #28]	; (264c <iocfg_pio1_11_set_func_ad7+0x20>)
    2630:	2180      	movs	r1, #128	; 0x80
    2632:	4620      	mov	r0, r4
    2634:	f7fe fc3e 	bl	eb4 <set_all_bits_zero>
    2638:	4620      	mov	r0, r4
    263a:	2107      	movs	r1, #7
    263c:	f7fe fc3a 	bl	eb4 <set_all_bits_zero>
    2640:	4620      	mov	r0, r4
    2642:	2101      	movs	r1, #1
    2644:	e8bd 4010 	ldmia.w	sp!, {r4, lr}
    2648:	f7fe bc39 	b.w	ebe <set_all_bits_one>
    264c:	40044098 	.word	0x40044098

00002650 <iocfg_pio1_11_set_resistor_none>:
    2650:	4801      	ldr	r0, [pc, #4]	; (2658 <iocfg_pio1_11_set_resistor_none+0x8>)
    2652:	2118      	movs	r1, #24
    2654:	f7fe bc2e 	b.w	eb4 <set_all_bits_zero>
    2658:	40044098 	.word	0x40044098

0000265c <iocfg_pio1_11_set_resistor_pull_down>:
    265c:	b510      	push	{r4, lr}
    265e:	4c05      	ldr	r4, [pc, #20]	; (2674 <iocfg_pio1_11_set_resistor_pull_down+0x18>)
    2660:	2118      	movs	r1, #24
    2662:	4620      	mov	r0, r4
    2664:	f7fe fc26 	bl	eb4 <set_all_bits_zero>
    2668:	4620      	mov	r0, r4
    266a:	2108      	movs	r1, #8
    266c:	e8bd 4010 	ldmia.w	sp!, {r4, lr}
    2670:	f7fe bc25 	b.w	ebe <set_all_bits_one>
    2674:	40044098 	.word	0x40044098

00002678 <iocfg_pio1_11_set_resistor_pull_up>:
    2678:	b510      	push	{r4, lr}
    267a:	4c05      	ldr	r4, [pc, #20]	; (2690 <iocfg_pio1_11_set_resistor_pull_up+0x18>)
    267c:	2118      	movs	r1, #24
    267e:	4620      	mov	r0, r4
    2680:	f7fe fc18 	bl	eb4 <set_all_bits_zero>
    2684:	4620      	mov	r0, r4
    2686:	2110      	movs	r1, #16
    2688:	e8bd 4010 	ldmia.w	sp!, {r4, lr}
    268c:	f7fe bc17 	b.w	ebe <set_all_bits_one>
    2690:	40044098 	.word	0x40044098

00002694 <iocfg_pio1_11_set_resistor_repeater>:
    2694:	4801      	ldr	r0, [pc, #4]	; (269c <iocfg_pio1_11_set_resistor_repeater+0x8>)
    2696:	2118      	movs	r1, #24
    2698:	f7fe bc11 	b.w	ebe <set_all_bits_one>
    269c:	40044098 	.word	0x40044098

000026a0 <iocfg_pio1_11_set_hysteresis_disable>:
    26a0:	4801      	ldr	r0, [pc, #4]	; (26a8 <iocfg_pio1_11_set_hysteresis_disable+0x8>)
    26a2:	2120      	movs	r1, #32
    26a4:	f7fe bc06 	b.w	eb4 <set_all_bits_zero>
    26a8:	40044098 	.word	0x40044098

000026ac <iocfg_pio1_11_set_hysteresis_enable>:
    26ac:	4801      	ldr	r0, [pc, #4]	; (26b4 <iocfg_pio1_11_set_hysteresis_enable+0x8>)
    26ae:	2120      	movs	r1, #32
    26b0:	f7fe bc05 	b.w	ebe <set_all_bits_one>
    26b4:	40044098 	.word	0x40044098

000026b8 <iocfg_pio3_2_set_func_gpio>:
    26b8:	4801      	ldr	r0, [pc, #4]	; (26c0 <iocfg_pio3_2_set_func_gpio+0x8>)
    26ba:	2107      	movs	r1, #7
    26bc:	f7fe bbfa 	b.w	eb4 <set_all_bits_zero>
    26c0:	4004409c 	.word	0x4004409c

000026c4 <iocfg_pio3_2_set_resistor_none>:
    26c4:	4801      	ldr	r0, [pc, #4]	; (26cc <iocfg_pio3_2_set_resistor_none+0x8>)
    26c6:	2118      	movs	r1, #24
    26c8:	f7fe bbf4 	b.w	eb4 <set_all_bits_zero>
    26cc:	4004409c 	.word	0x4004409c

000026d0 <iocfg_pio3_2_set_resistor_pull_down>:
    26d0:	b510      	push	{r4, lr}
    26d2:	4c05      	ldr	r4, [pc, #20]	; (26e8 <iocfg_pio3_2_set_resistor_pull_down+0x18>)
    26d4:	2118      	movs	r1, #24
    26d6:	4620      	mov	r0, r4
    26d8:	f7fe fbec 	bl	eb4 <set_all_bits_zero>
    26dc:	4620      	mov	r0, r4
    26de:	2108      	movs	r1, #8
    26e0:	e8bd 4010 	ldmia.w	sp!, {r4, lr}
    26e4:	f7fe bbeb 	b.w	ebe <set_all_bits_one>
    26e8:	4004409c 	.word	0x4004409c

000026ec <iocfg_pio3_2_set_resistor_pull_up>:
    26ec:	b510      	push	{r4, lr}
    26ee:	4c05      	ldr	r4, [pc, #20]	; (2704 <iocfg_pio3_2_set_resistor_pull_up+0x18>)
    26f0:	2118      	movs	r1, #24
    26f2:	4620      	mov	r0, r4
    26f4:	f7fe fbde 	bl	eb4 <set_all_bits_zero>
    26f8:	4620      	mov	r0, r4
    26fa:	2110      	movs	r1, #16
    26fc:	e8bd 4010 	ldmia.w	sp!, {r4, lr}
    2700:	f7fe bbdd 	b.w	ebe <set_all_bits_one>
    2704:	4004409c 	.word	0x4004409c

00002708 <iocfg_pio3_2_set_resistor_repeater>:
    2708:	4801      	ldr	r0, [pc, #4]	; (2710 <iocfg_pio3_2_set_resistor_repeater+0x8>)
    270a:	2118      	movs	r1, #24
    270c:	f7fe bbd7 	b.w	ebe <set_all_bits_one>
    2710:	4004409c 	.word	0x4004409c

00002714 <iocfg_pio3_2_set_hysteresis_disable>:
    2714:	4801      	ldr	r0, [pc, #4]	; (271c <iocfg_pio3_2_set_hysteresis_disable+0x8>)
    2716:	2120      	movs	r1, #32
    2718:	f7fe bbcc 	b.w	eb4 <set_all_bits_zero>
    271c:	4004409c 	.word	0x4004409c

00002720 <iocfg_pio3_2_set_hysteresis_enable>:
    2720:	4801      	ldr	r0, [pc, #4]	; (2728 <iocfg_pio3_2_set_hysteresis_enable+0x8>)
    2722:	2120      	movs	r1, #32
    2724:	f7fe bbcb 	b.w	ebe <set_all_bits_one>
    2728:	4004409c 	.word	0x4004409c

0000272c <iocfg_pio1_5_set_func_gpio>:
    272c:	4801      	ldr	r0, [pc, #4]	; (2734 <iocfg_pio1_5_set_func_gpio+0x8>)
    272e:	2107      	movs	r1, #7
    2730:	f7fe bbc0 	b.w	eb4 <set_all_bits_zero>
    2734:	400440a0 	.word	0x400440a0

00002738 <iocfg_pio1_5_set_func_rts>:
    2738:	b510      	push	{r4, lr}
    273a:	4c05      	ldr	r4, [pc, #20]	; (2750 <iocfg_pio1_5_set_func_rts+0x18>)
    273c:	2107      	movs	r1, #7
    273e:	4620      	mov	r0, r4
    2740:	f7fe fbb8 	bl	eb4 <set_all_bits_zero>
    2744:	4620      	mov	r0, r4
    2746:	2101      	movs	r1, #1
    2748:	e8bd 4010 	ldmia.w	sp!, {r4, lr}
    274c:	f7fe bbb7 	b.w	ebe <set_all_bits_one>
    2750:	400440a0 	.word	0x400440a0

00002754 <iocfg_pio1_5_set_func_ct32b0_cap0>:
    2754:	b510      	push	{r4, lr}
    2756:	4c05      	ldr	r4, [pc, #20]	; (276c <iocfg_pio1_5_set_func_ct32b0_cap0+0x18>)
    2758:	2107      	movs	r1, #7
    275a:	4620      	mov	r0, r4
    275c:	f7fe fbaa 	bl	eb4 <set_all_bits_zero>
    2760:	4620      	mov	r0, r4
    2762:	2102      	movs	r1, #2
    2764:	e8bd 4010 	ldmia.w	sp!, {r4, lr}
    2768:	f7fe bba9 	b.w	ebe <set_all_bits_one>
    276c:	400440a0 	.word	0x400440a0

00002770 <iocfg_pio1_5_set_resistor_none>:
    2770:	4801      	ldr	r0, [pc, #4]	; (2778 <iocfg_pio1_5_set_resistor_none+0x8>)
    2772:	2118      	movs	r1, #24
    2774:	f7fe bb9e 	b.w	eb4 <set_all_bits_zero>
    2778:	400440a0 	.word	0x400440a0

0000277c <iocfg_pio1_5_set_resistor_pull_down>:
    277c:	b510      	push	{r4, lr}
    277e:	4c05      	ldr	r4, [pc, #20]	; (2794 <iocfg_pio1_5_set_resistor_pull_down+0x18>)
    2780:	2118      	movs	r1, #24
    2782:	4620      	mov	r0, r4
    2784:	f7fe fb96 	bl	eb4 <set_all_bits_zero>
    2788:	4620      	mov	r0, r4
    278a:	2108      	movs	r1, #8
    278c:	e8bd 4010 	ldmia.w	sp!, {r4, lr}
    2790:	f7fe bb95 	b.w	ebe <set_all_bits_one>
    2794:	400440a0 	.word	0x400440a0

00002798 <iocfg_pio1_5_set_resistor_pull_up>:
    2798:	b510      	push	{r4, lr}
    279a:	4c05      	ldr	r4, [pc, #20]	; (27b0 <iocfg_pio1_5_set_resistor_pull_up+0x18>)
    279c:	2118      	movs	r1, #24
    279e:	4620      	mov	r0, r4
    27a0:	f7fe fb88 	bl	eb4 <set_all_bits_zero>
    27a4:	4620      	mov	r0, r4
    27a6:	2110      	movs	r1, #16
    27a8:	e8bd 4010 	ldmia.w	sp!, {r4, lr}
    27ac:	f7fe bb87 	b.w	ebe <set_all_bits_one>
    27b0:	400440a0 	.word	0x400440a0

000027b4 <iocfg_pio1_5_set_resistor_repeater>:
    27b4:	4801      	ldr	r0, [pc, #4]	; (27bc <iocfg_pio1_5_set_resistor_repeater+0x8>)
    27b6:	2118      	movs	r1, #24
    27b8:	f7fe bb81 	b.w	ebe <set_all_bits_one>
    27bc:	400440a0 	.word	0x400440a0

000027c0 <iocfg_pio1_5_set_hysteresis_disable>:
    27c0:	4801      	ldr	r0, [pc, #4]	; (27c8 <iocfg_pio1_5_set_hysteresis_disable+0x8>)
    27c2:	2120      	movs	r1, #32
    27c4:	f7fe bb76 	b.w	eb4 <set_all_bits_zero>
    27c8:	400440a0 	.word	0x400440a0

000027cc <iocfg_pio1_5_set_hysteresis_enable>:
    27cc:	4801      	ldr	r0, [pc, #4]	; (27d4 <iocfg_pio1_5_set_hysteresis_enable+0x8>)
    27ce:	2120      	movs	r1, #32
    27d0:	f7fe bb75 	b.w	ebe <set_all_bits_one>
    27d4:	400440a0 	.word	0x400440a0

000027d8 <iocfg_pio1_6_set_func_gpio>:
    27d8:	4801      	ldr	r0, [pc, #4]	; (27e0 <iocfg_pio1_6_set_func_gpio+0x8>)
    27da:	2107      	movs	r1, #7
    27dc:	f7fe bb6a 	b.w	eb4 <set_all_bits_zero>
    27e0:	400440a4 	.word	0x400440a4

000027e4 <iocfg_pio1_6_set_func_rxd>:
    27e4:	b510      	push	{r4, lr}
    27e6:	4c05      	ldr	r4, [pc, #20]	; (27fc <iocfg_pio1_6_set_func_rxd+0x18>)
    27e8:	2107      	movs	r1, #7
    27ea:	4620      	mov	r0, r4
    27ec:	f7fe fb62 	bl	eb4 <set_all_bits_zero>
    27f0:	4620      	mov	r0, r4
    27f2:	2101      	movs	r1, #1
    27f4:	e8bd 4010 	ldmia.w	sp!, {r4, lr}
    27f8:	f7fe bb61 	b.w	ebe <set_all_bits_one>
    27fc:	400440a4 	.word	0x400440a4

00002800 <iocfg_pio1_6_set_func_ct32b0_mat0>:
    2800:	b510      	push	{r4, lr}
    2802:	4c05      	ldr	r4, [pc, #20]	; (2818 <iocfg_pio1_6_set_func_ct32b0_mat0+0x18>)
    2804:	2107      	movs	r1, #7
    2806:	4620      	mov	r0, r4
    2808:	f7fe fb54 	bl	eb4 <set_all_bits_zero>
    280c:	4620      	mov	r0, r4
    280e:	2102      	movs	r1, #2
    2810:	e8bd 4010 	ldmia.w	sp!, {r4, lr}
    2814:	f7fe bb53 	b.w	ebe <set_all_bits_one>
    2818:	400440a4 	.word	0x400440a4

0000281c <iocfg_pio1_6_set_resistor_none>:
    281c:	4801      	ldr	r0, [pc, #4]	; (2824 <iocfg_pio1_6_set_resistor_none+0x8>)
    281e:	2118      	movs	r1, #24
    2820:	f7fe bb48 	b.w	eb4 <set_all_bits_zero>
    2824:	400440a4 	.word	0x400440a4

00002828 <iocfg_pio1_6_set_resistor_pull_down>:
    2828:	b510      	push	{r4, lr}
    282a:	4c05      	ldr	r4, [pc, #20]	; (2840 <iocfg_pio1_6_set_resistor_pull_down+0x18>)
    282c:	2118      	movs	r1, #24
    282e:	4620      	mov	r0, r4
    2830:	f7fe fb40 	bl	eb4 <set_all_bits_zero>
    2834:	4620      	mov	r0, r4
    2836:	2108      	movs	r1, #8
    2838:	e8bd 4010 	ldmia.w	sp!, {r4, lr}
    283c:	f7fe bb3f 	b.w	ebe <set_all_bits_one>
    2840:	400440a4 	.word	0x400440a4

00002844 <iocfg_pio1_6_set_resistor_pull_up>:
    2844:	b510      	push	{r4, lr}
    2846:	4c05      	ldr	r4, [pc, #20]	; (285c <iocfg_pio1_6_set_resistor_pull_up+0x18>)
    2848:	2118      	movs	r1, #24
    284a:	4620      	mov	r0, r4
    284c:	f7fe fb32 	bl	eb4 <set_all_bits_zero>
    2850:	4620      	mov	r0, r4
    2852:	2110      	movs	r1, #16
    2854:	e8bd 4010 	ldmia.w	sp!, {r4, lr}
    2858:	f7fe bb31 	b.w	ebe <set_all_bits_one>
    285c:	400440a4 	.word	0x400440a4

00002860 <iocfg_pio1_6_set_resistor_repeater>:
    2860:	4801      	ldr	r0, [pc, #4]	; (2868 <iocfg_pio1_6_set_resistor_repeater+0x8>)
    2862:	2118      	movs	r1, #24
    2864:	f7fe bb2b 	b.w	ebe <set_all_bits_one>
    2868:	400440a4 	.word	0x400440a4

0000286c <iocfg_pio1_6_set_hysteresis_disable>:
    286c:	4801      	ldr	r0, [pc, #4]	; (2874 <iocfg_pio1_6_set_hysteresis_disable+0x8>)
    286e:	2120      	movs	r1, #32
    2870:	f7fe bb20 	b.w	eb4 <set_all_bits_zero>
    2874:	400440a4 	.word	0x400440a4

00002878 <iocfg_pio1_6_set_hysteresis_enable>:
    2878:	4801      	ldr	r0, [pc, #4]	; (2880 <iocfg_pio1_6_set_hysteresis_enable+0x8>)
    287a:	2120      	movs	r1, #32
    287c:	f7fe bb1f 	b.w	ebe <set_all_bits_one>
    2880:	400440a4 	.word	0x400440a4

00002884 <iocfg_pio1_7_set_func_gpio>:
    2884:	4801      	ldr	r0, [pc, #4]	; (288c <iocfg_pio1_7_set_func_gpio+0x8>)
    2886:	2107      	movs	r1, #7
    2888:	f7fe bb14 	b.w	eb4 <set_all_bits_zero>
    288c:	400440a8 	.word	0x400440a8

00002890 <iocfg_pio1_7_set_func_txd>:
    2890:	b510      	push	{r4, lr}
    2892:	4c05      	ldr	r4, [pc, #20]	; (28a8 <iocfg_pio1_7_set_func_txd+0x18>)
    2894:	2107      	movs	r1, #7
    2896:	4620      	mov	r0, r4
    2898:	f7fe fb0c 	bl	eb4 <set_all_bits_zero>
    289c:	4620      	mov	r0, r4
    289e:	2101      	movs	r1, #1
    28a0:	e8bd 4010 	ldmia.w	sp!, {r4, lr}
    28a4:	f7fe bb0b 	b.w	ebe <set_all_bits_one>
    28a8:	400440a8 	.word	0x400440a8

000028ac <iocfg_pio1_7_set_func_ct32b0_mat1>:
    28ac:	b510      	push	{r4, lr}
    28ae:	4c05      	ldr	r4, [pc, #20]	; (28c4 <iocfg_pio1_7_set_func_ct32b0_mat1+0x18>)
    28b0:	2107      	movs	r1, #7
    28b2:	4620      	mov	r0, r4
    28b4:	f7fe fafe 	bl	eb4 <set_all_bits_zero>
    28b8:	4620      	mov	r0, r4
    28ba:	2102      	movs	r1, #2
    28bc:	e8bd 4010 	ldmia.w	sp!, {r4, lr}
    28c0:	f7fe bafd 	b.w	ebe <set_all_bits_one>
    28c4:	400440a8 	.word	0x400440a8

000028c8 <iocfg_pio1_7_set_resistor_none>:
    28c8:	4801      	ldr	r0, [pc, #4]	; (28d0 <iocfg_pio1_7_set_resistor_none+0x8>)
    28ca:	2118      	movs	r1, #24
    28cc:	f7fe baf2 	b.w	eb4 <set_all_bits_zero>
    28d0:	400440a8 	.word	0x400440a8

000028d4 <iocfg_pio1_7_set_resistor_pull_down>:
    28d4:	b510      	push	{r4, lr}
    28d6:	4c05      	ldr	r4, [pc, #20]	; (28ec <iocfg_pio1_7_set_resistor_pull_down+0x18>)
    28d8:	2118      	movs	r1, #24
    28da:	4620      	mov	r0, r4
    28dc:	f7fe faea 	bl	eb4 <set_all_bits_zero>
    28e0:	4620      	mov	r0, r4
    28e2:	2108      	movs	r1, #8
    28e4:	e8bd 4010 	ldmia.w	sp!, {r4, lr}
    28e8:	f7fe bae9 	b.w	ebe <set_all_bits_one>
    28ec:	400440a8 	.word	0x400440a8

000028f0 <iocfg_pio1_7_set_resistor_pull_up>:
    28f0:	b510      	push	{r4, lr}
    28f2:	4c05      	ldr	r4, [pc, #20]	; (2908 <iocfg_pio1_7_set_resistor_pull_up+0x18>)
    28f4:	2118      	movs	r1, #24
    28f6:	4620      	mov	r0, r4
    28f8:	f7fe fadc 	bl	eb4 <set_all_bits_zero>
    28fc:	4620      	mov	r0, r4
    28fe:	2110      	movs	r1, #16
    2900:	e8bd 4010 	ldmia.w	sp!, {r4, lr}
    2904:	f7fe badb 	b.w	ebe <set_all_bits_one>
    2908:	400440a8 	.word	0x400440a8

0000290c <iocfg_pio1_7_set_resistor_repeater>:
    290c:	4801      	ldr	r0, [pc, #4]	; (2914 <iocfg_pio1_7_set_resistor_repeater+0x8>)
    290e:	2118      	movs	r1, #24
    2910:	f7fe bad5 	b.w	ebe <set_all_bits_one>
    2914:	400440a8 	.word	0x400440a8

00002918 <iocfg_pio1_7_set_hysteresis_disable>:
    2918:	4801      	ldr	r0, [pc, #4]	; (2920 <iocfg_pio1_7_set_hysteresis_disable+0x8>)
    291a:	2120      	movs	r1, #32
    291c:	f7fe baca 	b.w	eb4 <set_all_bits_zero>
    2920:	400440a8 	.word	0x400440a8

00002924 <iocfg_pio1_7_set_hysteresis_enable>:
    2924:	4801      	ldr	r0, [pc, #4]	; (292c <iocfg_pio1_7_set_hysteresis_enable+0x8>)
    2926:	2120      	movs	r1, #32
    2928:	f7fe bac9 	b.w	ebe <set_all_bits_one>
    292c:	400440a8 	.word	0x400440a8

00002930 <iocfg_pio3_3_set_func_gpio>:
    2930:	4801      	ldr	r0, [pc, #4]	; (2938 <iocfg_pio3_3_set_func_gpio+0x8>)
    2932:	2107      	movs	r1, #7
    2934:	f7fe babe 	b.w	eb4 <set_all_bits_zero>
    2938:	400440ac 	.word	0x400440ac

0000293c <iocfg_pio3_3_set_resistor_none>:
    293c:	4801      	ldr	r0, [pc, #4]	; (2944 <iocfg_pio3_3_set_resistor_none+0x8>)
    293e:	2118      	movs	r1, #24
    2940:	f7fe bab8 	b.w	eb4 <set_all_bits_zero>
    2944:	400440ac 	.word	0x400440ac

00002948 <iocfg_pio3_3_set_resistor_pull_down>:
    2948:	b510      	push	{r4, lr}
    294a:	4c05      	ldr	r4, [pc, #20]	; (2960 <iocfg_pio3_3_set_resistor_pull_down+0x18>)
    294c:	2118      	movs	r1, #24
    294e:	4620      	mov	r0, r4
    2950:	f7fe fab0 	bl	eb4 <set_all_bits_zero>
    2954:	4620      	mov	r0, r4
    2956:	2108      	movs	r1, #8
    2958:	e8bd 4010 	ldmia.w	sp!, {r4, lr}
    295c:	f7fe baaf 	b.w	ebe <set_all_bits_one>
    2960:	400440ac 	.word	0x400440ac

00002964 <iocfg_pio3_3_set_resistor_pull_up>:
    2964:	b510      	push	{r4, lr}
    2966:	4c05      	ldr	r4, [pc, #20]	; (297c <iocfg_pio3_3_set_resistor_pull_up+0x18>)
    2968:	2118      	movs	r1, #24
    296a:	4620      	mov	r0, r4
    296c:	f7fe faa2 	bl	eb4 <set_all_bits_zero>
    2970:	4620      	mov	r0, r4
    2972:	2110      	movs	r1, #16
    2974:	e8bd 4010 	ldmia.w	sp!, {r4, lr}
    2978:	f7fe baa1 	b.w	ebe <set_all_bits_one>
    297c:	400440ac 	.word	0x400440ac

00002980 <iocfg_pio3_3_set_resistor_repeater>:
    2980:	4801      	ldr	r0, [pc, #4]	; (2988 <iocfg_pio3_3_set_resistor_repeater+0x8>)
    2982:	2118      	movs	r1, #24
    2984:	f7fe ba9b 	b.w	ebe <set_all_bits_one>
    2988:	400440ac 	.word	0x400440ac

0000298c <iocfg_pio3_3_set_hysteresis_disable>:
    298c:	4801      	ldr	r0, [pc, #4]	; (2994 <iocfg_pio3_3_set_hysteresis_disable+0x8>)
    298e:	2120      	movs	r1, #32
    2990:	f7fe ba90 	b.w	eb4 <set_all_bits_zero>
    2994:	400440ac 	.word	0x400440ac

00002998 <iocfg_pio3_3_set_hysteresis_enable>:
    2998:	4801      	ldr	r0, [pc, #4]	; (29a0 <iocfg_pio3_3_set_hysteresis_enable+0x8>)
    299a:	2120      	movs	r1, #32
    299c:	f7fe ba8f 	b.w	ebe <set_all_bits_one>
    29a0:	400440ac 	.word	0x400440ac

000029a4 <led_ann_1g_on>:
    29a4:	b508      	push	{r3, lr}
    29a6:	2001      	movs	r0, #1
    29a8:	2100      	movs	r1, #0
    29aa:	f7fe fb34 	bl	1016 <gpio_set_dir_out>
    29ae:	e8bd 4008 	ldmia.w	sp!, {r3, lr}
    29b2:	2001      	movs	r0, #1
    29b4:	2100      	movs	r1, #0
    29b6:	f7fe bb49 	b.w	104c <gpio_set_data_bit_zero>

000029ba <led_ann_1b_on>:
    29ba:	b508      	push	{r3, lr}
    29bc:	2001      	movs	r0, #1
    29be:	4601      	mov	r1, r0
    29c0:	f7fe fb29 	bl	1016 <gpio_set_dir_out>
    29c4:	e8bd 4008 	ldmia.w	sp!, {r3, lr}
    29c8:	2001      	movs	r0, #1
    29ca:	4601      	mov	r1, r0
    29cc:	f7fe bb3e 	b.w	104c <gpio_set_data_bit_zero>

000029d0 <led_ann_1r_on>:
    29d0:	b508      	push	{r3, lr}
    29d2:	2001      	movs	r0, #1
    29d4:	2102      	movs	r1, #2
    29d6:	f7fe fb1e 	bl	1016 <gpio_set_dir_out>
    29da:	e8bd 4008 	ldmia.w	sp!, {r3, lr}
    29de:	2001      	movs	r0, #1
    29e0:	2102      	movs	r1, #2
    29e2:	f7fe bb33 	b.w	104c <gpio_set_data_bit_zero>

000029e6 <led_ann_2g_on>:
    29e6:	b508      	push	{r3, lr}
    29e8:	2001      	movs	r0, #1
    29ea:	2103      	movs	r1, #3
    29ec:	f7fe fb13 	bl	1016 <gpio_set_dir_out>
    29f0:	e8bd 4008 	ldmia.w	sp!, {r3, lr}
    29f4:	2001      	movs	r0, #1
    29f6:	2103      	movs	r1, #3
    29f8:	f7fe bb28 	b.w	104c <gpio_set_data_bit_zero>

000029fc <led_ann_2b_on>:
    29fc:	b508      	push	{r3, lr}
    29fe:	2001      	movs	r0, #1
    2a00:	2104      	movs	r1, #4
    2a02:	f7fe fb08 	bl	1016 <gpio_set_dir_out>
    2a06:	e8bd 4008 	ldmia.w	sp!, {r3, lr}
    2a0a:	2001      	movs	r0, #1
    2a0c:	2104      	movs	r1, #4
    2a0e:	f7fe bb1d 	b.w	104c <gpio_set_data_bit_zero>

00002a12 <led_ann_2r_on>:
    2a12:	b508      	push	{r3, lr}
    2a14:	2001      	movs	r0, #1
    2a16:	2105      	movs	r1, #5
    2a18:	f7fe fafd 	bl	1016 <gpio_set_dir_out>
    2a1c:	e8bd 4008 	ldmia.w	sp!, {r3, lr}
    2a20:	2001      	movs	r0, #1
    2a22:	2105      	movs	r1, #5
    2a24:	f7fe bb12 	b.w	104c <gpio_set_data_bit_zero>

00002a28 <led_ann_3g_on>:
    2a28:	b508      	push	{r3, lr}
    2a2a:	2001      	movs	r0, #1
    2a2c:	2106      	movs	r1, #6
    2a2e:	f7fe faf2 	bl	1016 <gpio_set_dir_out>
    2a32:	e8bd 4008 	ldmia.w	sp!, {r3, lr}
    2a36:	2001      	movs	r0, #1
    2a38:	2106      	movs	r1, #6
    2a3a:	f7fe bb07 	b.w	104c <gpio_set_data_bit_zero>

00002a3e <led_ann_3b_on>:
    2a3e:	b508      	push	{r3, lr}
    2a40:	2001      	movs	r0, #1
    2a42:	2107      	movs	r1, #7
    2a44:	f7fe fae7 	bl	1016 <gpio_set_dir_out>
    2a48:	e8bd 4008 	ldmia.w	sp!, {r3, lr}
    2a4c:	2001      	movs	r0, #1
    2a4e:	2107      	movs	r1, #7
    2a50:	f7fe bafc 	b.w	104c <gpio_set_data_bit_zero>

00002a54 <led_ann_3r_on>:
    2a54:	b508      	push	{r3, lr}
    2a56:	2001      	movs	r0, #1
    2a58:	2108      	movs	r1, #8
    2a5a:	f7fe fadc 	bl	1016 <gpio_set_dir_out>
    2a5e:	e8bd 4008 	ldmia.w	sp!, {r3, lr}
    2a62:	2001      	movs	r0, #1
    2a64:	2108      	movs	r1, #8
    2a66:	f7fe baf1 	b.w	104c <gpio_set_data_bit_zero>

00002a6a <led_ann_1g_off>:
    2a6a:	2001      	movs	r0, #1
    2a6c:	2100      	movs	r1, #0
    2a6e:	f7fe bacf 	b.w	1010 <gpio_set_dir_in>

00002a72 <led_ann_1b_off>:
    2a72:	2001      	movs	r0, #1
    2a74:	4601      	mov	r1, r0
    2a76:	f7fe bacb 	b.w	1010 <gpio_set_dir_in>

00002a7a <led_ann_1r_off>:
    2a7a:	2001      	movs	r0, #1
    2a7c:	2102      	movs	r1, #2
    2a7e:	f7fe bac7 	b.w	1010 <gpio_set_dir_in>

00002a82 <led_ann_2g_off>:
    2a82:	2001      	movs	r0, #1
    2a84:	2103      	movs	r1, #3
    2a86:	f7fe bac3 	b.w	1010 <gpio_set_dir_in>

00002a8a <led_ann_2b_off>:
    2a8a:	2001      	movs	r0, #1
    2a8c:	2104      	movs	r1, #4
    2a8e:	f7fe babf 	b.w	1010 <gpio_set_dir_in>

00002a92 <led_ann_2r_off>:
    2a92:	2001      	movs	r0, #1
    2a94:	2105      	movs	r1, #5
    2a96:	f7fe babb 	b.w	1010 <gpio_set_dir_in>

00002a9a <led_ann_3g_off>:
    2a9a:	2001      	movs	r0, #1
    2a9c:	2106      	movs	r1, #6
    2a9e:	f7fe bab7 	b.w	1010 <gpio_set_dir_in>

00002aa2 <led_ann_3b_off>:
    2aa2:	2001      	movs	r0, #1
    2aa4:	2107      	movs	r1, #7
    2aa6:	f7fe bab3 	b.w	1010 <gpio_set_dir_in>

00002aaa <led_ann_3r_off>:
    2aaa:	2001      	movs	r0, #1
    2aac:	2108      	movs	r1, #8
    2aae:	f7fe baaf 	b.w	1010 <gpio_set_dir_in>

00002ab2 <led_dbg_red_power_off>:
    2ab2:	2003      	movs	r0, #3
    2ab4:	2101      	movs	r1, #1
    2ab6:	f7fe baab 	b.w	1010 <gpio_set_dir_in>

00002aba <led_dbg_red_power_on>:
    2aba:	b508      	push	{r3, lr}
    2abc:	2003      	movs	r0, #3
    2abe:	2101      	movs	r1, #1
    2ac0:	f7fe faa9 	bl	1016 <gpio_set_dir_out>
    2ac4:	e8bd 4008 	ldmia.w	sp!, {r3, lr}
    2ac8:	2003      	movs	r0, #3
    2aca:	2101      	movs	r1, #1
    2acc:	f7fe babe 	b.w	104c <gpio_set_data_bit_zero>

00002ad0 <led_dbg_green_power_off>:
    2ad0:	2003      	movs	r0, #3
    2ad2:	2102      	movs	r1, #2
    2ad4:	f7fe ba9c 	b.w	1010 <gpio_set_dir_in>

00002ad8 <led_dbg_green_power_on>:
    2ad8:	b508      	push	{r3, lr}
    2ada:	2003      	movs	r0, #3
    2adc:	2102      	movs	r1, #2
    2ade:	f7fe fa9a 	bl	1016 <gpio_set_dir_out>
    2ae2:	e8bd 4008 	ldmia.w	sp!, {r3, lr}
    2ae6:	2003      	movs	r0, #3
    2ae8:	2102      	movs	r1, #2
    2aea:	f7fe baaf 	b.w	104c <gpio_set_data_bit_zero>

00002aee <led_dbg_blue_power_off>:
    2aee:	2003      	movs	r0, #3
    2af0:	4601      	mov	r1, r0
    2af2:	f7fe ba8d 	b.w	1010 <gpio_set_dir_in>

00002af6 <led_dbg_blue_power_on>:
    2af6:	b508      	push	{r3, lr}
    2af8:	2003      	movs	r0, #3
    2afa:	4601      	mov	r1, r0
    2afc:	f7fe fa8b 	bl	1016 <gpio_set_dir_out>
    2b00:	e8bd 4008 	ldmia.w	sp!, {r3, lr}
    2b04:	2003      	movs	r0, #3
    2b06:	4601      	mov	r1, r0
    2b08:	f7fe baa0 	b.w	104c <gpio_set_data_bit_zero>

00002b0c <led_bat_0_power_off>:
    2b0c:	2000      	movs	r0, #0
    2b0e:	210a      	movs	r1, #10
    2b10:	f7fe ba7e 	b.w	1010 <gpio_set_dir_in>

00002b14 <led_bat_0_power_on>:
    2b14:	b508      	push	{r3, lr}
    2b16:	2000      	movs	r0, #0
    2b18:	210a      	movs	r1, #10
    2b1a:	f7fe fa7c 	bl	1016 <gpio_set_dir_out>
    2b1e:	e8bd 4008 	ldmia.w	sp!, {r3, lr}
    2b22:	2000      	movs	r0, #0
    2b24:	210a      	movs	r1, #10
    2b26:	f7fe ba91 	b.w	104c <gpio_set_data_bit_zero>

00002b2a <led_bat_1_power_off>:
    2b2a:	2001      	movs	r0, #1
    2b2c:	2109      	movs	r1, #9
    2b2e:	f7fe ba6f 	b.w	1010 <gpio_set_dir_in>

00002b32 <led_bat_1_power_on>:
    2b32:	b508      	push	{r3, lr}
    2b34:	2001      	movs	r0, #1
    2b36:	2109      	movs	r1, #9
    2b38:	f7fe fa6d 	bl	1016 <gpio_set_dir_out>
    2b3c:	e8bd 4008 	ldmia.w	sp!, {r3, lr}
    2b40:	2001      	movs	r0, #1
    2b42:	2109      	movs	r1, #9
    2b44:	f7fe ba82 	b.w	104c <gpio_set_data_bit_zero>

00002b48 <led_bat_2_power_off>:
    2b48:	2001      	movs	r0, #1
    2b4a:	210a      	movs	r1, #10
    2b4c:	f7fe ba60 	b.w	1010 <gpio_set_dir_in>

00002b50 <led_bat_2_power_on>:
    2b50:	b508      	push	{r3, lr}
    2b52:	2001      	movs	r0, #1
    2b54:	210a      	movs	r1, #10
    2b56:	f7fe fa5e 	bl	1016 <gpio_set_dir_out>
    2b5a:	e8bd 4008 	ldmia.w	sp!, {r3, lr}
    2b5e:	2001      	movs	r0, #1
    2b60:	210a      	movs	r1, #10
    2b62:	f7fe ba73 	b.w	104c <gpio_set_data_bit_zero>

00002b66 <led_bat_3_power_off>:
    2b66:	2001      	movs	r0, #1
    2b68:	210b      	movs	r1, #11
    2b6a:	f7fe ba51 	b.w	1010 <gpio_set_dir_in>

00002b6e <init_leds>:
    2b6e:	b508      	push	{r3, lr}
    2b70:	f7ff ff9f 	bl	2ab2 <led_dbg_red_power_off>
    2b74:	f7ff ffac 	bl	2ad0 <led_dbg_green_power_off>
    2b78:	f7ff ffb9 	bl	2aee <led_dbg_blue_power_off>
    2b7c:	f7ff ffc6 	bl	2b0c <led_bat_0_power_off>
    2b80:	f7ff ffd3 	bl	2b2a <led_bat_1_power_off>
    2b84:	f7ff ffe0 	bl	2b48 <led_bat_2_power_off>
    2b88:	f7ff ffed 	bl	2b66 <led_bat_3_power_off>
    2b8c:	2002      	movs	r0, #2
    2b8e:	2100      	movs	r1, #0
    2b90:	f7fe fa41 	bl	1016 <gpio_set_dir_out>
    2b94:	2002      	movs	r0, #2
    2b96:	2100      	movs	r1, #0
    2b98:	f7fe fa58 	bl	104c <gpio_set_data_bit_zero>
    2b9c:	2002      	movs	r0, #2
    2b9e:	2101      	movs	r1, #1
    2ba0:	f7fe fa39 	bl	1016 <gpio_set_dir_out>
    2ba4:	2002      	movs	r0, #2
    2ba6:	2101      	movs	r1, #1
    2ba8:	f7fe fa50 	bl	104c <gpio_set_data_bit_zero>
    2bac:	2002      	movs	r0, #2
    2bae:	4601      	mov	r1, r0
    2bb0:	f7fe fa31 	bl	1016 <gpio_set_dir_out>
    2bb4:	2002      	movs	r0, #2
    2bb6:	4601      	mov	r1, r0
    2bb8:	f7fe fa48 	bl	104c <gpio_set_data_bit_zero>
    2bbc:	2002      	movs	r0, #2
    2bbe:	2103      	movs	r1, #3
    2bc0:	f7fe fa29 	bl	1016 <gpio_set_dir_out>
    2bc4:	2002      	movs	r0, #2
    2bc6:	2103      	movs	r1, #3
    2bc8:	f7fe fa40 	bl	104c <gpio_set_data_bit_zero>
    2bcc:	2002      	movs	r0, #2
    2bce:	2104      	movs	r1, #4
    2bd0:	f7fe fa21 	bl	1016 <gpio_set_dir_out>
    2bd4:	2002      	movs	r0, #2
    2bd6:	2104      	movs	r1, #4
    2bd8:	f7fe fa38 	bl	104c <gpio_set_data_bit_zero>
    2bdc:	2002      	movs	r0, #2
    2bde:	2105      	movs	r1, #5
    2be0:	f7fe fa19 	bl	1016 <gpio_set_dir_out>
    2be4:	2002      	movs	r0, #2
    2be6:	2105      	movs	r1, #5
    2be8:	f7fe fa30 	bl	104c <gpio_set_data_bit_zero>
    2bec:	2002      	movs	r0, #2
    2bee:	2106      	movs	r1, #6
    2bf0:	f7fe fa11 	bl	1016 <gpio_set_dir_out>
    2bf4:	2002      	movs	r0, #2
    2bf6:	2106      	movs	r1, #6
    2bf8:	f7fe fa28 	bl	104c <gpio_set_data_bit_zero>
    2bfc:	2002      	movs	r0, #2
    2bfe:	2107      	movs	r1, #7
    2c00:	f7fe fa09 	bl	1016 <gpio_set_dir_out>
    2c04:	2002      	movs	r0, #2
    2c06:	2107      	movs	r1, #7
    2c08:	f7fe fa20 	bl	104c <gpio_set_data_bit_zero>
    2c0c:	2002      	movs	r0, #2
    2c0e:	2108      	movs	r1, #8
    2c10:	f7fe fa01 	bl	1016 <gpio_set_dir_out>
    2c14:	2002      	movs	r0, #2
    2c16:	2108      	movs	r1, #8
    2c18:	f7fe fa18 	bl	104c <gpio_set_data_bit_zero>
    2c1c:	2002      	movs	r0, #2
    2c1e:	2109      	movs	r1, #9
    2c20:	f7fe f9f9 	bl	1016 <gpio_set_dir_out>
    2c24:	2002      	movs	r0, #2
    2c26:	2109      	movs	r1, #9
    2c28:	f7fe fa10 	bl	104c <gpio_set_data_bit_zero>
    2c2c:	f7ff ff21 	bl	2a72 <led_ann_1b_off>
    2c30:	f7ff ff1b 	bl	2a6a <led_ann_1g_off>
    2c34:	f7ff ff21 	bl	2a7a <led_ann_1r_off>
    2c38:	f7ff ff27 	bl	2a8a <led_ann_2b_off>
    2c3c:	f7ff ff21 	bl	2a82 <led_ann_2g_off>
    2c40:	f7ff ff27 	bl	2a92 <led_ann_2r_off>
    2c44:	f7ff ff2d 	bl	2aa2 <led_ann_3b_off>
    2c48:	f7ff ff27 	bl	2a9a <led_ann_3g_off>
    2c4c:	e8bd 4008 	ldmia.w	sp!, {r3, lr}
    2c50:	f7ff bf2b 	b.w	2aaa <led_ann_3r_off>

00002c54 <led_bat_3_power_on>:
    2c54:	b508      	push	{r3, lr}
    2c56:	2001      	movs	r0, #1
    2c58:	210b      	movs	r1, #11
    2c5a:	f7fe f9dc 	bl	1016 <gpio_set_dir_out>
    2c5e:	e8bd 4008 	ldmia.w	sp!, {r3, lr}
    2c62:	2001      	movs	r0, #1
    2c64:	210b      	movs	r1, #11
    2c66:	f7fe b9f1 	b.w	104c <gpio_set_data_bit_zero>

00002c6a <print_bat_leds>:
    2c6a:	b513      	push	{r0, r1, r4, lr}
    2c6c:	f000 000f 	and.w	r0, r0, #15
    2c70:	ac02      	add	r4, sp, #8
    2c72:	f844 0d04 	str.w	r0, [r4, #-4]!
    2c76:	4620      	mov	r0, r4
    2c78:	2100      	movs	r1, #0
    2c7a:	f7fe f912 	bl	ea2 <bit_is_set>
    2c7e:	b110      	cbz	r0, 2c86 <print_bat_leds+0x1c>
    2c80:	f7ff ff48 	bl	2b14 <led_bat_0_power_on>
    2c84:	e001      	b.n	2c8a <print_bat_leds+0x20>
    2c86:	f7ff ff41 	bl	2b0c <led_bat_0_power_off>
    2c8a:	4620      	mov	r0, r4
    2c8c:	2101      	movs	r1, #1
    2c8e:	f7fe f908 	bl	ea2 <bit_is_set>
    2c92:	b110      	cbz	r0, 2c9a <print_bat_leds+0x30>
    2c94:	f7ff ff4d 	bl	2b32 <led_bat_1_power_on>
    2c98:	e001      	b.n	2c9e <print_bat_leds+0x34>
    2c9a:	f7ff ff46 	bl	2b2a <led_bat_1_power_off>
    2c9e:	4620      	mov	r0, r4
    2ca0:	2102      	movs	r1, #2
    2ca2:	f7fe f8fe 	bl	ea2 <bit_is_set>
    2ca6:	b110      	cbz	r0, 2cae <print_bat_leds+0x44>
    2ca8:	f7ff ff52 	bl	2b50 <led_bat_2_power_on>
    2cac:	e001      	b.n	2cb2 <print_bat_leds+0x48>
    2cae:	f7ff ff4b 	bl	2b48 <led_bat_2_power_off>
    2cb2:	4620      	mov	r0, r4
    2cb4:	2103      	movs	r1, #3
    2cb6:	f7fe f8f4 	bl	ea2 <bit_is_set>
    2cba:	b110      	cbz	r0, 2cc2 <print_bat_leds+0x58>
    2cbc:	f7ff ffca 	bl	2c54 <led_bat_3_power_on>
    2cc0:	e001      	b.n	2cc6 <print_bat_leds+0x5c>
    2cc2:	f7ff ff50 	bl	2b66 <led_bat_3_power_off>
    2cc6:	b002      	add	sp, #8
    2cc8:	bd10      	pop	{r4, pc}

00002cca <led_ann_cs_all_off>:
    2cca:	b508      	push	{r3, lr}
    2ccc:	2002      	movs	r0, #2
    2cce:	2100      	movs	r1, #0
    2cd0:	f7fe f9bc 	bl	104c <gpio_set_data_bit_zero>
    2cd4:	2002      	movs	r0, #2
    2cd6:	2101      	movs	r1, #1
    2cd8:	f7fe f9b8 	bl	104c <gpio_set_data_bit_zero>
    2cdc:	2002      	movs	r0, #2
    2cde:	4601      	mov	r1, r0
    2ce0:	f7fe f9b4 	bl	104c <gpio_set_data_bit_zero>
    2ce4:	2002      	movs	r0, #2
    2ce6:	2103      	movs	r1, #3
    2ce8:	f7fe f9b0 	bl	104c <gpio_set_data_bit_zero>
    2cec:	2002      	movs	r0, #2
    2cee:	2104      	movs	r1, #4
    2cf0:	f7fe f9ac 	bl	104c <gpio_set_data_bit_zero>
    2cf4:	2002      	movs	r0, #2
    2cf6:	2105      	movs	r1, #5
    2cf8:	f7fe f9a8 	bl	104c <gpio_set_data_bit_zero>
    2cfc:	2002      	movs	r0, #2
    2cfe:	2106      	movs	r1, #6
    2d00:	f7fe f9a4 	bl	104c <gpio_set_data_bit_zero>
    2d04:	2002      	movs	r0, #2
    2d06:	2107      	movs	r1, #7
    2d08:	f7fe f9a0 	bl	104c <gpio_set_data_bit_zero>
    2d0c:	2002      	movs	r0, #2
    2d0e:	2108      	movs	r1, #8
    2d10:	f7fe f99c 	bl	104c <gpio_set_data_bit_zero>
    2d14:	e8bd 4008 	ldmia.w	sp!, {r3, lr}
    2d18:	2002      	movs	r0, #2
    2d1a:	2109      	movs	r1, #9
    2d1c:	f7fe b996 	b.w	104c <gpio_set_data_bit_zero>

00002d20 <led_ann_cs_one_on>:
    2d20:	b510      	push	{r4, lr}
    2d22:	4604      	mov	r4, r0
    2d24:	f7ff ffd1 	bl	2cca <led_ann_cs_all_off>
    2d28:	2c09      	cmp	r4, #9
    2d2a:	d805      	bhi.n	2d38 <led_ann_cs_one_on+0x18>
    2d2c:	4621      	mov	r1, r4
    2d2e:	2002      	movs	r0, #2
    2d30:	e8bd 4010 	ldmia.w	sp!, {r4, lr}
    2d34:	f7fe b98d 	b.w	1052 <gpio_set_data_bit_one>
    2d38:	bd10      	pop	{r4, pc}

00002d3a <led_fsm_init>:
    2d3a:	6001      	str	r1, [r0, #0]
    2d3c:	2100      	movs	r1, #0
    2d3e:	6041      	str	r1, [r0, #4]
    2d40:	6081      	str	r1, [r0, #8]
    2d42:	60c1      	str	r1, [r0, #12]
    2d44:	6102      	str	r2, [r0, #16]
    2d46:	6143      	str	r3, [r0, #20]
    2d48:	4770      	bx	lr

00002d4a <led_fsm_step>:
    2d4a:	68c2      	ldr	r2, [r0, #12]
    2d4c:	6881      	ldr	r1, [r0, #8]
    2d4e:	3201      	adds	r2, #1
    2d50:	b538      	push	{r3, r4, r5, lr}
    2d52:	4604      	mov	r4, r0
    2d54:	60c2      	str	r2, [r0, #12]
    2d56:	6843      	ldr	r3, [r0, #4]
    2d58:	b959      	cbnz	r1, 2d72 <led_fsm_step+0x28>
    2d5a:	6800      	ldr	r0, [r0, #0]
    2d5c:	1ac0      	subs	r0, r0, r3
    2d5e:	4282      	cmp	r2, r0
    2d60:	db12      	blt.n	2d88 <led_fsm_step+0x3e>
    2d62:	2b00      	cmp	r3, #0
    2d64:	60e1      	str	r1, [r4, #12]
    2d66:	dd0f      	ble.n	2d88 <led_fsm_step+0x3e>
    2d68:	6963      	ldr	r3, [r4, #20]
    2d6a:	4798      	blx	r3
    2d6c:	2301      	movs	r3, #1
    2d6e:	60a3      	str	r3, [r4, #8]
    2d70:	bd38      	pop	{r3, r4, r5, pc}
    2d72:	429a      	cmp	r2, r3
    2d74:	db08      	blt.n	2d88 <led_fsm_step+0x3e>
    2d76:	6802      	ldr	r2, [r0, #0]
    2d78:	2500      	movs	r5, #0
    2d7a:	1ad3      	subs	r3, r2, r3
    2d7c:	42ab      	cmp	r3, r5
    2d7e:	60c5      	str	r5, [r0, #12]
    2d80:	dd02      	ble.n	2d88 <led_fsm_step+0x3e>
    2d82:	6903      	ldr	r3, [r0, #16]
    2d84:	4798      	blx	r3
    2d86:	60a5      	str	r5, [r4, #8]
    2d88:	bd38      	pop	{r3, r4, r5, pc}

00002d8a <led_fsm_set_bright>:
    2d8a:	6803      	ldr	r3, [r0, #0]
    2d8c:	ea21 71e1 	bic.w	r1, r1, r1, asr #31
    2d90:	4299      	cmp	r1, r3
    2d92:	bfd4      	ite	le
    2d94:	6041      	strle	r1, [r0, #4]
    2d96:	6043      	strgt	r3, [r0, #4]
    2d98:	4770      	bx	lr

00002d9a <led_fsm_get_bright>:
    2d9a:	6840      	ldr	r0, [r0, #4]
    2d9c:	4770      	bx	lr

00002d9e <led_matrix_fsm_init>:
    2d9e:	4a1a      	ldr	r2, [pc, #104]	; (2e08 <led_matrix_fsm_init+0x6a>)
    2da0:	b5f8      	push	{r3, r4, r5, r6, r7, lr}
    2da2:	e882 0003 	stmia.w	r2, {r0, r1}
    2da6:	4348      	muls	r0, r1
    2da8:	2301      	movs	r3, #1
    2daa:	f102 016a 	add.w	r1, r2, #106	; 0x6a
    2dae:	60d3      	str	r3, [r2, #12]
    2db0:	6090      	str	r0, [r2, #8]
    2db2:	f102 0310 	add.w	r3, r2, #16
    2db6:	460f      	mov	r7, r1
    2db8:	2200      	movs	r2, #0
    2dba:	701a      	strb	r2, [r3, #0]
    2dbc:	705a      	strb	r2, [r3, #1]
    2dbe:	709a      	strb	r2, [r3, #2]
    2dc0:	70da      	strb	r2, [r3, #3]
    2dc2:	711a      	strb	r2, [r3, #4]
    2dc4:	715a      	strb	r2, [r3, #5]
    2dc6:	719a      	strb	r2, [r3, #6]
    2dc8:	71da      	strb	r2, [r3, #7]
    2dca:	721a      	strb	r2, [r3, #8]
    2dcc:	3309      	adds	r3, #9
    2dce:	428b      	cmp	r3, r1
    2dd0:	d1f3      	bne.n	2dba <led_matrix_fsm_init+0x1c>
    2dd2:	2300      	movs	r3, #0
    2dd4:	4e0d      	ldr	r6, [pc, #52]	; (2e0c <led_matrix_fsm_init+0x6e>)
    2dd6:	461a      	mov	r2, r3
    2dd8:	54fa      	strb	r2, [r7, r3]
    2dda:	559a      	strb	r2, [r3, r6]
    2ddc:	18f8      	adds	r0, r7, r3
    2dde:	18f1      	adds	r1, r6, r3
    2de0:	3303      	adds	r3, #3
    2de2:	2b09      	cmp	r3, #9
    2de4:	4d08      	ldr	r5, [pc, #32]	; (2e08 <led_matrix_fsm_init+0x6a>)
    2de6:	f04f 0400 	mov.w	r4, #0
    2dea:	7042      	strb	r2, [r0, #1]
    2dec:	704a      	strb	r2, [r1, #1]
    2dee:	7082      	strb	r2, [r0, #2]
    2df0:	708a      	strb	r2, [r1, #2]
    2df2:	d1f1      	bne.n	2dd8 <led_matrix_fsm_init+0x3a>
    2df4:	f7ff ff69 	bl	2cca <led_ann_cs_all_off>
    2df8:	4620      	mov	r0, r4
    2dfa:	f7ff ff91 	bl	2d20 <led_ann_cs_one_on>
    2dfe:	67ec      	str	r4, [r5, #124]	; 0x7c
    2e00:	f8c5 4080 	str.w	r4, [r5, #128]	; 0x80
    2e04:	bdf8      	pop	{r3, r4, r5, r6, r7, pc}
    2e06:	bf00      	nop
    2e08:	10000238 	.word	0x10000238
    2e0c:	100002ab 	.word	0x100002ab

00002e10 <led_matrix_fsm_step>:
    2e10:	e92d 4ff0 	stmdb	sp!, {r4, r5, r6, r7, r8, r9, sl, fp, lr}
    2e14:	4d40      	ldr	r5, [pc, #256]	; (2f18 <led_matrix_fsm_step+0x108>)
    2e16:	b085      	sub	sp, #20
    2e18:	f8d5 3080 	ldr.w	r3, [r5, #128]	; 0x80
    2e1c:	68aa      	ldr	r2, [r5, #8]
    2e1e:	3301      	adds	r3, #1
    2e20:	4293      	cmp	r3, r2
    2e22:	f8c5 3080 	str.w	r3, [r5, #128]	; 0x80
    2e26:	f105 096a 	add.w	r9, r5, #106	; 0x6a
    2e2a:	f105 0273 	add.w	r2, r5, #115	; 0x73
    2e2e:	f8df b0f0 	ldr.w	fp, [pc, #240]	; 2f20 <led_matrix_fsm_step+0x110>
    2e32:	d921      	bls.n	2e78 <led_matrix_fsm_step+0x68>
    2e34:	6feb      	ldr	r3, [r5, #124]	; 0x7c
    2e36:	2400      	movs	r4, #0
    2e38:	3301      	adds	r3, #1
    2e3a:	2b09      	cmp	r3, #9
    2e3c:	bf88      	it	hi
    2e3e:	4623      	movhi	r3, r4
    2e40:	f8c5 4080 	str.w	r4, [r5, #128]	; 0x80
    2e44:	67eb      	str	r3, [r5, #124]	; 0x7c
    2e46:	4627      	mov	r7, r4
    2e48:	eb0b 0a84 	add.w	sl, fp, r4, lsl #2
    2e4c:	2600      	movs	r6, #0
    2e4e:	eb04 0809 	add.w	r8, r4, r9
    2e52:	18a3      	adds	r3, r4, r2
    2e54:	559f      	strb	r7, [r3, r6]
    2e56:	f808 7006 	strb.w	r7, [r8, r6]
    2e5a:	f85a 3026 	ldr.w	r3, [sl, r6, lsl #2]
    2e5e:	9201      	str	r2, [sp, #4]
    2e60:	3601      	adds	r6, #1
    2e62:	4798      	blx	r3
    2e64:	2e03      	cmp	r6, #3
    2e66:	9a01      	ldr	r2, [sp, #4]
    2e68:	d1f3      	bne.n	2e52 <led_matrix_fsm_step+0x42>
    2e6a:	3403      	adds	r4, #3
    2e6c:	2c09      	cmp	r4, #9
    2e6e:	d1eb      	bne.n	2e48 <led_matrix_fsm_step+0x38>
    2e70:	4b29      	ldr	r3, [pc, #164]	; (2f18 <led_matrix_fsm_step+0x108>)
    2e72:	6fd8      	ldr	r0, [r3, #124]	; 0x7c
    2e74:	f7ff ff54 	bl	2d20 <led_ann_cs_one_on>
    2e78:	4e28      	ldr	r6, [pc, #160]	; (2f1c <led_matrix_fsm_step+0x10c>)
    2e7a:	f04f 0800 	mov.w	r8, #0
    2e7e:	f106 0709 	add.w	r7, r6, #9
    2e82:	f1a6 096a 	sub.w	r9, r6, #106	; 0x6a
    2e86:	230c      	movs	r3, #12
    2e88:	fb03 f308 	mul.w	r3, r3, r8
    2e8c:	f8df a094 	ldr.w	sl, [pc, #148]	; 2f24 <led_matrix_fsm_step+0x114>
    2e90:	2400      	movs	r4, #0
    2e92:	449a      	add	sl, r3
    2e94:	445b      	add	r3, fp
    2e96:	9302      	str	r3, [sp, #8]
    2e98:	2303      	movs	r3, #3
    2e9a:	fb03 f308 	mul.w	r3, r3, r8
    2e9e:	9303      	str	r3, [sp, #12]
    2ea0:	9a03      	ldr	r2, [sp, #12]
    2ea2:	6feb      	ldr	r3, [r5, #124]	; 0x7c
    2ea4:	2109      	movs	r1, #9
    2ea6:	fb01 2303 	mla	r3, r1, r3, r2
    2eaa:	5d39      	ldrb	r1, [r7, r4]
    2eac:	442b      	add	r3, r5
    2eae:	4423      	add	r3, r4
    2eb0:	7c1a      	ldrb	r2, [r3, #16]
    2eb2:	3101      	adds	r1, #1
    2eb4:	68eb      	ldr	r3, [r5, #12]
    2eb6:	5d30      	ldrb	r0, [r6, r4]
    2eb8:	b2c9      	uxtb	r1, r1
    2eba:	435a      	muls	r2, r3
    2ebc:	5539      	strb	r1, [r7, r4]
    2ebe:	b960      	cbnz	r0, 2eda <led_matrix_fsm_step+0xca>
    2ec0:	f8d9 3008 	ldr.w	r3, [r9, #8]
    2ec4:	1a9b      	subs	r3, r3, r2
    2ec6:	4299      	cmp	r1, r3
    2ec8:	d316      	bcc.n	2ef8 <led_matrix_fsm_step+0xe8>
    2eca:	5538      	strb	r0, [r7, r4]
    2ecc:	b1a2      	cbz	r2, 2ef8 <led_matrix_fsm_step+0xe8>
    2ece:	f85a 3024 	ldr.w	r3, [sl, r4, lsl #2]
    2ed2:	4798      	blx	r3
    2ed4:	2301      	movs	r3, #1
    2ed6:	5533      	strb	r3, [r6, r4]
    2ed8:	e00e      	b.n	2ef8 <led_matrix_fsm_step+0xe8>
    2eda:	4291      	cmp	r1, r2
    2edc:	d30c      	bcc.n	2ef8 <led_matrix_fsm_step+0xe8>
    2ede:	f8d9 3008 	ldr.w	r3, [r9, #8]
    2ee2:	2100      	movs	r1, #0
    2ee4:	4293      	cmp	r3, r2
    2ee6:	5539      	strb	r1, [r7, r4]
    2ee8:	d006      	beq.n	2ef8 <led_matrix_fsm_step+0xe8>
    2eea:	9a02      	ldr	r2, [sp, #8]
    2eec:	f852 3024 	ldr.w	r3, [r2, r4, lsl #2]
    2ef0:	9101      	str	r1, [sp, #4]
    2ef2:	4798      	blx	r3
    2ef4:	9901      	ldr	r1, [sp, #4]
    2ef6:	5531      	strb	r1, [r6, r4]
    2ef8:	3401      	adds	r4, #1
    2efa:	2c03      	cmp	r4, #3
    2efc:	d1d0      	bne.n	2ea0 <led_matrix_fsm_step+0x90>
    2efe:	f108 0801 	add.w	r8, r8, #1
    2f02:	f1b8 0f03 	cmp.w	r8, #3
    2f06:	f106 0603 	add.w	r6, r6, #3
    2f0a:	f107 0703 	add.w	r7, r7, #3
    2f0e:	d1ba      	bne.n	2e86 <led_matrix_fsm_step+0x76>
    2f10:	b005      	add	sp, #20
    2f12:	e8bd 8ff0 	ldmia.w	sp!, {r4, r5, r6, r7, r8, r9, sl, fp, pc}
    2f16:	bf00      	nop
    2f18:	10000238 	.word	0x10000238
    2f1c:	100002a2 	.word	0x100002a2
    2f20:	00003fa4 	.word	0x00003fa4
    2f24:	00003fc8 	.word	0x00003fc8

00002f28 <led_matrix_fsm_set_global_bright>:
    2f28:	4b04      	ldr	r3, [pc, #16]	; (2f3c <led_matrix_fsm_set_global_bright+0x14>)
    2f2a:	2801      	cmp	r0, #1
    2f2c:	bf38      	it	cc
    2f2e:	2001      	movcc	r0, #1
    2f30:	685a      	ldr	r2, [r3, #4]
    2f32:	4290      	cmp	r0, r2
    2f34:	bf94      	ite	ls
    2f36:	60d8      	strls	r0, [r3, #12]
    2f38:	60da      	strhi	r2, [r3, #12]
    2f3a:	4770      	bx	lr
    2f3c:	10000238 	.word	0x10000238

00002f40 <led_matrix_fsm_get_global_bright>:
    2f40:	4b01      	ldr	r3, [pc, #4]	; (2f48 <led_matrix_fsm_get_global_bright+0x8>)
    2f42:	68d8      	ldr	r0, [r3, #12]
    2f44:	4770      	bx	lr
    2f46:	bf00      	nop
    2f48:	10000238 	.word	0x10000238

00002f4c <led_matrix_fsm_set_rgb_bright>:
    2f4c:	b570      	push	{r4, r5, r6, lr}
    2f4e:	4e0b      	ldr	r6, [pc, #44]	; (2f7c <led_matrix_fsm_set_rgb_bright+0x30>)
    2f50:	f89d 5010 	ldrb.w	r5, [sp, #16]
    2f54:	6834      	ldr	r4, [r6, #0]
    2f56:	42a2      	cmp	r2, r4
    2f58:	bf88      	it	hi
    2f5a:	b2e2      	uxtbhi	r2, r4
    2f5c:	42a3      	cmp	r3, r4
    2f5e:	bf88      	it	hi
    2f60:	b2e3      	uxtbhi	r3, r4
    2f62:	42a5      	cmp	r5, r4
    2f64:	bf88      	it	hi
    2f66:	b2e5      	uxtbhi	r5, r4
    2f68:	2409      	movs	r4, #9
    2f6a:	4360      	muls	r0, r4
    2f6c:	2403      	movs	r4, #3
    2f6e:	fb04 0101 	mla	r1, r4, r1, r0
    2f72:	4431      	add	r1, r6
    2f74:	740a      	strb	r2, [r1, #16]
    2f76:	744b      	strb	r3, [r1, #17]
    2f78:	748d      	strb	r5, [r1, #18]
    2f7a:	bd70      	pop	{r4, r5, r6, pc}
    2f7c:	10000238 	.word	0x10000238

00002f80 <led_matrix_fsm_get_red>:
    2f80:	2309      	movs	r3, #9
    2f82:	4358      	muls	r0, r3
    2f84:	2203      	movs	r2, #3
    2f86:	fb02 0101 	mla	r1, r2, r1, r0
    2f8a:	4a02      	ldr	r2, [pc, #8]	; (2f94 <led_matrix_fsm_get_red+0x14>)
    2f8c:	1853      	adds	r3, r2, r1
    2f8e:	7c18      	ldrb	r0, [r3, #16]
    2f90:	4770      	bx	lr
    2f92:	bf00      	nop
    2f94:	10000238 	.word	0x10000238

00002f98 <led_matrix_fsm_get_green>:
    2f98:	2309      	movs	r3, #9
    2f9a:	4358      	muls	r0, r3
    2f9c:	2203      	movs	r2, #3
    2f9e:	fb02 0101 	mla	r1, r2, r1, r0
    2fa2:	4a02      	ldr	r2, [pc, #8]	; (2fac <led_matrix_fsm_get_green+0x14>)
    2fa4:	1853      	adds	r3, r2, r1
    2fa6:	7c58      	ldrb	r0, [r3, #17]
    2fa8:	4770      	bx	lr
    2faa:	bf00      	nop
    2fac:	10000238 	.word	0x10000238

00002fb0 <led_matrix_fsm_get_blue>:
    2fb0:	2309      	movs	r3, #9
    2fb2:	4358      	muls	r0, r3
    2fb4:	2203      	movs	r2, #3
    2fb6:	fb02 0101 	mla	r1, r2, r1, r0
    2fba:	4a02      	ldr	r2, [pc, #8]	; (2fc4 <led_matrix_fsm_get_blue+0x14>)
    2fbc:	1853      	adds	r3, r2, r1
    2fbe:	7c98      	ldrb	r0, [r3, #18]
    2fc0:	4770      	bx	lr
    2fc2:	bf00      	nop
    2fc4:	10000238 	.word	0x10000238

00002fc8 <memset>:
    2fc8:	4402      	add	r2, r0
    2fca:	4603      	mov	r3, r0
    2fcc:	4293      	cmp	r3, r2
    2fce:	d002      	beq.n	2fd6 <memset+0xe>
    2fd0:	f803 1b01 	strb.w	r1, [r3], #1
    2fd4:	e7fa      	b.n	2fcc <memset+0x4>
    2fd6:	4770      	bx	lr

00002fd8 <memcpy>:
    2fd8:	4281      	cmp	r1, r0
    2fda:	b510      	push	{r4, lr}
    2fdc:	d301      	bcc.n	2fe2 <memcpy+0xa>
    2fde:	2300      	movs	r3, #0
    2fe0:	e00d      	b.n	2ffe <memcpy+0x26>
    2fe2:	188c      	adds	r4, r1, r2
    2fe4:	4284      	cmp	r4, r0
    2fe6:	d9fa      	bls.n	2fde <memcpy+0x6>
    2fe8:	4253      	negs	r3, r2
    2fea:	1881      	adds	r1, r0, r2
    2fec:	441c      	add	r4, r3
    2fee:	440b      	add	r3, r1
    2ff0:	f112 32ff 	adds.w	r2, r2, #4294967295
    2ff4:	d302      	bcc.n	2ffc <memcpy+0x24>
    2ff6:	5ca1      	ldrb	r1, [r4, r2]
    2ff8:	5499      	strb	r1, [r3, r2]
    2ffa:	e7f9      	b.n	2ff0 <memcpy+0x18>
    2ffc:	bd10      	pop	{r4, pc}
    2ffe:	4293      	cmp	r3, r2
    3000:	d003      	beq.n	300a <memcpy+0x32>
    3002:	5ccc      	ldrb	r4, [r1, r3]
    3004:	54c4      	strb	r4, [r0, r3]
    3006:	3301      	adds	r3, #1
    3008:	e7f9      	b.n	2ffe <memcpy+0x26>
    300a:	bd10      	pop	{r4, pc}

0000300c <init_switches>:
    300c:	2003      	movs	r0, #3
    300e:	2100      	movs	r1, #0
    3010:	f7fd bffe 	b.w	1010 <gpio_set_dir_in>

00003014 <switch_dbg_is_set>:
    3014:	b508      	push	{r3, lr}
    3016:	2100      	movs	r1, #0
    3018:	2003      	movs	r0, #3
    301a:	f7fe f81d 	bl	1058 <gpio_get_data_bit>
    301e:	f1d0 0001 	rsbs	r0, r0, #1
    3022:	bf38      	it	cc
    3024:	2000      	movcc	r0, #0
    3026:	bd08      	pop	{r3, pc}

00003028 <remap_vectors_to_boot_rom>:
    3028:	4801      	ldr	r0, [pc, #4]	; (3030 <remap_vectors_to_boot_rom+0x8>)
    302a:	2103      	movs	r1, #3
    302c:	f7fd bf42 	b.w	eb4 <set_all_bits_zero>
    3030:	40048000 	.word	0x40048000

00003034 <remap_vectors_to_sram>:
    3034:	b510      	push	{r4, lr}
    3036:	4c05      	ldr	r4, [pc, #20]	; (304c <remap_vectors_to_sram+0x18>)
    3038:	2103      	movs	r1, #3
    303a:	4620      	mov	r0, r4
    303c:	f7fd ff3a 	bl	eb4 <set_all_bits_zero>
    3040:	4620      	mov	r0, r4
    3042:	2101      	movs	r1, #1
    3044:	e8bd 4010 	ldmia.w	sp!, {r4, lr}
    3048:	f7fd bf39 	b.w	ebe <set_all_bits_one>
    304c:	40048000 	.word	0x40048000

00003050 <remap_vectors_to_flash>:
    3050:	b510      	push	{r4, lr}
    3052:	4c05      	ldr	r4, [pc, #20]	; (3068 <remap_vectors_to_flash+0x18>)
    3054:	2103      	movs	r1, #3
    3056:	4620      	mov	r0, r4
    3058:	f7fd ff2c 	bl	eb4 <set_all_bits_zero>
    305c:	4620      	mov	r0, r4
    305e:	2102      	movs	r1, #2
    3060:	e8bd 4010 	ldmia.w	sp!, {r4, lr}
    3064:	f7fd bf2b 	b.w	ebe <set_all_bits_one>
    3068:	40048000 	.word	0x40048000

0000306c <ssp_reset_enabled>:
    306c:	4801      	ldr	r0, [pc, #4]	; (3074 <ssp_reset_enabled+0x8>)
    306e:	2101      	movs	r1, #1
    3070:	f7fd bf20 	b.w	eb4 <set_all_bits_zero>
    3074:	40048004 	.word	0x40048004

00003078 <ssp_reset_disabled>:
    3078:	4801      	ldr	r0, [pc, #4]	; (3080 <ssp_reset_disabled+0x8>)
    307a:	2101      	movs	r1, #1
    307c:	f7fd bf1f 	b.w	ebe <set_all_bits_one>
    3080:	40048004 	.word	0x40048004

00003084 <i2c_reset_enabled>:
    3084:	4801      	ldr	r0, [pc, #4]	; (308c <i2c_reset_enabled+0x8>)
    3086:	2102      	movs	r1, #2
    3088:	f7fd bf14 	b.w	eb4 <set_all_bits_zero>
    308c:	40048004 	.word	0x40048004

00003090 <i2c_reset_disabled>:
    3090:	4801      	ldr	r0, [pc, #4]	; (3098 <i2c_reset_disabled+0x8>)
    3092:	2102      	movs	r1, #2
    3094:	f7fd bf13 	b.w	ebe <set_all_bits_one>
    3098:	40048004 	.word	0x40048004

0000309c <syspll_set_first_divider_1>:
    309c:	4801      	ldr	r0, [pc, #4]	; (30a4 <syspll_set_first_divider_1+0x8>)
    309e:	211f      	movs	r1, #31
    30a0:	f7fd bf08 	b.w	eb4 <set_all_bits_zero>
    30a4:	40048008 	.word	0x40048008

000030a8 <syspll_set_first_divider_2>:
    30a8:	b510      	push	{r4, lr}
    30aa:	4c05      	ldr	r4, [pc, #20]	; (30c0 <syspll_set_first_divider_2+0x18>)
    30ac:	211f      	movs	r1, #31
    30ae:	4620      	mov	r0, r4
    30b0:	f7fd ff00 	bl	eb4 <set_all_bits_zero>
    30b4:	4620      	mov	r0, r4
    30b6:	2101      	movs	r1, #1
    30b8:	e8bd 4010 	ldmia.w	sp!, {r4, lr}
    30bc:	f7fd beff 	b.w	ebe <set_all_bits_one>
    30c0:	40048008 	.word	0x40048008

000030c4 <syspll_set_first_divider_3>:
    30c4:	b510      	push	{r4, lr}
    30c6:	4c05      	ldr	r4, [pc, #20]	; (30dc <syspll_set_first_divider_3+0x18>)
    30c8:	211f      	movs	r1, #31
    30ca:	4620      	mov	r0, r4
    30cc:	f7fd fef2 	bl	eb4 <set_all_bits_zero>
    30d0:	4620      	mov	r0, r4
    30d2:	2102      	movs	r1, #2
    30d4:	e8bd 4010 	ldmia.w	sp!, {r4, lr}
    30d8:	f7fd bef1 	b.w	ebe <set_all_bits_one>
    30dc:	40048008 	.word	0x40048008

000030e0 <syspll_set_first_divider_4>:
    30e0:	b510      	push	{r4, lr}
    30e2:	4c05      	ldr	r4, [pc, #20]	; (30f8 <syspll_set_first_divider_4+0x18>)
    30e4:	211f      	movs	r1, #31
    30e6:	4620      	mov	r0, r4
    30e8:	f7fd fee4 	bl	eb4 <set_all_bits_zero>
    30ec:	4620      	mov	r0, r4
    30ee:	2103      	movs	r1, #3
    30f0:	e8bd 4010 	ldmia.w	sp!, {r4, lr}
    30f4:	f7fd bee3 	b.w	ebe <set_all_bits_one>
    30f8:	40048008 	.word	0x40048008

000030fc <syspll_set_first_divider_5>:
    30fc:	b510      	push	{r4, lr}
    30fe:	4c05      	ldr	r4, [pc, #20]	; (3114 <syspll_set_first_divider_5+0x18>)
    3100:	211f      	movs	r1, #31
    3102:	4620      	mov	r0, r4
    3104:	f7fd fed6 	bl	eb4 <set_all_bits_zero>
    3108:	4620      	mov	r0, r4
    310a:	2104      	movs	r1, #4
    310c:	e8bd 4010 	ldmia.w	sp!, {r4, lr}
    3110:	f7fd bed5 	b.w	ebe <set_all_bits_one>
    3114:	40048008 	.word	0x40048008

00003118 <syspll_set_first_divider_6>:
    3118:	b510      	push	{r4, lr}
    311a:	4c05      	ldr	r4, [pc, #20]	; (3130 <syspll_set_first_divider_6+0x18>)
    311c:	211f      	movs	r1, #31
    311e:	4620      	mov	r0, r4
    3120:	f7fd fec8 	bl	eb4 <set_all_bits_zero>
    3124:	4620      	mov	r0, r4
    3126:	2105      	movs	r1, #5
    3128:	e8bd 4010 	ldmia.w	sp!, {r4, lr}
    312c:	f7fd bec7 	b.w	ebe <set_all_bits_one>
    3130:	40048008 	.word	0x40048008

00003134 <syspll_set_first_divider_7>:
    3134:	b510      	push	{r4, lr}
    3136:	4c05      	ldr	r4, [pc, #20]	; (314c <syspll_set_first_divider_7+0x18>)
    3138:	211f      	movs	r1, #31
    313a:	4620      	mov	r0, r4
    313c:	f7fd feba 	bl	eb4 <set_all_bits_zero>
    3140:	4620      	mov	r0, r4
    3142:	2106      	movs	r1, #6
    3144:	e8bd 4010 	ldmia.w	sp!, {r4, lr}
    3148:	f7fd beb9 	b.w	ebe <set_all_bits_one>
    314c:	40048008 	.word	0x40048008

00003150 <syspll_set_first_divider_8>:
    3150:	b510      	push	{r4, lr}
    3152:	4c05      	ldr	r4, [pc, #20]	; (3168 <syspll_set_first_divider_8+0x18>)
    3154:	211f      	movs	r1, #31
    3156:	4620      	mov	r0, r4
    3158:	f7fd feac 	bl	eb4 <set_all_bits_zero>
    315c:	4620      	mov	r0, r4
    315e:	2107      	movs	r1, #7
    3160:	e8bd 4010 	ldmia.w	sp!, {r4, lr}
    3164:	f7fd beab 	b.w	ebe <set_all_bits_one>
    3168:	40048008 	.word	0x40048008

0000316c <syspll_set_first_divider_9>:
    316c:	b510      	push	{r4, lr}
    316e:	4c05      	ldr	r4, [pc, #20]	; (3184 <syspll_set_first_divider_9+0x18>)
    3170:	211f      	movs	r1, #31
    3172:	4620      	mov	r0, r4
    3174:	f7fd fe9e 	bl	eb4 <set_all_bits_zero>
    3178:	4620      	mov	r0, r4
    317a:	2108      	movs	r1, #8
    317c:	e8bd 4010 	ldmia.w	sp!, {r4, lr}
    3180:	f7fd be9d 	b.w	ebe <set_all_bits_one>
    3184:	40048008 	.word	0x40048008

00003188 <syspll_set_first_divider_10>:
    3188:	b510      	push	{r4, lr}
    318a:	4c05      	ldr	r4, [pc, #20]	; (31a0 <syspll_set_first_divider_10+0x18>)
    318c:	211f      	movs	r1, #31
    318e:	4620      	mov	r0, r4
    3190:	f7fd fe90 	bl	eb4 <set_all_bits_zero>
    3194:	4620      	mov	r0, r4
    3196:	2109      	movs	r1, #9
    3198:	e8bd 4010 	ldmia.w	sp!, {r4, lr}
    319c:	f7fd be8f 	b.w	ebe <set_all_bits_one>
    31a0:	40048008 	.word	0x40048008

000031a4 <syspll_set_first_divider_11>:
    31a4:	b510      	push	{r4, lr}
    31a6:	4c05      	ldr	r4, [pc, #20]	; (31bc <syspll_set_first_divider_11+0x18>)
    31a8:	211f      	movs	r1, #31
    31aa:	4620      	mov	r0, r4
    31ac:	f7fd fe82 	bl	eb4 <set_all_bits_zero>
    31b0:	4620      	mov	r0, r4
    31b2:	210a      	movs	r1, #10
    31b4:	e8bd 4010 	ldmia.w	sp!, {r4, lr}
    31b8:	f7fd be81 	b.w	ebe <set_all_bits_one>
    31bc:	40048008 	.word	0x40048008

000031c0 <syspll_set_first_divider_12>:
    31c0:	b510      	push	{r4, lr}
    31c2:	4c05      	ldr	r4, [pc, #20]	; (31d8 <syspll_set_first_divider_12+0x18>)
    31c4:	211f      	movs	r1, #31
    31c6:	4620      	mov	r0, r4
    31c8:	f7fd fe74 	bl	eb4 <set_all_bits_zero>
    31cc:	4620      	mov	r0, r4
    31ce:	210b      	movs	r1, #11
    31d0:	e8bd 4010 	ldmia.w	sp!, {r4, lr}
    31d4:	f7fd be73 	b.w	ebe <set_all_bits_one>
    31d8:	40048008 	.word	0x40048008

000031dc <syspll_set_first_divider_13>:
    31dc:	b510      	push	{r4, lr}
    31de:	4c05      	ldr	r4, [pc, #20]	; (31f4 <syspll_set_first_divider_13+0x18>)
    31e0:	211f      	movs	r1, #31
    31e2:	4620      	mov	r0, r4
    31e4:	f7fd fe66 	bl	eb4 <set_all_bits_zero>
    31e8:	4620      	mov	r0, r4
    31ea:	210c      	movs	r1, #12
    31ec:	e8bd 4010 	ldmia.w	sp!, {r4, lr}
    31f0:	f7fd be65 	b.w	ebe <set_all_bits_one>
    31f4:	40048008 	.word	0x40048008

000031f8 <syspll_set_first_divider_14>:
    31f8:	b510      	push	{r4, lr}
    31fa:	4c05      	ldr	r4, [pc, #20]	; (3210 <syspll_set_first_divider_14+0x18>)
    31fc:	211f      	movs	r1, #31
    31fe:	4620      	mov	r0, r4
    3200:	f7fd fe58 	bl	eb4 <set_all_bits_zero>
    3204:	4620      	mov	r0, r4
    3206:	210d      	movs	r1, #13
    3208:	e8bd 4010 	ldmia.w	sp!, {r4, lr}
    320c:	f7fd be57 	b.w	ebe <set_all_bits_one>
    3210:	40048008 	.word	0x40048008

00003214 <syspll_set_first_divider_15>:
    3214:	b510      	push	{r4, lr}
    3216:	4c05      	ldr	r4, [pc, #20]	; (322c <syspll_set_first_divider_15+0x18>)
    3218:	211f      	movs	r1, #31
    321a:	4620      	mov	r0, r4
    321c:	f7fd fe4a 	bl	eb4 <set_all_bits_zero>
    3220:	4620      	mov	r0, r4
    3222:	210e      	movs	r1, #14
    3224:	e8bd 4010 	ldmia.w	sp!, {r4, lr}
    3228:	f7fd be49 	b.w	ebe <set_all_bits_one>
    322c:	40048008 	.word	0x40048008

00003230 <syspll_set_first_divider_16>:
    3230:	b510      	push	{r4, lr}
    3232:	4c05      	ldr	r4, [pc, #20]	; (3248 <syspll_set_first_divider_16+0x18>)
    3234:	211f      	movs	r1, #31
    3236:	4620      	mov	r0, r4
    3238:	f7fd fe3c 	bl	eb4 <set_all_bits_zero>
    323c:	4620      	mov	r0, r4
    323e:	210f      	movs	r1, #15
    3240:	e8bd 4010 	ldmia.w	sp!, {r4, lr}
    3244:	f7fd be3b 	b.w	ebe <set_all_bits_one>
    3248:	40048008 	.word	0x40048008

0000324c <syspll_set_first_divider_17>:
    324c:	b510      	push	{r4, lr}
    324e:	4c05      	ldr	r4, [pc, #20]	; (3264 <syspll_set_first_divider_17+0x18>)
    3250:	211f      	movs	r1, #31
    3252:	4620      	mov	r0, r4
    3254:	f7fd fe2e 	bl	eb4 <set_all_bits_zero>
    3258:	4620      	mov	r0, r4
    325a:	2110      	movs	r1, #16
    325c:	e8bd 4010 	ldmia.w	sp!, {r4, lr}
    3260:	f7fd be2d 	b.w	ebe <set_all_bits_one>
    3264:	40048008 	.word	0x40048008

00003268 <syspll_set_first_divider_18>:
    3268:	b510      	push	{r4, lr}
    326a:	4c05      	ldr	r4, [pc, #20]	; (3280 <syspll_set_first_divider_18+0x18>)
    326c:	211f      	movs	r1, #31
    326e:	4620      	mov	r0, r4
    3270:	f7fd fe20 	bl	eb4 <set_all_bits_zero>
    3274:	4620      	mov	r0, r4
    3276:	2111      	movs	r1, #17
    3278:	e8bd 4010 	ldmia.w	sp!, {r4, lr}
    327c:	f7fd be1f 	b.w	ebe <set_all_bits_one>
    3280:	40048008 	.word	0x40048008

00003284 <syspll_set_first_divider_19>:
    3284:	b510      	push	{r4, lr}
    3286:	4c05      	ldr	r4, [pc, #20]	; (329c <syspll_set_first_divider_19+0x18>)
    3288:	211f      	movs	r1, #31
    328a:	4620      	mov	r0, r4
    328c:	f7fd fe12 	bl	eb4 <set_all_bits_zero>
    3290:	4620      	mov	r0, r4
    3292:	2112      	movs	r1, #18
    3294:	e8bd 4010 	ldmia.w	sp!, {r4, lr}
    3298:	f7fd be11 	b.w	ebe <set_all_bits_one>
    329c:	40048008 	.word	0x40048008

000032a0 <syspll_set_first_divider_20>:
    32a0:	b510      	push	{r4, lr}
    32a2:	4c05      	ldr	r4, [pc, #20]	; (32b8 <syspll_set_first_divider_20+0x18>)
    32a4:	211f      	movs	r1, #31
    32a6:	4620      	mov	r0, r4
    32a8:	f7fd fe04 	bl	eb4 <set_all_bits_zero>
    32ac:	4620      	mov	r0, r4
    32ae:	2113      	movs	r1, #19
    32b0:	e8bd 4010 	ldmia.w	sp!, {r4, lr}
    32b4:	f7fd be03 	b.w	ebe <set_all_bits_one>
    32b8:	40048008 	.word	0x40048008

000032bc <syspll_set_first_divider_21>:
    32bc:	b510      	push	{r4, lr}
    32be:	4c05      	ldr	r4, [pc, #20]	; (32d4 <syspll_set_first_divider_21+0x18>)
    32c0:	211f      	movs	r1, #31
    32c2:	4620      	mov	r0, r4
    32c4:	f7fd fdf6 	bl	eb4 <set_all_bits_zero>
    32c8:	4620      	mov	r0, r4
    32ca:	2114      	movs	r1, #20
    32cc:	e8bd 4010 	ldmia.w	sp!, {r4, lr}
    32d0:	f7fd bdf5 	b.w	ebe <set_all_bits_one>
    32d4:	40048008 	.word	0x40048008

000032d8 <syspll_set_first_divider_22>:
    32d8:	b510      	push	{r4, lr}
    32da:	4c05      	ldr	r4, [pc, #20]	; (32f0 <syspll_set_first_divider_22+0x18>)
    32dc:	211f      	movs	r1, #31
    32de:	4620      	mov	r0, r4
    32e0:	f7fd fde8 	bl	eb4 <set_all_bits_zero>
    32e4:	4620      	mov	r0, r4
    32e6:	2115      	movs	r1, #21
    32e8:	e8bd 4010 	ldmia.w	sp!, {r4, lr}
    32ec:	f7fd bde7 	b.w	ebe <set_all_bits_one>
    32f0:	40048008 	.word	0x40048008

000032f4 <syspll_set_first_divider_23>:
    32f4:	b510      	push	{r4, lr}
    32f6:	4c05      	ldr	r4, [pc, #20]	; (330c <syspll_set_first_divider_23+0x18>)
    32f8:	211f      	movs	r1, #31
    32fa:	4620      	mov	r0, r4
    32fc:	f7fd fdda 	bl	eb4 <set_all_bits_zero>
    3300:	4620      	mov	r0, r4
    3302:	2116      	movs	r1, #22
    3304:	e8bd 4010 	ldmia.w	sp!, {r4, lr}
    3308:	f7fd bdd9 	b.w	ebe <set_all_bits_one>
    330c:	40048008 	.word	0x40048008

00003310 <syspll_set_first_divider_24>:
    3310:	b510      	push	{r4, lr}
    3312:	4c05      	ldr	r4, [pc, #20]	; (3328 <syspll_set_first_divider_24+0x18>)
    3314:	211f      	movs	r1, #31
    3316:	4620      	mov	r0, r4
    3318:	f7fd fdcc 	bl	eb4 <set_all_bits_zero>
    331c:	4620      	mov	r0, r4
    331e:	2117      	movs	r1, #23
    3320:	e8bd 4010 	ldmia.w	sp!, {r4, lr}
    3324:	f7fd bdcb 	b.w	ebe <set_all_bits_one>
    3328:	40048008 	.word	0x40048008

0000332c <syspll_set_first_divider_25>:
    332c:	b510      	push	{r4, lr}
    332e:	4c05      	ldr	r4, [pc, #20]	; (3344 <syspll_set_first_divider_25+0x18>)
    3330:	211f      	movs	r1, #31
    3332:	4620      	mov	r0, r4
    3334:	f7fd fdbe 	bl	eb4 <set_all_bits_zero>
    3338:	4620      	mov	r0, r4
    333a:	2118      	movs	r1, #24
    333c:	e8bd 4010 	ldmia.w	sp!, {r4, lr}
    3340:	f7fd bdbd 	b.w	ebe <set_all_bits_one>
    3344:	40048008 	.word	0x40048008

00003348 <syspll_set_first_divider_26>:
    3348:	b510      	push	{r4, lr}
    334a:	4c05      	ldr	r4, [pc, #20]	; (3360 <syspll_set_first_divider_26+0x18>)
    334c:	211f      	movs	r1, #31
    334e:	4620      	mov	r0, r4
    3350:	f7fd fdb0 	bl	eb4 <set_all_bits_zero>
    3354:	4620      	mov	r0, r4
    3356:	2119      	movs	r1, #25
    3358:	e8bd 4010 	ldmia.w	sp!, {r4, lr}
    335c:	f7fd bdaf 	b.w	ebe <set_all_bits_one>
    3360:	40048008 	.word	0x40048008

00003364 <syspll_set_first_divider_27>:
    3364:	b510      	push	{r4, lr}
    3366:	4c05      	ldr	r4, [pc, #20]	; (337c <syspll_set_first_divider_27+0x18>)
    3368:	211f      	movs	r1, #31
    336a:	4620      	mov	r0, r4
    336c:	f7fd fda2 	bl	eb4 <set_all_bits_zero>
    3370:	4620      	mov	r0, r4
    3372:	211a      	movs	r1, #26
    3374:	e8bd 4010 	ldmia.w	sp!, {r4, lr}
    3378:	f7fd bda1 	b.w	ebe <set_all_bits_one>
    337c:	40048008 	.word	0x40048008

00003380 <syspll_set_first_divider_28>:
    3380:	b510      	push	{r4, lr}
    3382:	4c05      	ldr	r4, [pc, #20]	; (3398 <syspll_set_first_divider_28+0x18>)
    3384:	211f      	movs	r1, #31
    3386:	4620      	mov	r0, r4
    3388:	f7fd fd94 	bl	eb4 <set_all_bits_zero>
    338c:	4620      	mov	r0, r4
    338e:	211b      	movs	r1, #27
    3390:	e8bd 4010 	ldmia.w	sp!, {r4, lr}
    3394:	f7fd bd93 	b.w	ebe <set_all_bits_one>
    3398:	40048008 	.word	0x40048008

0000339c <syspll_set_first_divider_29>:
    339c:	b510      	push	{r4, lr}
    339e:	4c05      	ldr	r4, [pc, #20]	; (33b4 <syspll_set_first_divider_29+0x18>)
    33a0:	211f      	movs	r1, #31
    33a2:	4620      	mov	r0, r4
    33a4:	f7fd fd86 	bl	eb4 <set_all_bits_zero>
    33a8:	4620      	mov	r0, r4
    33aa:	211c      	movs	r1, #28
    33ac:	e8bd 4010 	ldmia.w	sp!, {r4, lr}
    33b0:	f7fd bd85 	b.w	ebe <set_all_bits_one>
    33b4:	40048008 	.word	0x40048008

000033b8 <syspll_set_first_divider_30>:
    33b8:	b510      	push	{r4, lr}
    33ba:	4c05      	ldr	r4, [pc, #20]	; (33d0 <syspll_set_first_divider_30+0x18>)
    33bc:	211f      	movs	r1, #31
    33be:	4620      	mov	r0, r4
    33c0:	f7fd fd78 	bl	eb4 <set_all_bits_zero>
    33c4:	4620      	mov	r0, r4
    33c6:	211d      	movs	r1, #29
    33c8:	e8bd 4010 	ldmia.w	sp!, {r4, lr}
    33cc:	f7fd bd77 	b.w	ebe <set_all_bits_one>
    33d0:	40048008 	.word	0x40048008

000033d4 <syspll_set_first_divider_31>:
    33d4:	b510      	push	{r4, lr}
    33d6:	4c05      	ldr	r4, [pc, #20]	; (33ec <syspll_set_first_divider_31+0x18>)
    33d8:	211f      	movs	r1, #31
    33da:	4620      	mov	r0, r4
    33dc:	f7fd fd6a 	bl	eb4 <set_all_bits_zero>
    33e0:	4620      	mov	r0, r4
    33e2:	211e      	movs	r1, #30
    33e4:	e8bd 4010 	ldmia.w	sp!, {r4, lr}
    33e8:	f7fd bd69 	b.w	ebe <set_all_bits_one>
    33ec:	40048008 	.word	0x40048008

000033f0 <syspll_set_first_divider_32>:
    33f0:	4801      	ldr	r0, [pc, #4]	; (33f8 <syspll_set_first_divider_32+0x8>)
    33f2:	211f      	movs	r1, #31
    33f4:	f7fd bd63 	b.w	ebe <set_all_bits_one>
    33f8:	40048008 	.word	0x40048008

000033fc <syspll_set_second_diviver_2>:
    33fc:	4801      	ldr	r0, [pc, #4]	; (3404 <syspll_set_second_diviver_2+0x8>)
    33fe:	2160      	movs	r1, #96	; 0x60
    3400:	f7fd bd58 	b.w	eb4 <set_all_bits_zero>
    3404:	40048008 	.word	0x40048008

00003408 <syspll_set_second_diviver_4>:
    3408:	b510      	push	{r4, lr}
    340a:	4c05      	ldr	r4, [pc, #20]	; (3420 <syspll_set_second_diviver_4+0x18>)
    340c:	2160      	movs	r1, #96	; 0x60
    340e:	4620      	mov	r0, r4
    3410:	f7fd fd50 	bl	eb4 <set_all_bits_zero>
    3414:	4620      	mov	r0, r4
    3416:	2120      	movs	r1, #32
    3418:	e8bd 4010 	ldmia.w	sp!, {r4, lr}
    341c:	f7fd bd4f 	b.w	ebe <set_all_bits_one>
    3420:	40048008 	.word	0x40048008

00003424 <syspll_set_second_diviver_8>:
    3424:	b510      	push	{r4, lr}
    3426:	4c05      	ldr	r4, [pc, #20]	; (343c <syspll_set_second_diviver_8+0x18>)
    3428:	2160      	movs	r1, #96	; 0x60
    342a:	4620      	mov	r0, r4
    342c:	f7fd fd42 	bl	eb4 <set_all_bits_zero>
    3430:	4620      	mov	r0, r4
    3432:	2140      	movs	r1, #64	; 0x40
    3434:	e8bd 4010 	ldmia.w	sp!, {r4, lr}
    3438:	f7fd bd41 	b.w	ebe <set_all_bits_one>
    343c:	40048008 	.word	0x40048008

00003440 <syspll_set_second_diviver_16>:
    3440:	4801      	ldr	r0, [pc, #4]	; (3448 <syspll_set_second_diviver_16+0x8>)
    3442:	2160      	movs	r1, #96	; 0x60
    3444:	f7fd bd3b 	b.w	ebe <set_all_bits_one>
    3448:	40048008 	.word	0x40048008

0000344c <syspll_set_dividers_12MHz_to_12Mhz>:
    344c:	b508      	push	{r3, lr}
    344e:	f7ff fe25 	bl	309c <syspll_set_first_divider_1>
    3452:	e8bd 4008 	ldmia.w	sp!, {r3, lr}
    3456:	f7ff bfd1 	b.w	33fc <syspll_set_second_diviver_2>

0000345a <syspll_set_dividers_12MHz_to_24Mhz>:
    345a:	b508      	push	{r3, lr}
    345c:	f7ff fe24 	bl	30a8 <syspll_set_first_divider_2>
    3460:	e8bd 4008 	ldmia.w	sp!, {r3, lr}
    3464:	f7ff bfde 	b.w	3424 <syspll_set_second_diviver_8>

00003468 <syspll_set_dividers_12MHz_to_36Mhz>:
    3468:	b508      	push	{r3, lr}
    346a:	f7ff fe2b 	bl	30c4 <syspll_set_first_divider_3>
    346e:	e8bd 4008 	ldmia.w	sp!, {r3, lr}
    3472:	f7ff bfd7 	b.w	3424 <syspll_set_second_diviver_8>

00003476 <syspll_set_dividers_12MHz_to_48Mhz>:
    3476:	b508      	push	{r3, lr}
    3478:	f7ff fe32 	bl	30e0 <syspll_set_first_divider_4>
    347c:	e8bd 4008 	ldmia.w	sp!, {r3, lr}
    3480:	f7ff bfc2 	b.w	3408 <syspll_set_second_diviver_4>

00003484 <syspll_set_dividers_12MHz_to_72Mhz>:
    3484:	b508      	push	{r3, lr}
    3486:	f7ff fe47 	bl	3118 <syspll_set_first_divider_6>
    348a:	e8bd 4008 	ldmia.w	sp!, {r3, lr}
    348e:	f7ff bfbb 	b.w	3408 <syspll_set_second_diviver_4>

00003492 <syspll_is_locked>:
    3492:	4802      	ldr	r0, [pc, #8]	; (349c <syspll_is_locked+0xa>)
    3494:	2100      	movs	r1, #0
    3496:	f7fd bd04 	b.w	ea2 <bit_is_set>
    349a:	bf00      	nop
    349c:	4004800c 	.word	0x4004800c

000034a0 <usbpll_set_first_divider_1>:
    34a0:	4801      	ldr	r0, [pc, #4]	; (34a8 <usbpll_set_first_divider_1+0x8>)
    34a2:	211f      	movs	r1, #31
    34a4:	f7fd bd06 	b.w	eb4 <set_all_bits_zero>
    34a8:	40048010 	.word	0x40048010

000034ac <usbpll_set_first_divider_2>:
    34ac:	b510      	push	{r4, lr}
    34ae:	4c05      	ldr	r4, [pc, #20]	; (34c4 <usbpll_set_first_divider_2+0x18>)
    34b0:	211f      	movs	r1, #31
    34b2:	4620      	mov	r0, r4
    34b4:	f7fd fcfe 	bl	eb4 <set_all_bits_zero>
    34b8:	4620      	mov	r0, r4
    34ba:	2101      	movs	r1, #1
    34bc:	e8bd 4010 	ldmia.w	sp!, {r4, lr}
    34c0:	f7fd bcfd 	b.w	ebe <set_all_bits_one>
    34c4:	40048010 	.word	0x40048010

000034c8 <usbpll_set_first_divider_3>:
    34c8:	b510      	push	{r4, lr}
    34ca:	4c05      	ldr	r4, [pc, #20]	; (34e0 <usbpll_set_first_divider_3+0x18>)
    34cc:	211f      	movs	r1, #31
    34ce:	4620      	mov	r0, r4
    34d0:	f7fd fcf0 	bl	eb4 <set_all_bits_zero>
    34d4:	4620      	mov	r0, r4
    34d6:	2102      	movs	r1, #2
    34d8:	e8bd 4010 	ldmia.w	sp!, {r4, lr}
    34dc:	f7fd bcef 	b.w	ebe <set_all_bits_one>
    34e0:	40048010 	.word	0x40048010

000034e4 <usbpll_set_first_divider_4>:
    34e4:	b510      	push	{r4, lr}
    34e6:	4c05      	ldr	r4, [pc, #20]	; (34fc <usbpll_set_first_divider_4+0x18>)
    34e8:	211f      	movs	r1, #31
    34ea:	4620      	mov	r0, r4
    34ec:	f7fd fce2 	bl	eb4 <set_all_bits_zero>
    34f0:	4620      	mov	r0, r4
    34f2:	2103      	movs	r1, #3
    34f4:	e8bd 4010 	ldmia.w	sp!, {r4, lr}
    34f8:	f7fd bce1 	b.w	ebe <set_all_bits_one>
    34fc:	40048010 	.word	0x40048010

00003500 <usbpll_set_first_divider_5>:
    3500:	b510      	push	{r4, lr}
    3502:	4c05      	ldr	r4, [pc, #20]	; (3518 <usbpll_set_first_divider_5+0x18>)
    3504:	211f      	movs	r1, #31
    3506:	4620      	mov	r0, r4
    3508:	f7fd fcd4 	bl	eb4 <set_all_bits_zero>
    350c:	4620      	mov	r0, r4
    350e:	2104      	movs	r1, #4
    3510:	e8bd 4010 	ldmia.w	sp!, {r4, lr}
    3514:	f7fd bcd3 	b.w	ebe <set_all_bits_one>
    3518:	40048010 	.word	0x40048010

0000351c <usbpll_set_first_divider_6>:
    351c:	b510      	push	{r4, lr}
    351e:	4c05      	ldr	r4, [pc, #20]	; (3534 <usbpll_set_first_divider_6+0x18>)
    3520:	211f      	movs	r1, #31
    3522:	4620      	mov	r0, r4
    3524:	f7fd fcc6 	bl	eb4 <set_all_bits_zero>
    3528:	4620      	mov	r0, r4
    352a:	2105      	movs	r1, #5
    352c:	e8bd 4010 	ldmia.w	sp!, {r4, lr}
    3530:	f7fd bcc5 	b.w	ebe <set_all_bits_one>
    3534:	40048010 	.word	0x40048010

00003538 <usbpll_set_first_divider_7>:
    3538:	b510      	push	{r4, lr}
    353a:	4c05      	ldr	r4, [pc, #20]	; (3550 <usbpll_set_first_divider_7+0x18>)
    353c:	211f      	movs	r1, #31
    353e:	4620      	mov	r0, r4
    3540:	f7fd fcb8 	bl	eb4 <set_all_bits_zero>
    3544:	4620      	mov	r0, r4
    3546:	2106      	movs	r1, #6
    3548:	e8bd 4010 	ldmia.w	sp!, {r4, lr}
    354c:	f7fd bcb7 	b.w	ebe <set_all_bits_one>
    3550:	40048010 	.word	0x40048010

00003554 <usbpll_set_first_divider_8>:
    3554:	b510      	push	{r4, lr}
    3556:	4c05      	ldr	r4, [pc, #20]	; (356c <usbpll_set_first_divider_8+0x18>)
    3558:	211f      	movs	r1, #31
    355a:	4620      	mov	r0, r4
    355c:	f7fd fcaa 	bl	eb4 <set_all_bits_zero>
    3560:	4620      	mov	r0, r4
    3562:	2107      	movs	r1, #7
    3564:	e8bd 4010 	ldmia.w	sp!, {r4, lr}
    3568:	f7fd bca9 	b.w	ebe <set_all_bits_one>
    356c:	40048010 	.word	0x40048010

00003570 <usbpll_set_first_divider_9>:
    3570:	b510      	push	{r4, lr}
    3572:	4c05      	ldr	r4, [pc, #20]	; (3588 <usbpll_set_first_divider_9+0x18>)
    3574:	211f      	movs	r1, #31
    3576:	4620      	mov	r0, r4
    3578:	f7fd fc9c 	bl	eb4 <set_all_bits_zero>
    357c:	4620      	mov	r0, r4
    357e:	2108      	movs	r1, #8
    3580:	e8bd 4010 	ldmia.w	sp!, {r4, lr}
    3584:	f7fd bc9b 	b.w	ebe <set_all_bits_one>
    3588:	40048010 	.word	0x40048010

0000358c <usbpll_set_first_divider_10>:
    358c:	b510      	push	{r4, lr}
    358e:	4c05      	ldr	r4, [pc, #20]	; (35a4 <usbpll_set_first_divider_10+0x18>)
    3590:	211f      	movs	r1, #31
    3592:	4620      	mov	r0, r4
    3594:	f7fd fc8e 	bl	eb4 <set_all_bits_zero>
    3598:	4620      	mov	r0, r4
    359a:	2109      	movs	r1, #9
    359c:	e8bd 4010 	ldmia.w	sp!, {r4, lr}
    35a0:	f7fd bc8d 	b.w	ebe <set_all_bits_one>
    35a4:	40048010 	.word	0x40048010

000035a8 <usbpll_set_first_divider_11>:
    35a8:	b510      	push	{r4, lr}
    35aa:	4c05      	ldr	r4, [pc, #20]	; (35c0 <usbpll_set_first_divider_11+0x18>)
    35ac:	211f      	movs	r1, #31
    35ae:	4620      	mov	r0, r4
    35b0:	f7fd fc80 	bl	eb4 <set_all_bits_zero>
    35b4:	4620      	mov	r0, r4
    35b6:	210a      	movs	r1, #10
    35b8:	e8bd 4010 	ldmia.w	sp!, {r4, lr}
    35bc:	f7fd bc7f 	b.w	ebe <set_all_bits_one>
    35c0:	40048010 	.word	0x40048010

000035c4 <usbpll_set_first_divider_12>:
    35c4:	b510      	push	{r4, lr}
    35c6:	4c05      	ldr	r4, [pc, #20]	; (35dc <usbpll_set_first_divider_12+0x18>)
    35c8:	211f      	movs	r1, #31
    35ca:	4620      	mov	r0, r4
    35cc:	f7fd fc72 	bl	eb4 <set_all_bits_zero>
    35d0:	4620      	mov	r0, r4
    35d2:	210b      	movs	r1, #11
    35d4:	e8bd 4010 	ldmia.w	sp!, {r4, lr}
    35d8:	f7fd bc71 	b.w	ebe <set_all_bits_one>
    35dc:	40048010 	.word	0x40048010

000035e0 <usbpll_set_first_divider_13>:
    35e0:	b510      	push	{r4, lr}
    35e2:	4c05      	ldr	r4, [pc, #20]	; (35f8 <usbpll_set_first_divider_13+0x18>)
    35e4:	211f      	movs	r1, #31
    35e6:	4620      	mov	r0, r4
    35e8:	f7fd fc64 	bl	eb4 <set_all_bits_zero>
    35ec:	4620      	mov	r0, r4
    35ee:	210c      	movs	r1, #12
    35f0:	e8bd 4010 	ldmia.w	sp!, {r4, lr}
    35f4:	f7fd bc63 	b.w	ebe <set_all_bits_one>
    35f8:	40048010 	.word	0x40048010

000035fc <usbpll_set_first_divider_14>:
    35fc:	b510      	push	{r4, lr}
    35fe:	4c05      	ldr	r4, [pc, #20]	; (3614 <usbpll_set_first_divider_14+0x18>)
    3600:	211f      	movs	r1, #31
    3602:	4620      	mov	r0, r4
    3604:	f7fd fc56 	bl	eb4 <set_all_bits_zero>
    3608:	4620      	mov	r0, r4
    360a:	210d      	movs	r1, #13
    360c:	e8bd 4010 	ldmia.w	sp!, {r4, lr}
    3610:	f7fd bc55 	b.w	ebe <set_all_bits_one>
    3614:	40048010 	.word	0x40048010

00003618 <usbpll_set_first_divider_15>:
    3618:	b510      	push	{r4, lr}
    361a:	4c05      	ldr	r4, [pc, #20]	; (3630 <usbpll_set_first_divider_15+0x18>)
    361c:	211f      	movs	r1, #31
    361e:	4620      	mov	r0, r4
    3620:	f7fd fc48 	bl	eb4 <set_all_bits_zero>
    3624:	4620      	mov	r0, r4
    3626:	210e      	movs	r1, #14
    3628:	e8bd 4010 	ldmia.w	sp!, {r4, lr}
    362c:	f7fd bc47 	b.w	ebe <set_all_bits_one>
    3630:	40048010 	.word	0x40048010

00003634 <usbpll_set_first_divider_16>:
    3634:	b510      	push	{r4, lr}
    3636:	4c05      	ldr	r4, [pc, #20]	; (364c <usbpll_set_first_divider_16+0x18>)
    3638:	211f      	movs	r1, #31
    363a:	4620      	mov	r0, r4
    363c:	f7fd fc3a 	bl	eb4 <set_all_bits_zero>
    3640:	4620      	mov	r0, r4
    3642:	210f      	movs	r1, #15
    3644:	e8bd 4010 	ldmia.w	sp!, {r4, lr}
    3648:	f7fd bc39 	b.w	ebe <set_all_bits_one>
    364c:	40048010 	.word	0x40048010

00003650 <usbpll_set_first_divider_17>:
    3650:	b510      	push	{r4, lr}
    3652:	4c05      	ldr	r4, [pc, #20]	; (3668 <usbpll_set_first_divider_17+0x18>)
    3654:	211f      	movs	r1, #31
    3656:	4620      	mov	r0, r4
    3658:	f7fd fc2c 	bl	eb4 <set_all_bits_zero>
    365c:	4620      	mov	r0, r4
    365e:	2110      	movs	r1, #16
    3660:	e8bd 4010 	ldmia.w	sp!, {r4, lr}
    3664:	f7fd bc2b 	b.w	ebe <set_all_bits_one>
    3668:	40048010 	.word	0x40048010

0000366c <usbpll_set_first_divider_18>:
    366c:	b510      	push	{r4, lr}
    366e:	4c05      	ldr	r4, [pc, #20]	; (3684 <usbpll_set_first_divider_18+0x18>)
    3670:	211f      	movs	r1, #31
    3672:	4620      	mov	r0, r4
    3674:	f7fd fc1e 	bl	eb4 <set_all_bits_zero>
    3678:	4620      	mov	r0, r4
    367a:	2111      	movs	r1, #17
    367c:	e8bd 4010 	ldmia.w	sp!, {r4, lr}
    3680:	f7fd bc1d 	b.w	ebe <set_all_bits_one>
    3684:	40048010 	.word	0x40048010

00003688 <usbpll_set_first_divider_19>:
    3688:	b510      	push	{r4, lr}
    368a:	4c05      	ldr	r4, [pc, #20]	; (36a0 <usbpll_set_first_divider_19+0x18>)
    368c:	211f      	movs	r1, #31
    368e:	4620      	mov	r0, r4
    3690:	f7fd fc10 	bl	eb4 <set_all_bits_zero>
    3694:	4620      	mov	r0, r4
    3696:	2112      	movs	r1, #18
    3698:	e8bd 4010 	ldmia.w	sp!, {r4, lr}
    369c:	f7fd bc0f 	b.w	ebe <set_all_bits_one>
    36a0:	40048010 	.word	0x40048010

000036a4 <usbpll_set_first_divider_20>:
    36a4:	b510      	push	{r4, lr}
    36a6:	4c05      	ldr	r4, [pc, #20]	; (36bc <usbpll_set_first_divider_20+0x18>)
    36a8:	211f      	movs	r1, #31
    36aa:	4620      	mov	r0, r4
    36ac:	f7fd fc02 	bl	eb4 <set_all_bits_zero>
    36b0:	4620      	mov	r0, r4
    36b2:	2113      	movs	r1, #19
    36b4:	e8bd 4010 	ldmia.w	sp!, {r4, lr}
    36b8:	f7fd bc01 	b.w	ebe <set_all_bits_one>
    36bc:	40048010 	.word	0x40048010

000036c0 <usbpll_set_first_divider_21>:
    36c0:	b510      	push	{r4, lr}
    36c2:	4c05      	ldr	r4, [pc, #20]	; (36d8 <usbpll_set_first_divider_21+0x18>)
    36c4:	211f      	movs	r1, #31
    36c6:	4620      	mov	r0, r4
    36c8:	f7fd fbf4 	bl	eb4 <set_all_bits_zero>
    36cc:	4620      	mov	r0, r4
    36ce:	2114      	movs	r1, #20
    36d0:	e8bd 4010 	ldmia.w	sp!, {r4, lr}
    36d4:	f7fd bbf3 	b.w	ebe <set_all_bits_one>
    36d8:	40048010 	.word	0x40048010

000036dc <usbpll_set_first_divider_22>:
    36dc:	b510      	push	{r4, lr}
    36de:	4c05      	ldr	r4, [pc, #20]	; (36f4 <usbpll_set_first_divider_22+0x18>)
    36e0:	211f      	movs	r1, #31
    36e2:	4620      	mov	r0, r4
    36e4:	f7fd fbe6 	bl	eb4 <set_all_bits_zero>
    36e8:	4620      	mov	r0, r4
    36ea:	2115      	movs	r1, #21
    36ec:	e8bd 4010 	ldmia.w	sp!, {r4, lr}
    36f0:	f7fd bbe5 	b.w	ebe <set_all_bits_one>
    36f4:	40048010 	.word	0x40048010

000036f8 <usbpll_set_first_divider_23>:
    36f8:	b510      	push	{r4, lr}
    36fa:	4c05      	ldr	r4, [pc, #20]	; (3710 <usbpll_set_first_divider_23+0x18>)
    36fc:	211f      	movs	r1, #31
    36fe:	4620      	mov	r0, r4
    3700:	f7fd fbd8 	bl	eb4 <set_all_bits_zero>
    3704:	4620      	mov	r0, r4
    3706:	2116      	movs	r1, #22
    3708:	e8bd 4010 	ldmia.w	sp!, {r4, lr}
    370c:	f7fd bbd7 	b.w	ebe <set_all_bits_one>
    3710:	40048010 	.word	0x40048010

00003714 <usbpll_set_first_divider_24>:
    3714:	b510      	push	{r4, lr}
    3716:	4c05      	ldr	r4, [pc, #20]	; (372c <usbpll_set_first_divider_24+0x18>)
    3718:	211f      	movs	r1, #31
    371a:	4620      	mov	r0, r4
    371c:	f7fd fbca 	bl	eb4 <set_all_bits_zero>
    3720:	4620      	mov	r0, r4
    3722:	2117      	movs	r1, #23
    3724:	e8bd 4010 	ldmia.w	sp!, {r4, lr}
    3728:	f7fd bbc9 	b.w	ebe <set_all_bits_one>
    372c:	40048010 	.word	0x40048010

00003730 <usbpll_set_first_divider_25>:
    3730:	b510      	push	{r4, lr}
    3732:	4c05      	ldr	r4, [pc, #20]	; (3748 <usbpll_set_first_divider_25+0x18>)
    3734:	211f      	movs	r1, #31
    3736:	4620      	mov	r0, r4
    3738:	f7fd fbbc 	bl	eb4 <set_all_bits_zero>
    373c:	4620      	mov	r0, r4
    373e:	2118      	movs	r1, #24
    3740:	e8bd 4010 	ldmia.w	sp!, {r4, lr}
    3744:	f7fd bbbb 	b.w	ebe <set_all_bits_one>
    3748:	40048010 	.word	0x40048010

0000374c <usbpll_set_first_divider_26>:
    374c:	b510      	push	{r4, lr}
    374e:	4c05      	ldr	r4, [pc, #20]	; (3764 <usbpll_set_first_divider_26+0x18>)
    3750:	211f      	movs	r1, #31
    3752:	4620      	mov	r0, r4
    3754:	f7fd fbae 	bl	eb4 <set_all_bits_zero>
    3758:	4620      	mov	r0, r4
    375a:	2119      	movs	r1, #25
    375c:	e8bd 4010 	ldmia.w	sp!, {r4, lr}
    3760:	f7fd bbad 	b.w	ebe <set_all_bits_one>
    3764:	40048010 	.word	0x40048010

00003768 <usbpll_set_first_divider_27>:
    3768:	b510      	push	{r4, lr}
    376a:	4c05      	ldr	r4, [pc, #20]	; (3780 <usbpll_set_first_divider_27+0x18>)
    376c:	211f      	movs	r1, #31
    376e:	4620      	mov	r0, r4
    3770:	f7fd fba0 	bl	eb4 <set_all_bits_zero>
    3774:	4620      	mov	r0, r4
    3776:	211a      	movs	r1, #26
    3778:	e8bd 4010 	ldmia.w	sp!, {r4, lr}
    377c:	f7fd bb9f 	b.w	ebe <set_all_bits_one>
    3780:	40048010 	.word	0x40048010

00003784 <usbpll_set_first_divider_28>:
    3784:	b510      	push	{r4, lr}
    3786:	4c05      	ldr	r4, [pc, #20]	; (379c <usbpll_set_first_divider_28+0x18>)
    3788:	211f      	movs	r1, #31
    378a:	4620      	mov	r0, r4
    378c:	f7fd fb92 	bl	eb4 <set_all_bits_zero>
    3790:	4620      	mov	r0, r4
    3792:	211b      	movs	r1, #27
    3794:	e8bd 4010 	ldmia.w	sp!, {r4, lr}
    3798:	f7fd bb91 	b.w	ebe <set_all_bits_one>
    379c:	40048010 	.word	0x40048010

000037a0 <usbpll_set_first_divider_29>:
    37a0:	b510      	push	{r4, lr}
    37a2:	4c05      	ldr	r4, [pc, #20]	; (37b8 <usbpll_set_first_divider_29+0x18>)
    37a4:	211f      	movs	r1, #31
    37a6:	4620      	mov	r0, r4
    37a8:	f7fd fb84 	bl	eb4 <set_all_bits_zero>
    37ac:	4620      	mov	r0, r4
    37ae:	211c      	movs	r1, #28
    37b0:	e8bd 4010 	ldmia.w	sp!, {r4, lr}
    37b4:	f7fd bb83 	b.w	ebe <set_all_bits_one>
    37b8:	40048010 	.word	0x40048010

000037bc <usbpll_set_first_divider_30>:
    37bc:	b510      	push	{r4, lr}
    37be:	4c05      	ldr	r4, [pc, #20]	; (37d4 <usbpll_set_first_divider_30+0x18>)
    37c0:	211f      	movs	r1, #31
    37c2:	4620      	mov	r0, r4
    37c4:	f7fd fb76 	bl	eb4 <set_all_bits_zero>
    37c8:	4620      	mov	r0, r4
    37ca:	211d      	movs	r1, #29
    37cc:	e8bd 4010 	ldmia.w	sp!, {r4, lr}
    37d0:	f7fd bb75 	b.w	ebe <set_all_bits_one>
    37d4:	40048010 	.word	0x40048010

000037d8 <usbpll_set_first_divider_31>:
    37d8:	b510      	push	{r4, lr}
    37da:	4c05      	ldr	r4, [pc, #20]	; (37f0 <usbpll_set_first_divider_31+0x18>)
    37dc:	211f      	movs	r1, #31
    37de:	4620      	mov	r0, r4
    37e0:	f7fd fb68 	bl	eb4 <set_all_bits_zero>
    37e4:	4620      	mov	r0, r4
    37e6:	211e      	movs	r1, #30
    37e8:	e8bd 4010 	ldmia.w	sp!, {r4, lr}
    37ec:	f7fd bb67 	b.w	ebe <set_all_bits_one>
    37f0:	40048010 	.word	0x40048010

000037f4 <usbpll_set_first_divider_32>:
    37f4:	4801      	ldr	r0, [pc, #4]	; (37fc <usbpll_set_first_divider_32+0x8>)
    37f6:	211f      	movs	r1, #31
    37f8:	f7fd bb61 	b.w	ebe <set_all_bits_one>
    37fc:	40048010 	.word	0x40048010

00003800 <usbpll_set_second_diviver_2>:
    3800:	4801      	ldr	r0, [pc, #4]	; (3808 <usbpll_set_second_diviver_2+0x8>)
    3802:	2160      	movs	r1, #96	; 0x60
    3804:	f7fd bb56 	b.w	eb4 <set_all_bits_zero>
    3808:	40048010 	.word	0x40048010

0000380c <usbpll_set_second_diviver_4>:
    380c:	b510      	push	{r4, lr}
    380e:	4c05      	ldr	r4, [pc, #20]	; (3824 <usbpll_set_second_diviver_4+0x18>)
    3810:	2160      	movs	r1, #96	; 0x60
    3812:	4620      	mov	r0, r4
    3814:	f7fd fb4e 	bl	eb4 <set_all_bits_zero>
    3818:	4620      	mov	r0, r4
    381a:	2120      	movs	r1, #32
    381c:	e8bd 4010 	ldmia.w	sp!, {r4, lr}
    3820:	f7fd bb4d 	b.w	ebe <set_all_bits_one>
    3824:	40048010 	.word	0x40048010

00003828 <usbpll_set_second_diviver_8>:
    3828:	b510      	push	{r4, lr}
    382a:	4c05      	ldr	r4, [pc, #20]	; (3840 <usbpll_set_second_diviver_8+0x18>)
    382c:	2160      	movs	r1, #96	; 0x60
    382e:	4620      	mov	r0, r4
    3830:	f7fd fb40 	bl	eb4 <set_all_bits_zero>
    3834:	4620      	mov	r0, r4
    3836:	2140      	movs	r1, #64	; 0x40
    3838:	e8bd 4010 	ldmia.w	sp!, {r4, lr}
    383c:	f7fd bb3f 	b.w	ebe <set_all_bits_one>
    3840:	40048010 	.word	0x40048010

00003844 <usbpll_set_second_diviver_16>:
    3844:	4801      	ldr	r0, [pc, #4]	; (384c <usbpll_set_second_diviver_16+0x8>)
    3846:	2160      	movs	r1, #96	; 0x60
    3848:	f7fd bb39 	b.w	ebe <set_all_bits_one>
    384c:	40048010 	.word	0x40048010

00003850 <usbpll_set_dividers_12MHz_to_48Mhz>:
    3850:	b508      	push	{r3, lr}
    3852:	f7ff fe47 	bl	34e4 <usbpll_set_first_divider_4>
    3856:	e8bd 4008 	ldmia.w	sp!, {r3, lr}
    385a:	f7ff bfd7 	b.w	380c <usbpll_set_second_diviver_4>

0000385e <usbpll_is_locked>:
    385e:	4802      	ldr	r0, [pc, #8]	; (3868 <usbpll_is_locked+0xa>)
    3860:	2100      	movs	r1, #0
    3862:	f7fd bb1e 	b.w	ea2 <bit_is_set>
    3866:	bf00      	nop
    3868:	40048014 	.word	0x40048014

0000386c <sysosc_disable>:
    386c:	b508      	push	{r3, lr}
    386e:	4805      	ldr	r0, [pc, #20]	; (3884 <sysosc_disable+0x18>)
    3870:	2100      	movs	r1, #0
    3872:	f7fd fb01 	bl	e78 <set_bit_one>
    3876:	e8bd 4008 	ldmia.w	sp!, {r3, lr}
    387a:	f44f 70fa 	mov.w	r0, #500	; 0x1f4
    387e:	f7fd bbb3 	b.w	fe8 <delay_ticks>
    3882:	bf00      	nop
    3884:	40048020 	.word	0x40048020

00003888 <sysosc_enable_1MHz_20MHz>:
    3888:	b510      	push	{r4, lr}
    388a:	4c07      	ldr	r4, [pc, #28]	; (38a8 <sysosc_enable_1MHz_20MHz+0x20>)
    388c:	2100      	movs	r1, #0
    388e:	4620      	mov	r0, r4
    3890:	f7fd faea 	bl	e68 <set_bit_zero>
    3894:	4620      	mov	r0, r4
    3896:	2101      	movs	r1, #1
    3898:	f7fd fae6 	bl	e68 <set_bit_zero>
    389c:	e8bd 4010 	ldmia.w	sp!, {r4, lr}
    38a0:	f44f 70fa 	mov.w	r0, #500	; 0x1f4
    38a4:	f7fd bba0 	b.w	fe8 <delay_ticks>
    38a8:	40048020 	.word	0x40048020

000038ac <sysosc_enable_15MHz_25MHz>:
    38ac:	b510      	push	{r4, lr}
    38ae:	4c07      	ldr	r4, [pc, #28]	; (38cc <sysosc_enable_15MHz_25MHz+0x20>)
    38b0:	2100      	movs	r1, #0
    38b2:	4620      	mov	r0, r4
    38b4:	f7fd fad8 	bl	e68 <set_bit_zero>
    38b8:	4620      	mov	r0, r4
    38ba:	2101      	movs	r1, #1
    38bc:	f7fd fadc 	bl	e78 <set_bit_one>
    38c0:	e8bd 4010 	ldmia.w	sp!, {r4, lr}
    38c4:	f44f 70fa 	mov.w	r0, #500	; 0x1f4
    38c8:	f7fd bb8e 	b.w	fe8 <delay_ticks>
    38cc:	40048020 	.word	0x40048020

000038d0 <syspll_set_clock_source_irc>:
    38d0:	b508      	push	{r3, lr}
    38d2:	480c      	ldr	r0, [pc, #48]	; (3904 <syspll_set_clock_source_irc+0x34>)
    38d4:	2103      	movs	r1, #3
    38d6:	f7fd faed 	bl	eb4 <set_all_bits_zero>
    38da:	480b      	ldr	r0, [pc, #44]	; (3908 <syspll_set_clock_source_irc+0x38>)
    38dc:	2100      	movs	r1, #0
    38de:	f7fd facb 	bl	e78 <set_bit_one>
    38e2:	4809      	ldr	r0, [pc, #36]	; (3908 <syspll_set_clock_source_irc+0x38>)
    38e4:	2100      	movs	r1, #0
    38e6:	f7fd fabf 	bl	e68 <set_bit_zero>
    38ea:	4807      	ldr	r0, [pc, #28]	; (3908 <syspll_set_clock_source_irc+0x38>)
    38ec:	2100      	movs	r1, #0
    38ee:	f7fd fac3 	bl	e78 <set_bit_one>
    38f2:	4805      	ldr	r0, [pc, #20]	; (3908 <syspll_set_clock_source_irc+0x38>)
    38f4:	2100      	movs	r1, #0
    38f6:	f7fd fad4 	bl	ea2 <bit_is_set>
    38fa:	b908      	cbnz	r0, 3900 <syspll_set_clock_source_irc+0x30>
    38fc:	bf00      	nop
    38fe:	e7f8      	b.n	38f2 <syspll_set_clock_source_irc+0x22>
    3900:	bd08      	pop	{r3, pc}
    3902:	bf00      	nop
    3904:	40048040 	.word	0x40048040
    3908:	40048044 	.word	0x40048044

0000390c <syspll_set_clock_source_sysosc>:
    390c:	b508      	push	{r3, lr}
    390e:	480e      	ldr	r0, [pc, #56]	; (3948 <syspll_set_clock_source_sysosc+0x3c>)
    3910:	2103      	movs	r1, #3
    3912:	f7fd facf 	bl	eb4 <set_all_bits_zero>
    3916:	480c      	ldr	r0, [pc, #48]	; (3948 <syspll_set_clock_source_sysosc+0x3c>)
    3918:	2101      	movs	r1, #1
    391a:	f7fd fad0 	bl	ebe <set_all_bits_one>
    391e:	480b      	ldr	r0, [pc, #44]	; (394c <syspll_set_clock_source_sysosc+0x40>)
    3920:	2100      	movs	r1, #0
    3922:	f7fd faa9 	bl	e78 <set_bit_one>
    3926:	4809      	ldr	r0, [pc, #36]	; (394c <syspll_set_clock_source_sysosc+0x40>)
    3928:	2100      	movs	r1, #0
    392a:	f7fd fa9d 	bl	e68 <set_bit_zero>
    392e:	4807      	ldr	r0, [pc, #28]	; (394c <syspll_set_clock_source_sysosc+0x40>)
    3930:	2100      	movs	r1, #0
    3932:	f7fd faa1 	bl	e78 <set_bit_one>
    3936:	4805      	ldr	r0, [pc, #20]	; (394c <syspll_set_clock_source_sysosc+0x40>)
    3938:	2100      	movs	r1, #0
    393a:	f7fd fab2 	bl	ea2 <bit_is_set>
    393e:	b908      	cbnz	r0, 3944 <syspll_set_clock_source_sysosc+0x38>
    3940:	bf00      	nop
    3942:	e7f8      	b.n	3936 <syspll_set_clock_source_sysosc+0x2a>
    3944:	bd08      	pop	{r3, pc}
    3946:	bf00      	nop
    3948:	40048040 	.word	0x40048040
    394c:	40048044 	.word	0x40048044

00003950 <usbpll_set_clock_source_irc>:
    3950:	b508      	push	{r3, lr}
    3952:	480c      	ldr	r0, [pc, #48]	; (3984 <usbpll_set_clock_source_irc+0x34>)
    3954:	2103      	movs	r1, #3
    3956:	f7fd faad 	bl	eb4 <set_all_bits_zero>
    395a:	480b      	ldr	r0, [pc, #44]	; (3988 <usbpll_set_clock_source_irc+0x38>)
    395c:	2100      	movs	r1, #0
    395e:	f7fd fa8b 	bl	e78 <set_bit_one>
    3962:	4809      	ldr	r0, [pc, #36]	; (3988 <usbpll_set_clock_source_irc+0x38>)
    3964:	2100      	movs	r1, #0
    3966:	f7fd fa7f 	bl	e68 <set_bit_zero>
    396a:	4807      	ldr	r0, [pc, #28]	; (3988 <usbpll_set_clock_source_irc+0x38>)
    396c:	2100      	movs	r1, #0
    396e:	f7fd fa83 	bl	e78 <set_bit_one>
    3972:	4805      	ldr	r0, [pc, #20]	; (3988 <usbpll_set_clock_source_irc+0x38>)
    3974:	2100      	movs	r1, #0
    3976:	f7fd fa94 	bl	ea2 <bit_is_set>
    397a:	b908      	cbnz	r0, 3980 <usbpll_set_clock_source_irc+0x30>
    397c:	bf00      	nop
    397e:	e7f8      	b.n	3972 <usbpll_set_clock_source_irc+0x22>
    3980:	bd08      	pop	{r3, pc}
    3982:	bf00      	nop
    3984:	40048048 	.word	0x40048048
    3988:	4004804c 	.word	0x4004804c

0000398c <usbpll_set_clock_source_sysosc>:
    398c:	b508      	push	{r3, lr}
    398e:	480e      	ldr	r0, [pc, #56]	; (39c8 <usbpll_set_clock_source_sysosc+0x3c>)
    3990:	2103      	movs	r1, #3
    3992:	f7fd fa8f 	bl	eb4 <set_all_bits_zero>
    3996:	480c      	ldr	r0, [pc, #48]	; (39c8 <usbpll_set_clock_source_sysosc+0x3c>)
    3998:	2101      	movs	r1, #1
    399a:	f7fd fa90 	bl	ebe <set_all_bits_one>
    399e:	480b      	ldr	r0, [pc, #44]	; (39cc <usbpll_set_clock_source_sysosc+0x40>)
    39a0:	2100      	movs	r1, #0
    39a2:	f7fd fa69 	bl	e78 <set_bit_one>
    39a6:	4809      	ldr	r0, [pc, #36]	; (39cc <usbpll_set_clock_source_sysosc+0x40>)
    39a8:	2100      	movs	r1, #0
    39aa:	f7fd fa5d 	bl	e68 <set_bit_zero>
    39ae:	4807      	ldr	r0, [pc, #28]	; (39cc <usbpll_set_clock_source_sysosc+0x40>)
    39b0:	2100      	movs	r1, #0
    39b2:	f7fd fa61 	bl	e78 <set_bit_one>
    39b6:	4805      	ldr	r0, [pc, #20]	; (39cc <usbpll_set_clock_source_sysosc+0x40>)
    39b8:	2100      	movs	r1, #0
    39ba:	f7fd fa72 	bl	ea2 <bit_is_set>
    39be:	b908      	cbnz	r0, 39c4 <usbpll_set_clock_source_sysosc+0x38>
    39c0:	bf00      	nop
    39c2:	e7f8      	b.n	39b6 <usbpll_set_clock_source_sysosc+0x2a>
    39c4:	bd08      	pop	{r3, pc}
    39c6:	bf00      	nop
    39c8:	40048048 	.word	0x40048048
    39cc:	4004804c 	.word	0x4004804c

000039d0 <mainclk_set_clock_source_irc>:
    39d0:	b508      	push	{r3, lr}
    39d2:	480c      	ldr	r0, [pc, #48]	; (3a04 <mainclk_set_clock_source_irc+0x34>)
    39d4:	2103      	movs	r1, #3
    39d6:	f7fd fa6d 	bl	eb4 <set_all_bits_zero>
    39da:	480b      	ldr	r0, [pc, #44]	; (3a08 <mainclk_set_clock_source_irc+0x38>)
    39dc:	2100      	movs	r1, #0
    39de:	f7fd fa4b 	bl	e78 <set_bit_one>
    39e2:	4809      	ldr	r0, [pc, #36]	; (3a08 <mainclk_set_clock_source_irc+0x38>)
    39e4:	2100      	movs	r1, #0
    39e6:	f7fd fa3f 	bl	e68 <set_bit_zero>
    39ea:	4807      	ldr	r0, [pc, #28]	; (3a08 <mainclk_set_clock_source_irc+0x38>)
    39ec:	2100      	movs	r1, #0
    39ee:	f7fd fa43 	bl	e78 <set_bit_one>
    39f2:	4805      	ldr	r0, [pc, #20]	; (3a08 <mainclk_set_clock_source_irc+0x38>)
    39f4:	2100      	movs	r1, #0
    39f6:	f7fd fa54 	bl	ea2 <bit_is_set>
    39fa:	b908      	cbnz	r0, 3a00 <mainclk_set_clock_source_irc+0x30>
    39fc:	bf00      	nop
    39fe:	e7f8      	b.n	39f2 <mainclk_set_clock_source_irc+0x22>
    3a00:	bd08      	pop	{r3, pc}
    3a02:	bf00      	nop
    3a04:	40048070 	.word	0x40048070
    3a08:	40048074 	.word	0x40048074

00003a0c <mainclk_set_clock_source_syspll_in>:
    3a0c:	b508      	push	{r3, lr}
    3a0e:	480e      	ldr	r0, [pc, #56]	; (3a48 <mainclk_set_clock_source_syspll_in+0x3c>)
    3a10:	2103      	movs	r1, #3
    3a12:	f7fd fa4f 	bl	eb4 <set_all_bits_zero>
    3a16:	480c      	ldr	r0, [pc, #48]	; (3a48 <mainclk_set_clock_source_syspll_in+0x3c>)
    3a18:	2101      	movs	r1, #1
    3a1a:	f7fd fa50 	bl	ebe <set_all_bits_one>
    3a1e:	480b      	ldr	r0, [pc, #44]	; (3a4c <mainclk_set_clock_source_syspll_in+0x40>)
    3a20:	2100      	movs	r1, #0
    3a22:	f7fd fa29 	bl	e78 <set_bit_one>
    3a26:	4809      	ldr	r0, [pc, #36]	; (3a4c <mainclk_set_clock_source_syspll_in+0x40>)
    3a28:	2100      	movs	r1, #0
    3a2a:	f7fd fa1d 	bl	e68 <set_bit_zero>
    3a2e:	4807      	ldr	r0, [pc, #28]	; (3a4c <mainclk_set_clock_source_syspll_in+0x40>)
    3a30:	2100      	movs	r1, #0
    3a32:	f7fd fa21 	bl	e78 <set_bit_one>
    3a36:	4805      	ldr	r0, [pc, #20]	; (3a4c <mainclk_set_clock_source_syspll_in+0x40>)
    3a38:	2100      	movs	r1, #0
    3a3a:	f7fd fa32 	bl	ea2 <bit_is_set>
    3a3e:	b908      	cbnz	r0, 3a44 <mainclk_set_clock_source_syspll_in+0x38>
    3a40:	bf00      	nop
    3a42:	e7f8      	b.n	3a36 <mainclk_set_clock_source_syspll_in+0x2a>
    3a44:	bd08      	pop	{r3, pc}
    3a46:	bf00      	nop
    3a48:	40048070 	.word	0x40048070
    3a4c:	40048074 	.word	0x40048074

00003a50 <mainclk_set_clock_source_wdtosc>:
    3a50:	b508      	push	{r3, lr}
    3a52:	480e      	ldr	r0, [pc, #56]	; (3a8c <mainclk_set_clock_source_wdtosc+0x3c>)
    3a54:	2103      	movs	r1, #3
    3a56:	f7fd fa2d 	bl	eb4 <set_all_bits_zero>
    3a5a:	480c      	ldr	r0, [pc, #48]	; (3a8c <mainclk_set_clock_source_wdtosc+0x3c>)
    3a5c:	2102      	movs	r1, #2
    3a5e:	f7fd fa2e 	bl	ebe <set_all_bits_one>
    3a62:	480b      	ldr	r0, [pc, #44]	; (3a90 <mainclk_set_clock_source_wdtosc+0x40>)
    3a64:	2100      	movs	r1, #0
    3a66:	f7fd fa07 	bl	e78 <set_bit_one>
    3a6a:	4809      	ldr	r0, [pc, #36]	; (3a90 <mainclk_set_clock_source_wdtosc+0x40>)
    3a6c:	2100      	movs	r1, #0
    3a6e:	f7fd f9fb 	bl	e68 <set_bit_zero>
    3a72:	4807      	ldr	r0, [pc, #28]	; (3a90 <mainclk_set_clock_source_wdtosc+0x40>)
    3a74:	2100      	movs	r1, #0
    3a76:	f7fd f9ff 	bl	e78 <set_bit_one>
    3a7a:	4805      	ldr	r0, [pc, #20]	; (3a90 <mainclk_set_clock_source_wdtosc+0x40>)
    3a7c:	2100      	movs	r1, #0
    3a7e:	f7fd fa10 	bl	ea2 <bit_is_set>
    3a82:	b908      	cbnz	r0, 3a88 <mainclk_set_clock_source_wdtosc+0x38>
    3a84:	bf00      	nop
    3a86:	e7f8      	b.n	3a7a <mainclk_set_clock_source_wdtosc+0x2a>
    3a88:	bd08      	pop	{r3, pc}
    3a8a:	bf00      	nop
    3a8c:	40048070 	.word	0x40048070
    3a90:	40048074 	.word	0x40048074

00003a94 <mainclk_set_clock_source_syspll_out>:
    3a94:	b508      	push	{r3, lr}
    3a96:	480c      	ldr	r0, [pc, #48]	; (3ac8 <mainclk_set_clock_source_syspll_out+0x34>)
    3a98:	2103      	movs	r1, #3
    3a9a:	f7fd fa10 	bl	ebe <set_all_bits_one>
    3a9e:	480b      	ldr	r0, [pc, #44]	; (3acc <mainclk_set_clock_source_syspll_out+0x38>)
    3aa0:	2100      	movs	r1, #0
    3aa2:	f7fd f9e9 	bl	e78 <set_bit_one>
    3aa6:	4809      	ldr	r0, [pc, #36]	; (3acc <mainclk_set_clock_source_syspll_out+0x38>)
    3aa8:	2100      	movs	r1, #0
    3aaa:	f7fd f9dd 	bl	e68 <set_bit_zero>
    3aae:	4807      	ldr	r0, [pc, #28]	; (3acc <mainclk_set_clock_source_syspll_out+0x38>)
    3ab0:	2100      	movs	r1, #0
    3ab2:	f7fd f9e1 	bl	e78 <set_bit_one>
    3ab6:	4805      	ldr	r0, [pc, #20]	; (3acc <mainclk_set_clock_source_syspll_out+0x38>)
    3ab8:	2100      	movs	r1, #0
    3aba:	f7fd f9f2 	bl	ea2 <bit_is_set>
    3abe:	b908      	cbnz	r0, 3ac4 <mainclk_set_clock_source_syspll_out+0x30>
    3ac0:	bf00      	nop
    3ac2:	e7f8      	b.n	3ab6 <mainclk_set_clock_source_syspll_out+0x22>
    3ac4:	bd08      	pop	{r3, pc}
    3ac6:	bf00      	nop
    3ac8:	40048070 	.word	0x40048070
    3acc:	40048074 	.word	0x40048074

00003ad0 <sysahbclk_disable>:
    3ad0:	4b01      	ldr	r3, [pc, #4]	; (3ad8 <sysahbclk_disable+0x8>)
    3ad2:	2200      	movs	r2, #0
    3ad4:	601a      	str	r2, [r3, #0]
    3ad6:	4770      	bx	lr
    3ad8:	40048078 	.word	0x40048078

00003adc <sysahbclk_set_divider>:
    3adc:	4b01      	ldr	r3, [pc, #4]	; (3ae4 <sysahbclk_set_divider+0x8>)
    3ade:	b2c0      	uxtb	r0, r0
    3ae0:	6018      	str	r0, [r3, #0]
    3ae2:	4770      	bx	lr
    3ae4:	40048078 	.word	0x40048078

00003ae8 <sysahbclk_ahb2apb_bridge_enable_clock>:
    3ae8:	4801      	ldr	r0, [pc, #4]	; (3af0 <sysahbclk_ahb2apb_bridge_enable_clock+0x8>)
    3aea:	2100      	movs	r1, #0
    3aec:	f7fd b9c4 	b.w	e78 <set_bit_one>
    3af0:	40048080 	.word	0x40048080

00003af4 <sysahbclk_rom_disable_clock>:
    3af4:	4801      	ldr	r0, [pc, #4]	; (3afc <sysahbclk_rom_disable_clock+0x8>)
    3af6:	2101      	movs	r1, #1
    3af8:	f7fd b9b6 	b.w	e68 <set_bit_zero>
    3afc:	40048080 	.word	0x40048080

00003b00 <sysahbclk_rom_enable_clock>:
    3b00:	4801      	ldr	r0, [pc, #4]	; (3b08 <sysahbclk_rom_enable_clock+0x8>)
    3b02:	2101      	movs	r1, #1
    3b04:	f7fd b9b8 	b.w	e78 <set_bit_one>
    3b08:	40048080 	.word	0x40048080

00003b0c <sysahbclk_ram_disable_clock>:
    3b0c:	4801      	ldr	r0, [pc, #4]	; (3b14 <sysahbclk_ram_disable_clock+0x8>)
    3b0e:	2102      	movs	r1, #2
    3b10:	f7fd b9aa 	b.w	e68 <set_bit_zero>
    3b14:	40048080 	.word	0x40048080

00003b18 <sysahbclk_ram_enable_clock>:
    3b18:	4801      	ldr	r0, [pc, #4]	; (3b20 <sysahbclk_ram_enable_clock+0x8>)
    3b1a:	2102      	movs	r1, #2
    3b1c:	f7fd b9ac 	b.w	e78 <set_bit_one>
    3b20:	40048080 	.word	0x40048080

00003b24 <sysahbclk_flashreg_disable_clock>:
    3b24:	4801      	ldr	r0, [pc, #4]	; (3b2c <sysahbclk_flashreg_disable_clock+0x8>)
    3b26:	2103      	movs	r1, #3
    3b28:	f7fd b99e 	b.w	e68 <set_bit_zero>
    3b2c:	40048080 	.word	0x40048080

00003b30 <sysahbclk_flashreg_enable_clock>:
    3b30:	4801      	ldr	r0, [pc, #4]	; (3b38 <sysahbclk_flashreg_enable_clock+0x8>)
    3b32:	2103      	movs	r1, #3
    3b34:	f7fd b9a0 	b.w	e78 <set_bit_one>
    3b38:	40048080 	.word	0x40048080

00003b3c <sysahbclk_flasharray_disable_clock>:
    3b3c:	4801      	ldr	r0, [pc, #4]	; (3b44 <sysahbclk_flasharray_disable_clock+0x8>)
    3b3e:	2104      	movs	r1, #4
    3b40:	f7fd b992 	b.w	e68 <set_bit_zero>
    3b44:	40048080 	.word	0x40048080

00003b48 <sysahbclk_flasharray_enable_clock>:
