
firmware.elf:     file format elf32-littlearm


Disassembly of section .text:

00000000 <_text>:
       0:	10002000 	.word	0x10002000
       4:	00000689 	.word	0x00000689
       8:	000006bd 	.word	0x000006bd
       c:	000006bf 	.word	0x000006bf
      10:	000006c1 	.word	0x000006c1
      14:	000006c3 	.word	0x000006c3
      18:	000006c5 	.word	0x000006c5
      1c:	ffffffff 	.word	0xffffffff
	...
      2c:	000006c7 	.word	0x000006c7
      30:	000006c9 	.word	0x000006c9
      34:	00000000 	.word	0x00000000
      38:	000006cb 	.word	0x000006cb
      3c:	000006cd 	.word	0x000006cd
      40:	000006cf 	.word	0x000006cf
      44:	000006cf 	.word	0x000006cf
      48:	000006cf 	.word	0x000006cf
      4c:	000006cf 	.word	0x000006cf
      50:	000006cf 	.word	0x000006cf
      54:	000006cf 	.word	0x000006cf
      58:	000006cf 	.word	0x000006cf
      5c:	000006cf 	.word	0x000006cf
      60:	000006cf 	.word	0x000006cf
      64:	000006cf 	.word	0x000006cf
      68:	000006cf 	.word	0x000006cf
      6c:	000006cf 	.word	0x000006cf
      70:	000006cf 	.word	0x000006cf
      74:	000006cf 	.word	0x000006cf
      78:	000006cf 	.word	0x000006cf
      7c:	000006cf 	.word	0x000006cf
      80:	000006cf 	.word	0x000006cf
      84:	000006cf 	.word	0x000006cf
      88:	000006cf 	.word	0x000006cf
      8c:	000006cf 	.word	0x000006cf
      90:	000006cf 	.word	0x000006cf
      94:	000006cf 	.word	0x000006cf
      98:	000006cf 	.word	0x000006cf
      9c:	000006cf 	.word	0x000006cf
      a0:	000006cf 	.word	0x000006cf
      a4:	000006cf 	.word	0x000006cf
      a8:	000006cf 	.word	0x000006cf
      ac:	000006cf 	.word	0x000006cf
      b0:	000006cf 	.word	0x000006cf
      b4:	000006cf 	.word	0x000006cf
      b8:	000006cf 	.word	0x000006cf
      bc:	000006cf 	.word	0x000006cf
      c0:	000006cf 	.word	0x000006cf
      c4:	000006cf 	.word	0x000006cf
      c8:	000006cf 	.word	0x000006cf
      cc:	000006cf 	.word	0x000006cf
      d0:	000006cf 	.word	0x000006cf
      d4:	000006cf 	.word	0x000006cf
      d8:	000006cf 	.word	0x000006cf
      dc:	000006cf 	.word	0x000006cf
      e0:	000006d1 	.word	0x000006d1
      e4:	000006d3 	.word	0x000006d3
      e8:	000006d7 	.word	0x000006d7
      ec:	000006db 	.word	0x000006db
      f0:	000006df 	.word	0x000006df
      f4:	000006e1 	.word	0x000006e1
      f8:	000006e3 	.word	0x000006e3
      fc:	000006e5 	.word	0x000006e5
     100:	000006e9 	.word	0x000006e9
     104:	000006eb 	.word	0x000006eb
     108:	000006ed 	.word	0x000006ed
     10c:	000006ef 	.word	0x000006ef
     110:	000006f1 	.word	0x000006f1
     114:	000006f3 	.word	0x000006f3
     118:	000006f5 	.word	0x000006f5
     11c:	000006f7 	.word	0x000006f7
     120:	000006f9 	.word	0x000006f9
	...
     2fc:	ffffffff 	.word	0xffffffff
	...

00000400 <board_init>:
     400:	b508      	push	{r3, lr}
     402:	f002 ff17 	bl	3234 <remap_vectors_to_flash>
     406:	f003 fd73 	bl	3ef0 <runcfg_irc_out_power_on>
     40a:	f003 fd7d 	bl	3f08 <runcfg_irc_power_on>
     40e:	f003 fd87 	bl	3f20 <runcfg_flash_power_on>
     412:	f003 fd97 	bl	3f44 <runcfg_bod_power_off>
     416:	f003 fd9b 	bl	3f50 <runcfg_adc_power_on>
     41a:	f003 fdab 	bl	3f74 <runcfg_sysosc_power_off>
     41e:	f003 fdb5 	bl	3f8c <runcfg_wdtosc_power_off>
     422:	f003 fdbf 	bl	3fa4 <runcfg_syspll_power_off>
     426:	f003 fdc9 	bl	3fbc <runcfg_usbpll_power_off>
     42a:	f003 fdcd 	bl	3fc8 <runcfg_usbphy_power_on>
     42e:	2001      	movs	r0, #1
     430:	f003 fc46 	bl	3cc0 <sysahbclk_set_divider>
     434:	f003 fc4a 	bl	3ccc <sysahbclk_ahb2apb_bridge_enable_clock>
     438:	f003 fc54 	bl	3ce4 <sysahbclk_rom_enable_clock>
     43c:	f003 fc5e 	bl	3cfc <sysahbclk_ram_enable_clock>
     440:	f003 fc68 	bl	3d14 <sysahbclk_flashreg_enable_clock>
     444:	f003 fc72 	bl	3d2c <sysahbclk_flasharray_enable_clock>
     448:	f003 fc88 	bl	3d5c <sysahbclk_gpio_enable_clock>
     44c:	f003 fc92 	bl	3d74 <sysahbclk_ct16b0_enable_clock>
     450:	f003 fc9c 	bl	3d8c <sysahbclk_ct16b1_enable_clock>
     454:	f003 fca6 	bl	3da4 <sysahbclk_ct32b0_enable_clock>
     458:	f003 fcb0 	bl	3dbc <sysahbclk_ct32b1_enable_clock>
     45c:	f003 fcb4 	bl	3dc8 <sysahbclk_ssp_disable_clock>
     460:	f003 fcbe 	bl	3de0 <sysahbclk_uart_disable_clock>
     464:	f003 fcce 	bl	3e04 <sysahbclk_adc_enable_clock>
     468:	f003 fcd8 	bl	3e1c <sysahbclk_usbreg_enable_clock>
     46c:	f003 fcdc 	bl	3e28 <sysahbclk_wdt_disable_clock>
     470:	f003 fcec 	bl	3e4c <sysahbclk_iocon_enable_clock>
     474:	f003 fafa 	bl	3a6c <sysosc_enable_1MHz_20MHz>
     478:	f003 fd76 	bl	3f68 <runcfg_sysosc_power_on>
     47c:	f44f 70fa 	mov.w	r0, #500	; 0x1f4
     480:	f000 fea4 	bl	11cc <delay_ticks>
     484:	f003 fb34 	bl	3af0 <syspll_set_clock_source_sysosc>
     488:	f44f 70fa 	mov.w	r0, #500	; 0x1f4
     48c:	f000 fe9e 	bl	11cc <delay_ticks>
     490:	f003 f8ea 	bl	3668 <syspll_set_dividers_12MHz_to_72Mhz>
     494:	f003 fd80 	bl	3f98 <runcfg_syspll_power_on>
     498:	f003 f8ed 	bl	3676 <syspll_is_locked>
     49c:	b908      	cbnz	r0, 4a2 <board_init+0xa2>
     49e:	bf00      	nop
     4a0:	e7fa      	b.n	498 <board_init+0x98>
     4a2:	f003 fbe9 	bl	3c78 <mainclk_set_clock_source_syspll_out>
     4a6:	f003 fb63 	bl	3b70 <usbpll_set_clock_source_sysosc>
     4aa:	f44f 70fa 	mov.w	r0, #500	; 0x1f4
     4ae:	f000 fe8d 	bl	11cc <delay_ticks>
     4b2:	f003 fabf 	bl	3a34 <usbpll_set_dividers_12MHz_to_48Mhz>
     4b6:	f003 fd7b 	bl	3fb0 <runcfg_usbpll_power_on>
     4ba:	f003 fac2 	bl	3a42 <usbpll_is_locked>
     4be:	b908      	cbnz	r0, 4c4 <board_init+0xc4>
     4c0:	bf00      	nop
     4c2:	e7fa      	b.n	4ba <board_init+0xba>
     4c4:	2001      	movs	r0, #1
     4c6:	f003 fd0d 	bl	3ee4 <usbclk_set_divider>
     4ca:	f44f 70fa 	mov.w	r0, #500	; 0x1f4
     4ce:	f000 fe7d 	bl	11cc <delay_ticks>
     4d2:	f003 fcc1 	bl	3e58 <usbclk_set_clock_source_usbpll_out>
     4d6:	f002 f82d 	bl	2534 <iocfg_pio3_1_set_func_gpio>
     4da:	f002 f845 	bl	2568 <iocfg_pio3_1_set_resistor_pull_up>
     4de:	f002 f857 	bl	2590 <iocfg_pio3_1_set_hysteresis_disable>
     4e2:	f002 f9db 	bl	289c <iocfg_pio3_2_set_func_gpio>
     4e6:	f002 f9f3 	bl	28d0 <iocfg_pio3_2_set_resistor_pull_up>
     4ea:	f002 fa05 	bl	28f8 <iocfg_pio3_2_set_hysteresis_disable>
     4ee:	f002 fb11 	bl	2b14 <iocfg_pio3_3_set_func_gpio>
     4f2:	f002 fb29 	bl	2b48 <iocfg_pio3_3_set_resistor_pull_up>
     4f6:	f002 fb3b 	bl	2b70 <iocfg_pio3_3_set_hysteresis_disable>
     4fa:	f001 fce5 	bl	1ec8 <iocfg_pio0_10_set_func_gpio>
     4fe:	f001 fd27 	bl	1f50 <iocfg_pio0_10_set_resistor_pull_up>
     502:	f001 fd39 	bl	1f78 <iocfg_pio0_10_set_hysteresis_disable>
     506:	f001 f9ff 	bl	1908 <iocfg_pio1_9_set_func_gpio>
     50a:	f001 fa25 	bl	1958 <iocfg_pio1_9_set_resistor_pull_up>
     50e:	f001 fa37 	bl	1980 <iocfg_pio1_9_set_hysteresis_disable>
     512:	f001 fd3d 	bl	1f90 <iocfg_pio1_10_set_func_gpio>
     516:	f001 fd81 	bl	201c <iocfg_pio1_10_set_resistor_pull_up>
     51a:	f001 fd93 	bl	2044 <iocfg_pio1_10_set_hysteresis_disable>
     51e:	f002 f969 	bl	27f4 <iocfg_pio1_11_set_func_gpio>
     522:	f002 f99b 	bl	285c <iocfg_pio1_11_set_resistor_pull_up>
     526:	f002 f9ad 	bl	2884 <iocfg_pio1_11_set_hysteresis_disable>
     52a:	f000 fed7 	bl	12dc <iocfg_pio2_0_set_func_gpio>
     52e:	f000 fefd 	bl	132c <iocfg_pio2_0_set_resistor_pull_up>
     532:	f000 ff0f 	bl	1354 <iocfg_pio2_0_set_hysteresis_disable>
     536:	f001 f8d7 	bl	16e8 <iocfg_pio2_1_set_func_gpio>
     53a:	f001 f8fd 	bl	1738 <iocfg_pio2_1_set_resistor_pull_up>
     53e:	f001 f90f 	bl	1760 <iocfg_pio2_1_set_hysteresis_disable>
     542:	f001 fbb9 	bl	1cb8 <iocfg_pio2_2_set_func_gpio>
     546:	f001 fbdf 	bl	1d08 <iocfg_pio2_2_set_resistor_pull_up>
     54a:	f001 fbf1 	bl	1d30 <iocfg_pio2_2_set_hysteresis_disable>
     54e:	f002 f82b 	bl	25a8 <iocfg_pio2_3_set_func_gpio>
     552:	f002 f851 	bl	25f8 <iocfg_pio2_3_set_resistor_pull_up>
     556:	f002 f863 	bl	2620 <iocfg_pio2_3_set_hysteresis_disable>
     55a:	f001 fa1d 	bl	1998 <iocfg_pio2_4_set_func_gpio>
     55e:	f001 fa35 	bl	19cc <iocfg_pio2_4_set_resistor_pull_up>
     562:	f001 fa47 	bl	19f4 <iocfg_pio2_4_set_hysteresis_disable>
     566:	f001 fa51 	bl	1a0c <iocfg_pio2_5_set_func_gpio>
     56a:	f001 fa69 	bl	1a40 <iocfg_pio2_5_set_resistor_pull_up>
     56e:	f001 fa7b 	bl	1a68 <iocfg_pio2_5_set_hysteresis_disable>
     572:	f000 fe79 	bl	1268 <iocfg_pio2_6_set_func_gpio>
     576:	f000 fe91 	bl	129c <iocfg_pio2_6_set_resistor_pull_up>
     57a:	f000 fea3 	bl	12c4 <iocfg_pio2_6_set_hysteresis_disable>
     57e:	f001 f83f 	bl	1600 <iocfg_pio2_7_set_func_gpio>
     582:	f001 f857 	bl	1634 <iocfg_pio2_7_set_resistor_pull_up>
     586:	f001 f869 	bl	165c <iocfg_pio2_7_set_hysteresis_disable>
     58a:	f001 f873 	bl	1674 <iocfg_pio2_8_set_func_gpio>
     58e:	f001 f88b 	bl	16a8 <iocfg_pio2_8_set_resistor_pull_up>
     592:	f001 f89d 	bl	16d0 <iocfg_pio2_8_set_hysteresis_disable>
     596:	f001 fb1b 	bl	1bd0 <iocfg_pio2_9_set_func_gpio>
     59a:	f001 fb33 	bl	1c04 <iocfg_pio2_9_set_resistor_pull_up>
     59e:	f001 fb45 	bl	1c2c <iocfg_pio2_9_set_hysteresis_disable>
     5a2:	f001 fe33 	bl	220c <iocfg_pio1_0_set_func_gpio>
     5a6:	f001 fe7b 	bl	22a0 <iocfg_pio1_0_set_resistor_pull_up>
     5aa:	f001 fe8d 	bl	22c8 <iocfg_pio1_0_set_hysteresis_disable>
     5ae:	f001 fea5 	bl	22fc <iocfg_pio1_1_set_func_gpio>
     5b2:	f001 feed 	bl	2390 <iocfg_pio1_1_set_resistor_pull_up>
     5b6:	f001 feff 	bl	23b8 <iocfg_pio1_1_set_hysteresis_disable>
     5ba:	f001 ff17 	bl	23ec <iocfg_pio1_2_set_func_gpio>
     5be:	f001 ff5f 	bl	2480 <iocfg_pio1_2_set_resistor_pull_up>
     5c2:	f001 ff71 	bl	24a8 <iocfg_pio1_2_set_hysteresis_disable>
     5c6:	f002 f845 	bl	2654 <iocfg_pio1_3_set_func_gpio>
     5ca:	f002 f88d 	bl	26e8 <iocfg_pio1_3_set_resistor_pull_up>
     5ce:	f002 f89f 	bl	2710 <iocfg_pio1_3_set_hysteresis_disable>
     5d2:	f002 f8a9 	bl	2728 <iocfg_pio1_4_set_func_gpio>
     5d6:	f002 f8ed 	bl	27b4 <iocfg_pio1_4_set_resistor_pull_up>
     5da:	f002 f8ff 	bl	27dc <iocfg_pio1_4_set_hysteresis_disable>
     5de:	f002 f997 	bl	2910 <iocfg_pio1_5_set_func_gpio>
     5e2:	f002 f9cb 	bl	297c <iocfg_pio1_5_set_resistor_pull_up>
     5e6:	f002 f9dd 	bl	29a4 <iocfg_pio1_5_set_hysteresis_disable>
     5ea:	f002 f9e7 	bl	29bc <iocfg_pio1_6_set_func_gpio>
     5ee:	f002 fa1b 	bl	2a28 <iocfg_pio1_6_set_resistor_pull_up>
     5f2:	f002 fa2d 	bl	2a50 <iocfg_pio1_6_set_hysteresis_disable>
     5f6:	f002 fa37 	bl	2a68 <iocfg_pio1_7_set_func_gpio>
     5fa:	f002 fa6b 	bl	2ad4 <iocfg_pio1_7_set_resistor_pull_up>
     5fe:	f002 fa7d 	bl	2afc <iocfg_pio1_7_set_hysteresis_disable>
     602:	f000 ff5f 	bl	14c4 <iocfg_pio1_8_set_func_gpio>
     606:	f000 ff85 	bl	1514 <iocfg_pio1_8_set_resistor_pull_up>
     60a:	f000 ff97 	bl	153c <iocfg_pio1_8_set_hysteresis_disable>
     60e:	f001 ff57 	bl	24c0 <iocfg_pio3_0_set_func_gpio>
     612:	f001 ff6f 	bl	24f4 <iocfg_pio3_0_set_resistor_pull_up>
     616:	f001 ff81 	bl	251c <iocfg_pio3_0_set_hysteresis_disable>
     61a:	f001 fb13 	bl	1c44 <iocfg_pio2_10_set_func_gpio>
     61e:	f001 fb2b 	bl	1c78 <iocfg_pio2_10_set_resistor_pull_up>
     622:	f001 fb3d 	bl	1ca0 <iocfg_pio2_10_set_hysteresis_disable>
     626:	f001 f92f 	bl	1888 <iocfg_pio0_5_set_func_gpio>
     62a:	f001 fd17 	bl	205c <iocfg_pio2_11_set_func_gpio>
     62e:	f001 fd47 	bl	20c0 <iocfg_pio2_11_set_resistor_pull_up>
     632:	f001 fd59 	bl	20e8 <iocfg_pio2_11_set_hysteresis_disable>
     636:	f001 fa83 	bl	1b40 <iocfg_pio0_7_set_func_gpio>
     63a:	f001 faa9 	bl	1b90 <iocfg_pio0_7_set_resistor_pull_up>
     63e:	f001 fabb 	bl	1bb8 <iocfg_pio0_7_set_hysteresis_disable>
     642:	f001 fb81 	bl	1d48 <iocfg_pio0_8_set_func_gpio>
     646:	f001 fbb5 	bl	1db4 <iocfg_pio0_8_set_resistor_pull_up>
     64a:	f001 fbc7 	bl	1ddc <iocfg_pio0_8_set_hysteresis_disable>
     64e:	f001 fbd1 	bl	1df4 <iocfg_pio0_9_set_func_gpio>
     652:	f001 fc13 	bl	1e7c <iocfg_pio0_9_set_resistor_pull_up>
     656:	f001 fc25 	bl	1ea4 <iocfg_pio0_9_set_hysteresis_disable>
     65a:	f001 fd71 	bl	2140 <iocfg_pio0_11_set_func_ad0>
     65e:	f001 fd93 	bl	2188 <iocfg_pio0_11_set_resistor_none>
     662:	f001 fdb9 	bl	21d8 <iocfg_pio0_11_set_hysteresis_disable>
     666:	f001 f88d 	bl	1784 <iocfg_pio0_3_set_func_usb_vbus>
     66a:	f001 f8ad 	bl	17c8 <iocfg_pio0_3_set_resistor_pull_up>
     66e:	f001 f8bf 	bl	17f0 <iocfg_pio0_3_set_hysteresis_disable>
     672:	f002 fb6e 	bl	2d52 <init_leds>
     676:	f002 fdbb 	bl	31f0 <init_switches>
     67a:	f000 fd16 	bl	10aa <init_buttons>
     67e:	e8bd 4008 	ldmia.w	sp!, {r3, lr}
     682:	f003 bd41 	b.w	4108 <usbdrvrom_init_connect>
	...

00000688 <reset_handler>:
     688:	4807      	ldr	r0, [pc, #28]	; (6a8 <reset_handler+0x20>)
     68a:	4a08      	ldr	r2, [pc, #32]	; (6ac <reset_handler+0x24>)
     68c:	b508      	push	{r3, lr}
     68e:	4908      	ldr	r1, [pc, #32]	; (6b0 <reset_handler+0x28>)
     690:	1a12      	subs	r2, r2, r0
     692:	f002 fd93 	bl	31bc <memcpy>
     696:	4807      	ldr	r0, [pc, #28]	; (6b4 <reset_handler+0x2c>)
     698:	4a07      	ldr	r2, [pc, #28]	; (6b8 <reset_handler+0x30>)
     69a:	2100      	movs	r1, #0
     69c:	1a12      	subs	r2, r2, r0
     69e:	f002 fd85 	bl	31ac <memset>
     6a2:	f000 f82b 	bl	6fc <main>
     6a6:	e7fe      	b.n	6a6 <reset_handler+0x1e>
     6a8:	10000000 	.word	0x10000000
     6ac:	10000198 	.word	0x10000198
     6b0:	00004c04 	.word	0x00004c04
     6b4:	10000198 	.word	0x10000198
     6b8:	10000398 	.word	0x10000398

000006bc <nmi_handler>:
     6bc:	4770      	bx	lr

000006be <hard_fault_handler>:
     6be:	4770      	bx	lr

000006c0 <mem_manager_handler>:
     6c0:	4770      	bx	lr

000006c2 <bus_fault_handler>:
     6c2:	4770      	bx	lr

000006c4 <usage_fault_handler>:
     6c4:	4770      	bx	lr

000006c6 <sv_call_handler>:
     6c6:	4770      	bx	lr

000006c8 <debug_mon_handler>:
     6c8:	4770      	bx	lr

000006ca <pend_sv_handler>:
     6ca:	4770      	bx	lr

000006cc <sys_tick_handler>:
     6cc:	4770      	bx	lr

000006ce <wakeup_irq_handler>:
     6ce:	4770      	bx	lr

000006d0 <i2c_irq_handler>:
     6d0:	4770      	bx	lr

000006d2 <timer16_0_irq_handler>:
     6d2:	f000 bc3f 	b.w	f54 <timer16_0_irqhandler>

000006d6 <timer16_1_irq_handler>:
     6d6:	f000 bc45 	b.w	f64 <timer16_1_irqhandler>

000006da <timer32_0_irq_handler>:
     6da:	f000 bc4b 	b.w	f74 <timer32_0_irqhandler>

000006de <timer32_1_irq_handler>:
     6de:	4770      	bx	lr

000006e0 <ssp_irq_handler>:
     6e0:	4770      	bx	lr

000006e2 <uart_irq_handler>:
     6e2:	4770      	bx	lr

000006e4 <usb_irq_handler>:
     6e4:	f003 bcf2 	b.w	40cc <usbdrvrom_isr>

000006e8 <usb_fiq_handler>:
     6e8:	4770      	bx	lr

000006ea <adc_irq_handler>:
     6ea:	4770      	bx	lr

000006ec <wdt_irq_handler>:
     6ec:	4770      	bx	lr

000006ee <bod_irq_handler>:
     6ee:	4770      	bx	lr

000006f0 <fmc_irq_handler>:
     6f0:	4770      	bx	lr

000006f2 <pio_int3_irq_handler>:
     6f2:	4770      	bx	lr

000006f4 <pio_int2_irq_handler>:
     6f4:	4770      	bx	lr

000006f6 <pio_int1_irq_handler>:
     6f6:	4770      	bx	lr

000006f8 <pio_int0_irq_handler>:
     6f8:	4770      	bx	lr
     6fa:	bf00      	nop

000006fc <main>:
     6fc:	b508      	push	{r3, lr}
     6fe:	f7ff fe7f 	bl	400 <board_init>
     702:	f000 fbef 	bl	ee4 <init_threads>
     706:	f000 fc14 	bl	f32 <loop_main_thread>
     70a:	2000      	movs	r0, #0
     70c:	bd08      	pop	{r3, pc}

0000070e <bit_reader_init>:
     70e:	08d3      	lsrs	r3, r2, #3
     710:	6001      	str	r1, [r0, #0]
     712:	0751      	lsls	r1, r2, #29
     714:	bf18      	it	ne
     716:	3301      	addne	r3, #1
     718:	6043      	str	r3, [r0, #4]
     71a:	6082      	str	r2, [r0, #8]
     71c:	2300      	movs	r3, #0
     71e:	2208      	movs	r2, #8
     720:	60c3      	str	r3, [r0, #12]
     722:	7502      	strb	r2, [r0, #20]
     724:	6103      	str	r3, [r0, #16]
     726:	4770      	bx	lr

00000728 <bit_reader_read_bits>:
     728:	4603      	mov	r3, r0
     72a:	2908      	cmp	r1, #8
     72c:	f04f 0000 	mov.w	r0, #0
     730:	b5f0      	push	{r4, r5, r6, r7, lr}
     732:	7010      	strb	r0, [r2, #0]
     734:	d802      	bhi.n	73c <bit_reader_read_bits+0x14>
     736:	b911      	cbnz	r1, 73e <bit_reader_read_bits+0x16>
     738:	2100      	movs	r1, #0
     73a:	e048      	b.n	7ce <bit_reader_read_bits+0xa6>
     73c:	2108      	movs	r1, #8
     73e:	691d      	ldr	r5, [r3, #16]
     740:	6898      	ldr	r0, [r3, #8]
     742:	4285      	cmp	r5, r0
     744:	d2f8      	bcs.n	738 <bit_reader_read_bits+0x10>
     746:	1b40      	subs	r0, r0, r5
     748:	4281      	cmp	r1, r0
     74a:	bf88      	it	hi
     74c:	b2c1      	uxtbhi	r1, r0
     74e:	7d18      	ldrb	r0, [r3, #20]
     750:	b938      	cbnz	r0, 762 <bit_reader_read_bits+0x3a>
     752:	68d8      	ldr	r0, [r3, #12]
     754:	685c      	ldr	r4, [r3, #4]
     756:	3001      	adds	r0, #1
     758:	42a0      	cmp	r0, r4
     75a:	d202      	bcs.n	762 <bit_reader_read_bits+0x3a>
     75c:	60d8      	str	r0, [r3, #12]
     75e:	2008      	movs	r0, #8
     760:	7518      	strb	r0, [r3, #20]
     762:	7d18      	ldrb	r0, [r3, #20]
     764:	2800      	cmp	r0, #0
     766:	d0e7      	beq.n	738 <bit_reader_read_bits+0x10>
     768:	4281      	cmp	r1, r0
     76a:	68dc      	ldr	r4, [r3, #12]
     76c:	685e      	ldr	r6, [r3, #4]
     76e:	d91d      	bls.n	7ac <bit_reader_read_bits+0x84>
     770:	42b4      	cmp	r4, r6
     772:	d2e1      	bcs.n	738 <bit_reader_read_bits+0x10>
     774:	681f      	ldr	r7, [r3, #0]
     776:	f817 c004 	ldrb.w	ip, [r7, r4]
     77a:	3401      	adds	r4, #1
     77c:	42b4      	cmp	r4, r6
     77e:	d2db      	bcs.n	738 <bit_reader_read_bits+0x10>
     780:	f100 0608 	add.w	r6, r0, #8
     784:	f1c0 0008 	rsb	r0, r0, #8
     788:	fa0c f000 	lsl.w	r0, ip, r0
     78c:	1a76      	subs	r6, r6, r1
     78e:	b2f6      	uxtb	r6, r6
     790:	751e      	strb	r6, [r3, #20]
     792:	60dc      	str	r4, [r3, #12]
     794:	5d3c      	ldrb	r4, [r7, r4]
     796:	b2c0      	uxtb	r0, r0
     798:	fa44 f606 	asr.w	r6, r4, r6
     79c:	f1c1 0408 	rsb	r4, r1, #8
     7a0:	4120      	asrs	r0, r4
     7a2:	440d      	add	r5, r1
     7a4:	4306      	orrs	r6, r0
     7a6:	611d      	str	r5, [r3, #16]
     7a8:	7016      	strb	r6, [r2, #0]
     7aa:	e010      	b.n	7ce <bit_reader_read_bits+0xa6>
     7ac:	42b4      	cmp	r4, r6
     7ae:	d2c3      	bcs.n	738 <bit_reader_read_bits+0x10>
     7b0:	681e      	ldr	r6, [r3, #0]
     7b2:	440d      	add	r5, r1
     7b4:	5d36      	ldrb	r6, [r6, r4]
     7b6:	f1c0 0408 	rsb	r4, r0, #8
     7ba:	fa06 f404 	lsl.w	r4, r6, r4
     7be:	f1c1 0608 	rsb	r6, r1, #8
     7c2:	b2e4      	uxtb	r4, r4
     7c4:	4134      	asrs	r4, r6
     7c6:	1a40      	subs	r0, r0, r1
     7c8:	7518      	strb	r0, [r3, #20]
     7ca:	611d      	str	r5, [r3, #16]
     7cc:	7014      	strb	r4, [r2, #0]
     7ce:	4608      	mov	r0, r1
     7d0:	bdf0      	pop	{r4, r5, r6, r7, pc}

000007d2 <bit_reader_bit_count>:
     7d2:	6880      	ldr	r0, [r0, #8]
     7d4:	4770      	bx	lr

000007d6 <bit_reader_rest_bit_count>:
     7d6:	6882      	ldr	r2, [r0, #8]
     7d8:	6900      	ldr	r0, [r0, #16]
     7da:	1a10      	subs	r0, r2, r0
     7dc:	4770      	bx	lr

000007de <frame_decompressor_init>:
     7de:	b513      	push	{r0, r1, r4, lr}
     7e0:	780b      	ldrb	r3, [r1, #0]
     7e2:	3104      	adds	r1, #4
     7e4:	f88d 3004 	strb.w	r3, [sp, #4]
     7e8:	f811 3c03 	ldrb.w	r3, [r1, #-3]
     7ec:	4604      	mov	r4, r0
     7ee:	f88d 3005 	strb.w	r3, [sp, #5]
     7f2:	f811 3c02 	ldrb.w	r3, [r1, #-2]
     7f6:	f88d 3006 	strb.w	r3, [sp, #6]
     7fa:	f811 3c01 	ldrb.w	r3, [r1, #-1]
     7fe:	f88d 3007 	strb.w	r3, [sp, #7]
     802:	9a01      	ldr	r2, [sp, #4]
     804:	f7ff ff83 	bl	70e <bit_reader_init>
     808:	2300      	movs	r3, #0
     80a:	4619      	mov	r1, r3
     80c:	18e2      	adds	r2, r4, r3
     80e:	3301      	adds	r3, #1
     810:	2b20      	cmp	r3, #32
     812:	7611      	strb	r1, [r2, #24]
     814:	d1fa      	bne.n	80c <frame_decompressor_init+0x2e>
     816:	b002      	add	sp, #8
     818:	bd10      	pop	{r4, pc}

0000081a <frame_decompressor_get_next_frame>:
     81a:	e92d 43f0 	stmdb	sp!, {r4, r5, r6, r7, r8, r9, lr}
     81e:	2300      	movs	r3, #0
     820:	b08b      	sub	sp, #44	; 0x2c
     822:	4604      	mov	r4, r0
     824:	4688      	mov	r8, r1
     826:	461a      	mov	r2, r3
     828:	f808 2003 	strb.w	r2, [r8, r3]
     82c:	3301      	adds	r3, #1
     82e:	2b20      	cmp	r3, #32
     830:	d1fa      	bne.n	828 <frame_decompressor_get_next_frame+0xe>
     832:	2300      	movs	r3, #0
     834:	ae02      	add	r6, sp, #8
     836:	461a      	mov	r2, r3
     838:	559a      	strb	r2, [r3, r6]
     83a:	3301      	adds	r3, #1
     83c:	2b20      	cmp	r3, #32
     83e:	d1fb      	bne.n	838 <frame_decompressor_get_next_frame+0x1e>
     840:	4620      	mov	r0, r4
     842:	f7ff ffc8 	bl	7d6 <bit_reader_rest_bit_count>
     846:	2801      	cmp	r0, #1
     848:	d801      	bhi.n	84e <frame_decompressor_get_next_frame+0x34>
     84a:	2000      	movs	r0, #0
     84c:	e0d8      	b.n	a00 <frame_decompressor_get_next_frame+0x1e6>
     84e:	aa0a      	add	r2, sp, #40	; 0x28
     850:	2300      	movs	r3, #0
     852:	f802 3d24 	strb.w	r3, [r2, #-36]!
     856:	4620      	mov	r0, r4
     858:	2102      	movs	r1, #2
     85a:	f7ff ff65 	bl	728 <bit_reader_read_bits>
     85e:	2802      	cmp	r0, #2
     860:	d1f3      	bne.n	84a <frame_decompressor_get_next_frame+0x30>
     862:	f89d 3004 	ldrb.w	r3, [sp, #4]
     866:	2b03      	cmp	r3, #3
     868:	d8ef      	bhi.n	84a <frame_decompressor_get_next_frame+0x30>
     86a:	e8df f003 	tbb	[pc, r3]
     86e:	0902      	.short	0x0902
     870:	8d4b      	.short	0x8d4b
     872:	2300      	movs	r3, #0
     874:	461a      	mov	r2, r3
     876:	54f2      	strb	r2, [r6, r3]
     878:	3301      	adds	r3, #1
     87a:	2b20      	cmp	r3, #32
     87c:	d1fb      	bne.n	876 <frame_decompressor_get_next_frame+0x5c>
     87e:	e0ab      	b.n	9d8 <frame_decompressor_get_next_frame+0x1be>
     880:	2500      	movs	r5, #0
     882:	462b      	mov	r3, r5
     884:	5573      	strb	r3, [r6, r5]
     886:	3501      	adds	r5, #1
     888:	2d20      	cmp	r5, #32
     88a:	d1fb      	bne.n	884 <frame_decompressor_get_next_frame+0x6a>
     88c:	4620      	mov	r0, r4
     88e:	f7ff ffa2 	bl	7d6 <bit_reader_rest_bit_count>
     892:	280c      	cmp	r0, #12
     894:	d9d9      	bls.n	84a <frame_decompressor_get_next_frame+0x30>
     896:	462f      	mov	r7, r5
     898:	2500      	movs	r5, #0
     89a:	46a9      	mov	r9, r5
     89c:	4620      	mov	r0, r4
     89e:	f7ff ff9a 	bl	7d6 <bit_reader_rest_bit_count>
     8a2:	280c      	cmp	r0, #12
     8a4:	d9d1      	bls.n	84a <frame_decompressor_get_next_frame+0x30>
     8a6:	4620      	mov	r0, r4
     8a8:	2105      	movs	r1, #5
     8aa:	f10d 0206 	add.w	r2, sp, #6
     8ae:	f88d 9006 	strb.w	r9, [sp, #6]
     8b2:	f7ff ff39 	bl	728 <bit_reader_read_bits>
     8b6:	2805      	cmp	r0, #5
     8b8:	d122      	bne.n	900 <frame_decompressor_get_next_frame+0xe6>
     8ba:	f89d 3006 	ldrb.w	r3, [sp, #6]
     8be:	4620      	mov	r0, r4
     8c0:	3301      	adds	r3, #1
     8c2:	2108      	movs	r1, #8
     8c4:	f10d 0207 	add.w	r2, sp, #7
     8c8:	f88d 3006 	strb.w	r3, [sp, #6]
     8cc:	f88d 9007 	strb.w	r9, [sp, #7]
     8d0:	f7ff ff2a 	bl	728 <bit_reader_read_bits>
     8d4:	2808      	cmp	r0, #8
     8d6:	d113      	bne.n	900 <frame_decompressor_get_next_frame+0xe6>
     8d8:	f89d 2006 	ldrb.w	r2, [sp, #6]
     8dc:	f89d 1007 	ldrb.w	r1, [sp, #7]
     8e0:	2300      	movs	r3, #0
     8e2:	4293      	cmp	r3, r2
     8e4:	da08      	bge.n	8f8 <frame_decompressor_get_next_frame+0xde>
     8e6:	2d1f      	cmp	r5, #31
     8e8:	dc04      	bgt.n	8f4 <frame_decompressor_get_next_frame+0xda>
     8ea:	a80a      	add	r0, sp, #40	; 0x28
     8ec:	4428      	add	r0, r5
     8ee:	f800 1c20 	strb.w	r1, [r0, #-32]
     8f2:	3501      	adds	r5, #1
     8f4:	3301      	adds	r3, #1
     8f6:	e7f4      	b.n	8e2 <frame_decompressor_get_next_frame+0xc8>
     8f8:	3f01      	subs	r7, #1
     8fa:	d001      	beq.n	900 <frame_decompressor_get_next_frame+0xe6>
     8fc:	2d1f      	cmp	r5, #31
     8fe:	ddcd      	ble.n	89c <frame_decompressor_get_next_frame+0x82>
     900:	2d20      	cmp	r5, #32
     902:	e063      	b.n	9cc <frame_decompressor_get_next_frame+0x1b2>
     904:	2300      	movs	r3, #0
     906:	461a      	mov	r2, r3
     908:	54f2      	strb	r2, [r6, r3]
     90a:	3301      	adds	r3, #1
     90c:	2b20      	cmp	r3, #32
     90e:	f04f 0500 	mov.w	r5, #0
     912:	d1f9      	bne.n	908 <frame_decompressor_get_next_frame+0xee>
     914:	4620      	mov	r0, r4
     916:	f7ff ff5e 	bl	7d6 <bit_reader_rest_bit_count>
     91a:	2811      	cmp	r0, #17
     91c:	d995      	bls.n	84a <frame_decompressor_get_next_frame+0x30>
     91e:	aa0a      	add	r2, sp, #40	; 0x28
     920:	f802 5d23 	strb.w	r5, [r2, #-35]!
     924:	4620      	mov	r0, r4
     926:	2105      	movs	r1, #5
     928:	f7ff fefe 	bl	728 <bit_reader_read_bits>
     92c:	2805      	cmp	r0, #5
     92e:	d18c      	bne.n	84a <frame_decompressor_get_next_frame+0x30>
     930:	f89d 9005 	ldrb.w	r9, [sp, #5]
     934:	462f      	mov	r7, r5
     936:	f109 0901 	add.w	r9, r9, #1
     93a:	4620      	mov	r0, r4
     93c:	2105      	movs	r1, #5
     93e:	f10d 0206 	add.w	r2, sp, #6
     942:	f88d 7006 	strb.w	r7, [sp, #6]
     946:	f88d 7007 	strb.w	r7, [sp, #7]
     94a:	f7ff feed 	bl	728 <bit_reader_read_bits>
     94e:	2805      	cmp	r0, #5
     950:	d001      	beq.n	956 <frame_decompressor_get_next_frame+0x13c>
     952:	2300      	movs	r3, #0
     954:	e012      	b.n	97c <frame_decompressor_get_next_frame+0x162>
     956:	4620      	mov	r0, r4
     958:	2108      	movs	r1, #8
     95a:	f10d 0207 	add.w	r2, sp, #7
     95e:	f7ff fee3 	bl	728 <bit_reader_read_bits>
     962:	2808      	cmp	r0, #8
     964:	d1f5      	bne.n	952 <frame_decompressor_get_next_frame+0x138>
     966:	f89d 3006 	ldrb.w	r3, [sp, #6]
     96a:	2b1f      	cmp	r3, #31
     96c:	d8f1      	bhi.n	952 <frame_decompressor_get_next_frame+0x138>
     96e:	aa0a      	add	r2, sp, #40	; 0x28
     970:	4413      	add	r3, r2
     972:	f89d 2007 	ldrb.w	r2, [sp, #7]
     976:	f803 2c20 	strb.w	r2, [r3, #-32]
     97a:	2301      	movs	r3, #1
     97c:	3501      	adds	r5, #1
     97e:	454d      	cmp	r5, r9
     980:	d227      	bcs.n	9d2 <frame_decompressor_get_next_frame+0x1b8>
     982:	2b00      	cmp	r3, #0
     984:	d1d9      	bne.n	93a <frame_decompressor_get_next_frame+0x120>
     986:	e760      	b.n	84a <frame_decompressor_get_next_frame+0x30>
     988:	2500      	movs	r5, #0
     98a:	462b      	mov	r3, r5
     98c:	5573      	strb	r3, [r6, r5]
     98e:	3501      	adds	r5, #1
     990:	2d20      	cmp	r5, #32
     992:	d1fb      	bne.n	98c <frame_decompressor_get_next_frame+0x172>
     994:	4620      	mov	r0, r4
     996:	f7ff ff1e 	bl	7d6 <bit_reader_rest_bit_count>
     99a:	28ff      	cmp	r0, #255	; 0xff
     99c:	f67f af55 	bls.w	84a <frame_decompressor_get_next_frame+0x30>
     9a0:	2700      	movs	r7, #0
     9a2:	46b9      	mov	r9, r7
     9a4:	4620      	mov	r0, r4
     9a6:	2108      	movs	r1, #8
     9a8:	f10d 0207 	add.w	r2, sp, #7
     9ac:	f88d 9007 	strb.w	r9, [sp, #7]
     9b0:	f7ff feba 	bl	728 <bit_reader_read_bits>
     9b4:	2808      	cmp	r0, #8
     9b6:	d106      	bne.n	9c6 <frame_decompressor_get_next_frame+0x1ac>
     9b8:	ab0a      	add	r3, sp, #40	; 0x28
     9ba:	f89d 2007 	ldrb.w	r2, [sp, #7]
     9be:	443b      	add	r3, r7
     9c0:	f803 2c20 	strb.w	r2, [r3, #-32]
     9c4:	3701      	adds	r7, #1
     9c6:	3d01      	subs	r5, #1
     9c8:	d1ec      	bne.n	9a4 <frame_decompressor_get_next_frame+0x18a>
     9ca:	2f20      	cmp	r7, #32
     9cc:	f47f af3d 	bne.w	84a <frame_decompressor_get_next_frame+0x30>
     9d0:	e002      	b.n	9d8 <frame_decompressor_get_next_frame+0x1be>
     9d2:	2b00      	cmp	r3, #0
     9d4:	f43f af39 	beq.w	84a <frame_decompressor_get_next_frame+0x30>
     9d8:	f104 0018 	add.w	r0, r4, #24
     9dc:	2300      	movs	r3, #0
     9de:	5cc1      	ldrb	r1, [r0, r3]
     9e0:	5cf2      	ldrb	r2, [r6, r3]
     9e2:	440a      	add	r2, r1
     9e4:	f808 2003 	strb.w	r2, [r8, r3]
     9e8:	3301      	adds	r3, #1
     9ea:	2b20      	cmp	r3, #32
     9ec:	d1f7      	bne.n	9de <frame_decompressor_get_next_frame+0x1c4>
     9ee:	2300      	movs	r3, #0
     9f0:	f818 1003 	ldrb.w	r1, [r8, r3]
     9f4:	18e2      	adds	r2, r4, r3
     9f6:	3301      	adds	r3, #1
     9f8:	2b20      	cmp	r3, #32
     9fa:	7611      	strb	r1, [r2, #24]
     9fc:	d1f8      	bne.n	9f0 <frame_decompressor_get_next_frame+0x1d6>
     9fe:	2001      	movs	r0, #1
     a00:	b00b      	add	sp, #44	; 0x2c
     a02:	e8bd 83f0 	ldmia.w	sp!, {r4, r5, r6, r7, r8, r9, pc}
	...

00000a08 <scene_bright_up>:
     a08:	b508      	push	{r3, lr}
     a0a:	f002 fb8b 	bl	3124 <led_matrix_fsm_get_global_bright>
     a0e:	e8bd 4008 	ldmia.w	sp!, {r3, lr}
     a12:	3001      	adds	r0, #1
     a14:	f002 bb7a 	b.w	310c <led_matrix_fsm_set_global_bright>

00000a18 <scene_bright_down>:
     a18:	b508      	push	{r3, lr}
     a1a:	f002 fb83 	bl	3124 <led_matrix_fsm_get_global_bright>
     a1e:	e8bd 4008 	ldmia.w	sp!, {r3, lr}
     a22:	3801      	subs	r0, #1
     a24:	f002 bb72 	b.w	310c <led_matrix_fsm_set_global_bright>

00000a28 <scene_speed_get_mult>:
     a28:	4b01      	ldr	r3, [pc, #4]	; (a30 <scene_speed_get_mult+0x8>)
     a2a:	6818      	ldr	r0, [r3, #0]
     a2c:	4770      	bx	lr
     a2e:	bf00      	nop
     a30:	10000190 	.word	0x10000190

00000a34 <scene_speed_up>:
     a34:	4b04      	ldr	r3, [pc, #16]	; (a48 <scene_speed_up+0x14>)
     a36:	681a      	ldr	r2, [r3, #0]
     a38:	3a01      	subs	r2, #1
     a3a:	601a      	str	r2, [r3, #0]
     a3c:	681a      	ldr	r2, [r3, #0]
     a3e:	2a00      	cmp	r2, #0
     a40:	bfdc      	itt	le
     a42:	2201      	movle	r2, #1
     a44:	601a      	strle	r2, [r3, #0]
     a46:	4770      	bx	lr
     a48:	10000190 	.word	0x10000190

00000a4c <scene_speed_down>:
     a4c:	4b04      	ldr	r3, [pc, #16]	; (a60 <scene_speed_down+0x14>)
     a4e:	681a      	ldr	r2, [r3, #0]
     a50:	3201      	adds	r2, #1
     a52:	601a      	str	r2, [r3, #0]
     a54:	681a      	ldr	r2, [r3, #0]
     a56:	2a14      	cmp	r2, #20
     a58:	bfc4      	itt	gt
     a5a:	2214      	movgt	r2, #20
     a5c:	601a      	strgt	r2, [r3, #0]
     a5e:	4770      	bx	lr
     a60:	10000190 	.word	0x10000190

00000a64 <get_new_program_flag>:
     a64:	4b01      	ldr	r3, [pc, #4]	; (a6c <get_new_program_flag+0x8>)
     a66:	6818      	ldr	r0, [r3, #0]
     a68:	4770      	bx	lr
     a6a:	bf00      	nop
     a6c:	10000198 	.word	0x10000198

00000a70 <reset_new_program_flag>:
     a70:	4b01      	ldr	r3, [pc, #4]	; (a78 <reset_new_program_flag+0x8>)
     a72:	2200      	movs	r2, #0
     a74:	601a      	str	r2, [r3, #0]
     a76:	4770      	bx	lr
     a78:	10000198 	.word	0x10000198

00000a7c <scene_program_get_index>:
     a7c:	4b01      	ldr	r3, [pc, #4]	; (a84 <scene_program_get_index+0x8>)
     a7e:	6858      	ldr	r0, [r3, #4]
     a80:	4770      	bx	lr
     a82:	bf00      	nop
     a84:	10000198 	.word	0x10000198

00000a88 <scene_program_up>:
     a88:	4b06      	ldr	r3, [pc, #24]	; (aa4 <scene_program_up+0x1c>)
     a8a:	685a      	ldr	r2, [r3, #4]
     a8c:	3201      	adds	r2, #1
     a8e:	605a      	str	r2, [r3, #4]
     a90:	4a05      	ldr	r2, [pc, #20]	; (aa8 <scene_program_up+0x20>)
     a92:	6859      	ldr	r1, [r3, #4]
     a94:	6812      	ldr	r2, [r2, #0]
     a96:	3a01      	subs	r2, #1
     a98:	4291      	cmp	r1, r2
     a9a:	bf28      	it	cs
     a9c:	605a      	strcs	r2, [r3, #4]
     a9e:	2201      	movs	r2, #1
     aa0:	601a      	str	r2, [r3, #0]
     aa2:	4770      	bx	lr
     aa4:	10000198 	.word	0x10000198
     aa8:	00004174 	.word	0x00004174

00000aac <scene_program_down>:
     aac:	4b05      	ldr	r3, [pc, #20]	; (ac4 <scene_program_down+0x18>)
     aae:	685a      	ldr	r2, [r3, #4]
     ab0:	3a01      	subs	r2, #1
     ab2:	605a      	str	r2, [r3, #4]
     ab4:	685a      	ldr	r2, [r3, #4]
     ab6:	2a00      	cmp	r2, #0
     ab8:	bfdc      	itt	le
     aba:	2200      	movle	r2, #0
     abc:	605a      	strle	r2, [r3, #4]
     abe:	2201      	movs	r2, #1
     ac0:	601a      	str	r2, [r3, #0]
     ac2:	4770      	bx	lr
     ac4:	10000198 	.word	0x10000198

00000ac8 <load_delay_from_frame>:
     ac8:	7fc2      	ldrb	r2, [r0, #31]
     aca:	7f80      	ldrb	r0, [r0, #30]
     acc:	ea40 2002 	orr.w	r0, r0, r2, lsl #8
     ad0:	4770      	bx	lr

00000ad2 <set_led_bright_from_frame>:
     ad2:	e92d 41f3 	stmdb	sp!, {r0, r1, r4, r5, r6, r7, r8, lr}
     ad6:	4607      	mov	r7, r0
     ad8:	2500      	movs	r5, #0
     ada:	f04f 0803 	mov.w	r8, #3
     ade:	fb08 7605 	mla	r6, r8, r5, r7
     ae2:	2400      	movs	r4, #0
     ae4:	5d31      	ldrb	r1, [r6, r4]
     ae6:	094a      	lsrs	r2, r1, #5
     ae8:	f3c1 0382 	ubfx	r3, r1, #2, #3
     aec:	f001 0103 	and.w	r1, r1, #3
     af0:	2902      	cmp	r1, #2
     af2:	d005      	beq.n	b00 <set_led_bright_from_frame+0x2e>
     af4:	2903      	cmp	r1, #3
     af6:	d005      	beq.n	b04 <set_led_bright_from_frame+0x32>
     af8:	1e48      	subs	r0, r1, #1
     afa:	4241      	negs	r1, r0
     afc:	4141      	adcs	r1, r0
     afe:	e002      	b.n	b06 <set_led_bright_from_frame+0x34>
     b00:	2104      	movs	r1, #4
     b02:	e000      	b.n	b06 <set_led_bright_from_frame+0x34>
     b04:	2107      	movs	r1, #7
     b06:	9100      	str	r1, [sp, #0]
     b08:	4628      	mov	r0, r5
     b0a:	4621      	mov	r1, r4
     b0c:	3401      	adds	r4, #1
     b0e:	f002 fb0f 	bl	3130 <led_matrix_fsm_set_rgb_bright>
     b12:	2c03      	cmp	r4, #3
     b14:	d1e6      	bne.n	ae4 <set_led_bright_from_frame+0x12>
     b16:	3501      	adds	r5, #1
     b18:	2d0a      	cmp	r5, #10
     b1a:	d1e0      	bne.n	ade <set_led_bright_from_frame+0xc>
     b1c:	b002      	add	sp, #8
     b1e:	e8bd 81f0 	ldmia.w	sp!, {r4, r5, r6, r7, r8, pc}
     b22:	bf00      	nop

00000b24 <btn_act_0>:
     b24:	f7ff bf78 	b.w	a18 <scene_bright_down>

00000b28 <btn_act_1>:
     b28:	f7ff bf6e 	b.w	a08 <scene_bright_up>

00000b2c <btn_act_2>:
     b2c:	f7ff bf8e 	b.w	a4c <scene_speed_down>

00000b30 <btn_act_3>:
     b30:	f7ff bf80 	b.w	a34 <scene_speed_up>

00000b34 <btn_act_4>:
     b34:	f7ff bfba 	b.w	aac <scene_program_down>

00000b38 <btn_act_5>:
     b38:	f7ff bfa6 	b.w	a88 <scene_program_up>

00000b3c <thread_buttons_init>:
     b3c:	b513      	push	{r0, r1, r4, lr}
     b3e:	2432      	movs	r4, #50	; 0x32
     b40:	9400      	str	r4, [sp, #0]
     b42:	4815      	ldr	r0, [pc, #84]	; (b98 <thread_buttons_init+0x5c>)
     b44:	4915      	ldr	r1, [pc, #84]	; (b9c <thread_buttons_init+0x60>)
     b46:	4a16      	ldr	r2, [pc, #88]	; (ba0 <thread_buttons_init+0x64>)
     b48:	2364      	movs	r3, #100	; 0x64
     b4a:	f000 fb05 	bl	1158 <btn_fsm_init>
     b4e:	9400      	str	r4, [sp, #0]
     b50:	4814      	ldr	r0, [pc, #80]	; (ba4 <thread_buttons_init+0x68>)
     b52:	4915      	ldr	r1, [pc, #84]	; (ba8 <thread_buttons_init+0x6c>)
     b54:	4a15      	ldr	r2, [pc, #84]	; (bac <thread_buttons_init+0x70>)
     b56:	2364      	movs	r3, #100	; 0x64
     b58:	f000 fafe 	bl	1158 <btn_fsm_init>
     b5c:	9400      	str	r4, [sp, #0]
     b5e:	4814      	ldr	r0, [pc, #80]	; (bb0 <thread_buttons_init+0x74>)
     b60:	4914      	ldr	r1, [pc, #80]	; (bb4 <thread_buttons_init+0x78>)
     b62:	4a15      	ldr	r2, [pc, #84]	; (bb8 <thread_buttons_init+0x7c>)
     b64:	2364      	movs	r3, #100	; 0x64
     b66:	f000 faf7 	bl	1158 <btn_fsm_init>
     b6a:	9400      	str	r4, [sp, #0]
     b6c:	4813      	ldr	r0, [pc, #76]	; (bbc <thread_buttons_init+0x80>)
     b6e:	4914      	ldr	r1, [pc, #80]	; (bc0 <thread_buttons_init+0x84>)
     b70:	4a14      	ldr	r2, [pc, #80]	; (bc4 <thread_buttons_init+0x88>)
     b72:	2364      	movs	r3, #100	; 0x64
     b74:	f000 faf0 	bl	1158 <btn_fsm_init>
     b78:	9400      	str	r4, [sp, #0]
     b7a:	4813      	ldr	r0, [pc, #76]	; (bc8 <thread_buttons_init+0x8c>)
     b7c:	4913      	ldr	r1, [pc, #76]	; (bcc <thread_buttons_init+0x90>)
     b7e:	4a14      	ldr	r2, [pc, #80]	; (bd0 <thread_buttons_init+0x94>)
     b80:	2364      	movs	r3, #100	; 0x64
     b82:	f000 fae9 	bl	1158 <btn_fsm_init>
     b86:	9400      	str	r4, [sp, #0]
     b88:	4812      	ldr	r0, [pc, #72]	; (bd4 <thread_buttons_init+0x98>)
     b8a:	4913      	ldr	r1, [pc, #76]	; (bd8 <thread_buttons_init+0x9c>)
     b8c:	4a13      	ldr	r2, [pc, #76]	; (bdc <thread_buttons_init+0xa0>)
     b8e:	2364      	movs	r3, #100	; 0x64
     b90:	f000 fae2 	bl	1158 <btn_fsm_init>
     b94:	b002      	add	sp, #8
     b96:	bd10      	pop	{r4, pc}
     b98:	10000320 	.word	0x10000320
     b9c:	000010e1 	.word	0x000010e1
     ba0:	00000b25 	.word	0x00000b25
     ba4:	100002f0 	.word	0x100002f0
     ba8:	000010f5 	.word	0x000010f5
     bac:	00000b29 	.word	0x00000b29
     bb0:	100002a8 	.word	0x100002a8
     bb4:	00001109 	.word	0x00001109
     bb8:	00000b2d 	.word	0x00000b2d
     bbc:	10000308 	.word	0x10000308
     bc0:	0000111d 	.word	0x0000111d
     bc4:	00000b31 	.word	0x00000b31
     bc8:	100002d8 	.word	0x100002d8
     bcc:	00001131 	.word	0x00001131
     bd0:	00000b35 	.word	0x00000b35
     bd4:	100002c0 	.word	0x100002c0
     bd8:	00001145 	.word	0x00001145
     bdc:	00000b39 	.word	0x00000b39

00000be0 <thread_buttons_tick>:
     be0:	b508      	push	{r3, lr}
     be2:	480a      	ldr	r0, [pc, #40]	; (c0c <thread_buttons_tick+0x2c>)
     be4:	f000 fac2 	bl	116c <btn_fsm_step>
     be8:	4809      	ldr	r0, [pc, #36]	; (c10 <thread_buttons_tick+0x30>)
     bea:	f000 fabf 	bl	116c <btn_fsm_step>
     bee:	4809      	ldr	r0, [pc, #36]	; (c14 <thread_buttons_tick+0x34>)
     bf0:	f000 fabc 	bl	116c <btn_fsm_step>
     bf4:	4808      	ldr	r0, [pc, #32]	; (c18 <thread_buttons_tick+0x38>)
     bf6:	f000 fab9 	bl	116c <btn_fsm_step>
     bfa:	4808      	ldr	r0, [pc, #32]	; (c1c <thread_buttons_tick+0x3c>)
     bfc:	f000 fab6 	bl	116c <btn_fsm_step>
     c00:	e8bd 4008 	ldmia.w	sp!, {r3, lr}
     c04:	4806      	ldr	r0, [pc, #24]	; (c20 <thread_buttons_tick+0x40>)
     c06:	f000 bab1 	b.w	116c <btn_fsm_step>
     c0a:	bf00      	nop
     c0c:	10000320 	.word	0x10000320
     c10:	100002f0 	.word	0x100002f0
     c14:	100002a8 	.word	0x100002a8
     c18:	10000308 	.word	0x10000308
     c1c:	100002d8 	.word	0x100002d8
     c20:	100002c0 	.word	0x100002c0

00000c24 <thread_leds_init>:
     c24:	b5f8      	push	{r3, r4, r5, r6, r7, lr}
     c26:	4f1a      	ldr	r7, [pc, #104]	; (c90 <thread_leds_init+0x6c>)
     c28:	4e1a      	ldr	r6, [pc, #104]	; (c94 <thread_leds_init+0x70>)
     c2a:	f002 f940 	bl	2eae <led_ann_cs_all_off>
     c2e:	4d1a      	ldr	r5, [pc, #104]	; (c98 <thread_leds_init+0x74>)
     c30:	4638      	mov	r0, r7
     c32:	21af      	movs	r1, #175	; 0xaf
     c34:	4a19      	ldr	r2, [pc, #100]	; (c9c <thread_leds_init+0x78>)
     c36:	4b1a      	ldr	r3, [pc, #104]	; (ca0 <thread_leds_init+0x7c>)
     c38:	f002 f971 	bl	2f1e <led_fsm_init>
     c3c:	4c19      	ldr	r4, [pc, #100]	; (ca4 <thread_leds_init+0x80>)
     c3e:	4630      	mov	r0, r6
     c40:	21af      	movs	r1, #175	; 0xaf
     c42:	4a19      	ldr	r2, [pc, #100]	; (ca8 <thread_leds_init+0x84>)
     c44:	4b19      	ldr	r3, [pc, #100]	; (cac <thread_leds_init+0x88>)
     c46:	f002 f96a 	bl	2f1e <led_fsm_init>
     c4a:	4628      	mov	r0, r5
     c4c:	21af      	movs	r1, #175	; 0xaf
     c4e:	4a18      	ldr	r2, [pc, #96]	; (cb0 <thread_leds_init+0x8c>)
     c50:	4b18      	ldr	r3, [pc, #96]	; (cb4 <thread_leds_init+0x90>)
     c52:	f002 f964 	bl	2f1e <led_fsm_init>
     c56:	4b18      	ldr	r3, [pc, #96]	; (cb8 <thread_leds_init+0x94>)
     c58:	4a18      	ldr	r2, [pc, #96]	; (cbc <thread_leds_init+0x98>)
     c5a:	4620      	mov	r0, r4
     c5c:	21af      	movs	r1, #175	; 0xaf
     c5e:	f002 f95e 	bl	2f1e <led_fsm_init>
     c62:	4638      	mov	r0, r7
     c64:	2100      	movs	r1, #0
     c66:	f002 f982 	bl	2f6e <led_fsm_set_bright>
     c6a:	4630      	mov	r0, r6
     c6c:	2100      	movs	r1, #0
     c6e:	f002 f97e 	bl	2f6e <led_fsm_set_bright>
     c72:	4628      	mov	r0, r5
     c74:	2100      	movs	r1, #0
     c76:	f002 f97a 	bl	2f6e <led_fsm_set_bright>
     c7a:	4620      	mov	r0, r4
     c7c:	2100      	movs	r1, #0
     c7e:	f002 f976 	bl	2f6e <led_fsm_set_bright>
     c82:	e8bd 40f8 	ldmia.w	sp!, {r3, r4, r5, r6, r7, lr}
     c86:	2007      	movs	r0, #7
     c88:	2105      	movs	r1, #5
     c8a:	f002 b97a 	b.w	2f82 <led_matrix_fsm_init>
     c8e:	bf00      	nop
     c90:	10000350 	.word	0x10000350
     c94:	10000380 	.word	0x10000380
     c98:	10000338 	.word	0x10000338
     c9c:	00002cf1 	.word	0x00002cf1
     ca0:	00002cf9 	.word	0x00002cf9
     ca4:	10000368 	.word	0x10000368
     ca8:	00002d0f 	.word	0x00002d0f
     cac:	00002d17 	.word	0x00002d17
     cb0:	00002d2d 	.word	0x00002d2d
     cb4:	00002d35 	.word	0x00002d35
     cb8:	00002e39 	.word	0x00002e39
     cbc:	00002d4b 	.word	0x00002d4b

00000cc0 <thread_leds_tick>:
     cc0:	b508      	push	{r3, lr}
     cc2:	4808      	ldr	r0, [pc, #32]	; (ce4 <thread_leds_tick+0x24>)
     cc4:	f002 f933 	bl	2f2e <led_fsm_step>
     cc8:	4807      	ldr	r0, [pc, #28]	; (ce8 <thread_leds_tick+0x28>)
     cca:	f002 f930 	bl	2f2e <led_fsm_step>
     cce:	4807      	ldr	r0, [pc, #28]	; (cec <thread_leds_tick+0x2c>)
     cd0:	f002 f92d 	bl	2f2e <led_fsm_step>
     cd4:	4806      	ldr	r0, [pc, #24]	; (cf0 <thread_leds_tick+0x30>)
     cd6:	f002 f92a 	bl	2f2e <led_fsm_step>
     cda:	e8bd 4008 	ldmia.w	sp!, {r3, lr}
     cde:	f002 b989 	b.w	2ff4 <led_matrix_fsm_step>
     ce2:	bf00      	nop
     ce4:	10000350 	.word	0x10000350
     ce8:	10000380 	.word	0x10000380
     cec:	10000338 	.word	0x10000338
     cf0:	10000368 	.word	0x10000368

00000cf4 <thread_leds_set_bat_level>:
     cf4:	f5b0 7f21 	cmp.w	r0, #644	; 0x284
     cf8:	b510      	push	{r4, lr}
     cfa:	d205      	bcs.n	d08 <thread_leds_set_bat_level+0x14>
     cfc:	f5b0 7fa8 	cmp.w	r0, #336	; 0x150
     d00:	bf38      	it	cc
     d02:	f44f 70a8 	movcc.w	r0, #336	; 0x150
     d06:	e001      	b.n	d0c <thread_leds_set_bat_level+0x18>
     d08:	f44f 7021 	mov.w	r0, #644	; 0x284
     d0c:	f5a0 70a8 	sub.w	r0, r0, #336	; 0x150
     d10:	2464      	movs	r4, #100	; 0x64
     d12:	4344      	muls	r4, r0
     d14:	f44f 739a 	mov.w	r3, #308	; 0x134
     d18:	482c      	ldr	r0, [pc, #176]	; (dcc <thread_leds_set_bat_level+0xd8>)
     d1a:	2100      	movs	r1, #0
     d1c:	fbb4 f4f3 	udiv	r4, r4, r3
     d20:	f002 f925 	bl	2f6e <led_fsm_set_bright>
     d24:	482a      	ldr	r0, [pc, #168]	; (dd0 <thread_leds_set_bat_level+0xdc>)
     d26:	2100      	movs	r1, #0
     d28:	f002 f921 	bl	2f6e <led_fsm_set_bright>
     d2c:	4829      	ldr	r0, [pc, #164]	; (dd4 <thread_leds_set_bat_level+0xe0>)
     d2e:	2100      	movs	r1, #0
     d30:	f002 f91d 	bl	2f6e <led_fsm_set_bright>
     d34:	4828      	ldr	r0, [pc, #160]	; (dd8 <thread_leds_set_bat_level+0xe4>)
     d36:	2100      	movs	r1, #0
     d38:	f002 f919 	bl	2f6e <led_fsm_set_bright>
     d3c:	2c18      	cmp	r4, #24
     d3e:	d802      	bhi.n	d46 <thread_leds_set_bat_level+0x52>
     d40:	4825      	ldr	r0, [pc, #148]	; (dd8 <thread_leds_set_bat_level+0xe4>)
     d42:	4621      	mov	r1, r4
     d44:	e03d      	b.n	dc2 <thread_leds_set_bat_level+0xce>
     d46:	f1a4 0319 	sub.w	r3, r4, #25
     d4a:	2b18      	cmp	r3, #24
     d4c:	d808      	bhi.n	d60 <thread_leds_set_bat_level+0x6c>
     d4e:	4822      	ldr	r0, [pc, #136]	; (dd8 <thread_leds_set_bat_level+0xe4>)
     d50:	2119      	movs	r1, #25
     d52:	f002 f90c 	bl	2f6e <led_fsm_set_bright>
     d56:	2319      	movs	r3, #25
     d58:	fbb4 f1f3 	udiv	r1, r4, r3
     d5c:	481d      	ldr	r0, [pc, #116]	; (dd4 <thread_leds_set_bat_level+0xe0>)
     d5e:	e021      	b.n	da4 <thread_leds_set_bat_level+0xb0>
     d60:	f1a4 0332 	sub.w	r3, r4, #50	; 0x32
     d64:	2b18      	cmp	r3, #24
     d66:	481c      	ldr	r0, [pc, #112]	; (dd8 <thread_leds_set_bat_level+0xe4>)
     d68:	f04f 0119 	mov.w	r1, #25
     d6c:	d80a      	bhi.n	d84 <thread_leds_set_bat_level+0x90>
     d6e:	f002 f8fe 	bl	2f6e <led_fsm_set_bright>
     d72:	4818      	ldr	r0, [pc, #96]	; (dd4 <thread_leds_set_bat_level+0xe0>)
     d74:	2119      	movs	r1, #25
     d76:	f002 f8fa 	bl	2f6e <led_fsm_set_bright>
     d7a:	2319      	movs	r3, #25
     d7c:	fbb4 f1f3 	udiv	r1, r4, r3
     d80:	4813      	ldr	r0, [pc, #76]	; (dd0 <thread_leds_set_bat_level+0xdc>)
     d82:	e00f      	b.n	da4 <thread_leds_set_bat_level+0xb0>
     d84:	2c64      	cmp	r4, #100	; 0x64
     d86:	d010      	beq.n	daa <thread_leds_set_bat_level+0xb6>
     d88:	f002 f8f1 	bl	2f6e <led_fsm_set_bright>
     d8c:	4811      	ldr	r0, [pc, #68]	; (dd4 <thread_leds_set_bat_level+0xe0>)
     d8e:	2119      	movs	r1, #25
     d90:	f002 f8ed 	bl	2f6e <led_fsm_set_bright>
     d94:	480e      	ldr	r0, [pc, #56]	; (dd0 <thread_leds_set_bat_level+0xdc>)
     d96:	2119      	movs	r1, #25
     d98:	f002 f8e9 	bl	2f6e <led_fsm_set_bright>
     d9c:	2319      	movs	r3, #25
     d9e:	480b      	ldr	r0, [pc, #44]	; (dcc <thread_leds_set_bat_level+0xd8>)
     da0:	fbb4 f1f3 	udiv	r1, r4, r3
     da4:	fb03 4111 	mls	r1, r3, r1, r4
     da8:	e00b      	b.n	dc2 <thread_leds_set_bat_level+0xce>
     daa:	f002 f8e0 	bl	2f6e <led_fsm_set_bright>
     dae:	4809      	ldr	r0, [pc, #36]	; (dd4 <thread_leds_set_bat_level+0xe0>)
     db0:	2119      	movs	r1, #25
     db2:	f002 f8dc 	bl	2f6e <led_fsm_set_bright>
     db6:	4806      	ldr	r0, [pc, #24]	; (dd0 <thread_leds_set_bat_level+0xdc>)
     db8:	2119      	movs	r1, #25
     dba:	f002 f8d8 	bl	2f6e <led_fsm_set_bright>
     dbe:	4803      	ldr	r0, [pc, #12]	; (dcc <thread_leds_set_bat_level+0xd8>)
     dc0:	2119      	movs	r1, #25
     dc2:	e8bd 4010 	ldmia.w	sp!, {r4, lr}
     dc6:	f002 b8d2 	b.w	2f6e <led_fsm_set_bright>
     dca:	bf00      	nop
     dcc:	10000350 	.word	0x10000350
     dd0:	10000380 	.word	0x10000380
     dd4:	10000338 	.word	0x10000338
     dd8:	10000368 	.word	0x10000368

00000ddc <reset_program>:
     ddc:	b510      	push	{r4, lr}
     dde:	f7ff fe4d 	bl	a7c <scene_program_get_index>
     de2:	4c05      	ldr	r4, [pc, #20]	; (df8 <reset_program+0x1c>)
     de4:	4b05      	ldr	r3, [pc, #20]	; (dfc <reset_program+0x20>)
     de6:	4602      	mov	r2, r0
     de8:	f853 1022 	ldr.w	r1, [r3, r2, lsl #2]
     dec:	4620      	mov	r0, r4
     dee:	f7ff fcf6 	bl	7de <frame_decompressor_init>
     df2:	2300      	movs	r3, #0
     df4:	63a3      	str	r3, [r4, #56]	; 0x38
     df6:	bd10      	pop	{r4, pc}
     df8:	100001a0 	.word	0x100001a0
     dfc:	10000180 	.word	0x10000180

00000e00 <auto_reset_program>:
     e00:	b510      	push	{r4, lr}
     e02:	4c05      	ldr	r4, [pc, #20]	; (e18 <auto_reset_program+0x18>)
     e04:	4a05      	ldr	r2, [pc, #20]	; (e1c <auto_reset_program+0x1c>)
     e06:	6be3      	ldr	r3, [r4, #60]	; 0x3c
     e08:	4620      	mov	r0, r4
     e0a:	f852 1023 	ldr.w	r1, [r2, r3, lsl #2]
     e0e:	f7ff fce6 	bl	7de <frame_decompressor_init>
     e12:	2300      	movs	r3, #0
     e14:	6423      	str	r3, [r4, #64]	; 0x40
     e16:	bd10      	pop	{r4, pc}
     e18:	100001a0 	.word	0x100001a0
     e1c:	10000180 	.word	0x10000180

00000e20 <thread_movie_init>:
     e20:	b508      	push	{r3, lr}
     e22:	f7ff ffdb 	bl	ddc <reset_program>
     e26:	e8bd 4008 	ldmia.w	sp!, {r3, lr}
     e2a:	e7e9      	b.n	e00 <auto_reset_program>

00000e2c <thread_movie_tick>:
     e2c:	b538      	push	{r3, r4, r5, lr}
     e2e:	f7ff fe19 	bl	a64 <get_new_program_flag>
     e32:	4c29      	ldr	r4, [pc, #164]	; (ed8 <thread_movie_tick+0xac>)
     e34:	b150      	cbz	r0, e4c <thread_movie_tick+0x20>
     e36:	f7ff fe1b 	bl	a70 <reset_new_program_flag>
     e3a:	f7ff ffcf 	bl	ddc <reset_program>
     e3e:	6823      	ldr	r3, [r4, #0]
     e40:	b123      	cbz	r3, e4c <thread_movie_tick+0x20>
     e42:	f7ff fe33 	bl	aac <scene_program_down>
     e46:	2300      	movs	r3, #0
     e48:	6023      	str	r3, [r4, #0]
     e4a:	bd38      	pop	{r3, r4, r5, pc}
     e4c:	6823      	ldr	r3, [r4, #0]
     e4e:	4c23      	ldr	r4, [pc, #140]	; (edc <thread_movie_tick+0xb0>)
     e50:	b323      	cbz	r3, e9c <thread_movie_tick+0x70>
     e52:	6c23      	ldr	r3, [r4, #64]	; 0x40
     e54:	2b00      	cmp	r3, #0
     e56:	dd02      	ble.n	e5e <thread_movie_tick+0x32>
     e58:	3b01      	subs	r3, #1
     e5a:	6423      	str	r3, [r4, #64]	; 0x40
     e5c:	bd38      	pop	{r3, r4, r5, pc}
     e5e:	4620      	mov	r0, r4
     e60:	f104 0144 	add.w	r1, r4, #68	; 0x44
     e64:	f7ff fcd9 	bl	81a <frame_decompressor_get_next_frame>
     e68:	b168      	cbz	r0, e86 <thread_movie_tick+0x5a>
     e6a:	f104 0044 	add.w	r0, r4, #68	; 0x44
     e6e:	f7ff fe30 	bl	ad2 <set_led_bright_from_frame>
     e72:	f104 0044 	add.w	r0, r4, #68	; 0x44
     e76:	f7ff fe27 	bl	ac8 <load_delay_from_frame>
     e7a:	4605      	mov	r5, r0
     e7c:	f7ff fdd4 	bl	a28 <scene_speed_get_mult>
     e80:	4368      	muls	r0, r5
     e82:	6420      	str	r0, [r4, #64]	; 0x40
     e84:	bd38      	pop	{r3, r4, r5, pc}
     e86:	4a16      	ldr	r2, [pc, #88]	; (ee0 <thread_movie_tick+0xb4>)
     e88:	6be3      	ldr	r3, [r4, #60]	; 0x3c
     e8a:	6812      	ldr	r2, [r2, #0]
     e8c:	3301      	adds	r3, #1
     e8e:	4293      	cmp	r3, r2
     e90:	63e3      	str	r3, [r4, #60]	; 0x3c
     e92:	bf28      	it	cs
     e94:	63e0      	strcs	r0, [r4, #60]	; 0x3c
     e96:	e8bd 4038 	ldmia.w	sp!, {r3, r4, r5, lr}
     e9a:	e7b1      	b.n	e00 <auto_reset_program>
     e9c:	6ba3      	ldr	r3, [r4, #56]	; 0x38
     e9e:	2b00      	cmp	r3, #0
     ea0:	dd03      	ble.n	eaa <thread_movie_tick+0x7e>
     ea2:	6ba3      	ldr	r3, [r4, #56]	; 0x38
     ea4:	3b01      	subs	r3, #1
     ea6:	63a3      	str	r3, [r4, #56]	; 0x38
     ea8:	bd38      	pop	{r3, r4, r5, pc}
     eaa:	4620      	mov	r0, r4
     eac:	f104 0144 	add.w	r1, r4, #68	; 0x44
     eb0:	f7ff fcb3 	bl	81a <frame_decompressor_get_next_frame>
     eb4:	b168      	cbz	r0, ed2 <thread_movie_tick+0xa6>
     eb6:	f104 0044 	add.w	r0, r4, #68	; 0x44
     eba:	f7ff fe0a 	bl	ad2 <set_led_bright_from_frame>
     ebe:	f104 0044 	add.w	r0, r4, #68	; 0x44
     ec2:	f7ff fe01 	bl	ac8 <load_delay_from_frame>
     ec6:	4605      	mov	r5, r0
     ec8:	f7ff fdae 	bl	a28 <scene_speed_get_mult>
     ecc:	4368      	muls	r0, r5
     ece:	63a0      	str	r0, [r4, #56]	; 0x38
     ed0:	bd38      	pop	{r3, r4, r5, pc}
     ed2:	e8bd 4038 	ldmia.w	sp!, {r3, r4, r5, lr}
     ed6:	e781      	b.n	ddc <reset_program>
     ed8:	10000194 	.word	0x10000194
     edc:	100001a0 	.word	0x100001a0
     ee0:	00004174 	.word	0x00004174

00000ee4 <init_threads>:
     ee4:	b510      	push	{r4, lr}
     ee6:	f64b 3480 	movw	r4, #48000	; 0xbb80
     eea:	f7ff fe27 	bl	b3c <thread_buttons_init>
     eee:	f7ff fe99 	bl	c24 <thread_leds_init>
     ef2:	f7ff ff95 	bl	e20 <thread_movie_init>
     ef6:	4621      	mov	r1, r4
     ef8:	2000      	movs	r0, #0
     efa:	f003 f87d 	bl	3ff8 <init_timer16>
     efe:	2000      	movs	r0, #0
     f00:	f003 f86e 	bl	3fe0 <enable_timer16>
     f04:	4621      	mov	r1, r4
     f06:	2001      	movs	r0, #1
     f08:	f003 f876 	bl	3ff8 <init_timer16>
     f0c:	2001      	movs	r0, #1
     f0e:	f003 f867 	bl	3fe0 <enable_timer16>
     f12:	2000      	movs	r0, #0
     f14:	f44f 7170 	mov.w	r1, #960	; 0x3c0
     f18:	f003 f8a4 	bl	4064 <init_timer32>
     f1c:	e8bd 4010 	ldmia.w	sp!, {r4, lr}
     f20:	2000      	movs	r0, #0
     f22:	f003 b893 	b.w	404c <enable_timer32>

00000f26 <tick_thread_16_0>:
     f26:	f7ff be5b 	b.w	be0 <thread_buttons_tick>

00000f2a <tick_thread_16_1>:
     f2a:	f7ff bf7f 	b.w	e2c <thread_movie_tick>

00000f2e <tick_thread_32_0>:
     f2e:	f7ff bec7 	b.w	cc0 <thread_leds_tick>

00000f32 <loop_main_thread>:
     f32:	b508      	push	{r3, lr}
     f34:	4805      	ldr	r0, [pc, #20]	; (f4c <loop_main_thread+0x1a>)
     f36:	f000 f835 	bl	fa4 <ADCInit>
     f3a:	2000      	movs	r0, #0
     f3c:	f000 f85e 	bl	ffc <ADCRead>
     f40:	f7ff fed8 	bl	cf4 <thread_leds_set_bat_level>
     f44:	4802      	ldr	r0, [pc, #8]	; (f50 <loop_main_thread+0x1e>)
     f46:	f000 f941 	bl	11cc <delay_ticks>
     f4a:	e7f6      	b.n	f3a <loop_main_thread+0x8>
     f4c:	0044aa20 	.word	0x0044aa20
     f50:	00989680 	.word	0x00989680

00000f54 <timer16_0_irqhandler>:
     f54:	4b02      	ldr	r3, [pc, #8]	; (f60 <timer16_0_irqhandler+0xc>)
     f56:	2201      	movs	r2, #1
     f58:	601a      	str	r2, [r3, #0]
     f5a:	f7ff bfe4 	b.w	f26 <tick_thread_16_0>
     f5e:	bf00      	nop
     f60:	4000c000 	.word	0x4000c000

00000f64 <timer16_1_irqhandler>:
     f64:	4b02      	ldr	r3, [pc, #8]	; (f70 <timer16_1_irqhandler+0xc>)
     f66:	2201      	movs	r2, #1
     f68:	601a      	str	r2, [r3, #0]
     f6a:	f7ff bfde 	b.w	f2a <tick_thread_16_1>
     f6e:	bf00      	nop
     f70:	40010000 	.word	0x40010000

00000f74 <timer32_0_irqhandler>:
     f74:	4b02      	ldr	r3, [pc, #8]	; (f80 <timer32_0_irqhandler+0xc>)
     f76:	2201      	movs	r2, #1
     f78:	601a      	str	r2, [r3, #0]
     f7a:	f7ff bfd8 	b.w	f2e <tick_thread_32_0>
     f7e:	bf00      	nop
     f80:	40014000 	.word	0x40014000

00000f84 <cmdTest>:
     f84:	4770      	bx	lr

00000f86 <cmdTestParam>:
     f86:	4770      	bx	lr

00000f88 <cmdReadAdc>:
     f88:	4770      	bx	lr

00000f8a <cmdLedsOff>:
     f8a:	4770      	bx	lr

00000f8c <cmdLedsRed>:
     f8c:	4770      	bx	lr

00000f8e <cmdLedsGreen>:
     f8e:	4770      	bx	lr

00000f90 <cmdGetDebugBuf>:
     f90:	4770      	bx	lr

00000f92 <cmdSetDebugBuf>:
     f92:	4770      	bx	lr

00000f94 <cmdFmSendData>:
     f94:	4770      	bx	lr

00000f96 <cmdFmRecvData>:
     f96:	4770      	bx	lr

00000f98 <processCommand>:
     f98:	4770      	bx	lr

00000f9a <processCommandDPC>:
     f9a:	4770      	bx	lr

00000f9c <DPCDispatch>:
     f9c:	4770      	bx	lr

00000f9e <GetInReport>:
     f9e:	4770      	bx	lr

00000fa0 <SetOutReport>:
     fa0:	4770      	bx	lr
	...

00000fa4 <ADCInit>:
     fa4:	4b11      	ldr	r3, [pc, #68]	; (fec <ADCInit+0x48>)
     fa6:	f8d3 2238 	ldr.w	r2, [r3, #568]	; 0x238
     faa:	f022 0210 	bic.w	r2, r2, #16
     fae:	f8c3 2238 	str.w	r2, [r3, #568]	; 0x238
     fb2:	f8d3 2080 	ldr.w	r2, [r3, #128]	; 0x80
     fb6:	f442 5200 	orr.w	r2, r2, #8192	; 0x2000
     fba:	f8c3 2080 	str.w	r2, [r3, #128]	; 0x80
     fbe:	4a0c      	ldr	r2, [pc, #48]	; (ff0 <ADCInit+0x4c>)
     fc0:	6f51      	ldr	r1, [r2, #116]	; 0x74
     fc2:	f021 018f 	bic.w	r1, r1, #143	; 0x8f
     fc6:	6751      	str	r1, [r2, #116]	; 0x74
     fc8:	6f51      	ldr	r1, [r2, #116]	; 0x74
     fca:	f041 0102 	orr.w	r1, r1, #2
     fce:	6751      	str	r1, [r2, #116]	; 0x74
     fd0:	2102      	movs	r1, #2
     fd2:	6751      	str	r1, [r2, #116]	; 0x74
     fd4:	6f9b      	ldr	r3, [r3, #120]	; 0x78
     fd6:	4a07      	ldr	r2, [pc, #28]	; (ff4 <ADCInit+0x50>)
     fd8:	fbb2 f3f3 	udiv	r3, r2, r3
     fdc:	fbb3 f0f0 	udiv	r0, r3, r0
     fe0:	1e43      	subs	r3, r0, #1
     fe2:	4a05      	ldr	r2, [pc, #20]	; (ff8 <ADCInit+0x54>)
     fe4:	021b      	lsls	r3, r3, #8
     fe6:	6013      	str	r3, [r2, #0]
     fe8:	4770      	bx	lr
     fea:	bf00      	nop
     fec:	40048000 	.word	0x40048000
     ff0:	40044000 	.word	0x40044000
     ff4:	044aa200 	.word	0x044aa200
     ff8:	4001c000 	.word	0x4001c000

00000ffc <ADCRead>:
     ffc:	4b0f      	ldr	r3, [pc, #60]	; (103c <ADCRead+0x40>)
     ffe:	2807      	cmp	r0, #7
    1000:	bf88      	it	hi
    1002:	2000      	movhi	r0, #0
    1004:	681a      	ldr	r2, [r3, #0]
    1006:	f022 02ff 	bic.w	r2, r2, #255	; 0xff
    100a:	601a      	str	r2, [r3, #0]
    100c:	2201      	movs	r2, #1
    100e:	4082      	lsls	r2, r0
    1010:	6819      	ldr	r1, [r3, #0]
    1012:	0080      	lsls	r0, r0, #2
    1014:	f041 7180 	orr.w	r1, r1, #16777216	; 0x1000000
    1018:	430a      	orrs	r2, r1
    101a:	601a      	str	r2, [r3, #0]
    101c:	4a08      	ldr	r2, [pc, #32]	; (1040 <ADCRead+0x44>)
    101e:	4402      	add	r2, r0
    1020:	6810      	ldr	r0, [r2, #0]
    1022:	2800      	cmp	r0, #0
    1024:	dafc      	bge.n	1020 <ADCRead+0x24>
    1026:	681a      	ldr	r2, [r3, #0]
    1028:	f022 62e0 	bic.w	r2, r2, #117440512	; 0x7000000
    102c:	601a      	str	r2, [r3, #0]
    102e:	0043      	lsls	r3, r0, #1
    1030:	bf54      	ite	pl
    1032:	f3c0 1089 	ubfxpl	r0, r0, #6, #10
    1036:	2000      	movmi	r0, #0
    1038:	4770      	bx	lr
    103a:	bf00      	nop
    103c:	4001c000 	.word	0x4001c000
    1040:	4001c010 	.word	0x4001c010

00001044 <bit_mask>:
    1044:	2301      	movs	r3, #1
    1046:	fa03 f000 	lsl.w	r0, r3, r0
    104a:	4770      	bx	lr

0000104c <set_bit_zero>:
    104c:	2201      	movs	r2, #1
    104e:	fa02 f101 	lsl.w	r1, r2, r1
    1052:	6803      	ldr	r3, [r0, #0]
    1054:	ea23 0301 	bic.w	r3, r3, r1
    1058:	6003      	str	r3, [r0, #0]
    105a:	4770      	bx	lr

0000105c <set_bit_one>:
    105c:	2201      	movs	r2, #1
    105e:	fa02 f101 	lsl.w	r1, r2, r1
    1062:	6803      	ldr	r3, [r0, #0]
    1064:	430b      	orrs	r3, r1
    1066:	6003      	str	r3, [r0, #0]
    1068:	4770      	bx	lr

0000106a <set_bit>:
    106a:	b510      	push	{r4, lr}
    106c:	460c      	mov	r4, r1
    106e:	b132      	cbz	r2, 107e <set_bit+0x14>
    1070:	2101      	movs	r1, #1
    1072:	fa01 f404 	lsl.w	r4, r1, r4
    1076:	6802      	ldr	r2, [r0, #0]
    1078:	4314      	orrs	r4, r2
    107a:	6004      	str	r4, [r0, #0]
    107c:	bd10      	pop	{r4, pc}
    107e:	e8bd 4010 	ldmia.w	sp!, {r4, lr}
    1082:	f7ff bfe3 	b.w	104c <set_bit_zero>

00001086 <bit_is_set>:
    1086:	2201      	movs	r2, #1
    1088:	fa02 f101 	lsl.w	r1, r2, r1
    108c:	6803      	ldr	r3, [r0, #0]
    108e:	4219      	tst	r1, r3
    1090:	bf0c      	ite	eq
    1092:	2000      	moveq	r0, #0
    1094:	2001      	movne	r0, #1
    1096:	4770      	bx	lr

00001098 <set_all_bits_zero>:
    1098:	6803      	ldr	r3, [r0, #0]
    109a:	ea23 0101 	bic.w	r1, r3, r1
    109e:	6001      	str	r1, [r0, #0]
    10a0:	4770      	bx	lr

000010a2 <set_all_bits_one>:
    10a2:	6803      	ldr	r3, [r0, #0]
    10a4:	4319      	orrs	r1, r3
    10a6:	6001      	str	r1, [r0, #0]
    10a8:	4770      	bx	lr

000010aa <init_buttons>:
    10aa:	b508      	push	{r3, lr}
    10ac:	2002      	movs	r0, #2
    10ae:	210a      	movs	r1, #10
    10b0:	f000 f8a0 	bl	11f4 <gpio_set_dir_in>
    10b4:	2000      	movs	r0, #0
    10b6:	2105      	movs	r1, #5
    10b8:	f000 f89c 	bl	11f4 <gpio_set_dir_in>
    10bc:	2002      	movs	r0, #2
    10be:	210b      	movs	r1, #11
    10c0:	f000 f898 	bl	11f4 <gpio_set_dir_in>
    10c4:	2000      	movs	r0, #0
    10c6:	2107      	movs	r1, #7
    10c8:	f000 f894 	bl	11f4 <gpio_set_dir_in>
    10cc:	2000      	movs	r0, #0
    10ce:	2108      	movs	r1, #8
    10d0:	f000 f890 	bl	11f4 <gpio_set_dir_in>
    10d4:	e8bd 4008 	ldmia.w	sp!, {r3, lr}
    10d8:	2000      	movs	r0, #0
    10da:	2109      	movs	r1, #9
    10dc:	f000 b88a 	b.w	11f4 <gpio_set_dir_in>

000010e0 <btn_0_is_set>:
    10e0:	b508      	push	{r3, lr}
    10e2:	210a      	movs	r1, #10
    10e4:	2002      	movs	r0, #2
    10e6:	f000 f8a9 	bl	123c <gpio_get_data_bit>
    10ea:	f1d0 0001 	rsbs	r0, r0, #1
    10ee:	bf38      	it	cc
    10f0:	2000      	movcc	r0, #0
    10f2:	bd08      	pop	{r3, pc}

000010f4 <btn_1_is_set>:
    10f4:	b508      	push	{r3, lr}
    10f6:	2105      	movs	r1, #5
    10f8:	2000      	movs	r0, #0
    10fa:	f000 f89f 	bl	123c <gpio_get_data_bit>
    10fe:	f1d0 0001 	rsbs	r0, r0, #1
    1102:	bf38      	it	cc
    1104:	2000      	movcc	r0, #0
    1106:	bd08      	pop	{r3, pc}

00001108 <btn_2_is_set>:
    1108:	b508      	push	{r3, lr}
    110a:	210b      	movs	r1, #11
    110c:	2002      	movs	r0, #2
    110e:	f000 f895 	bl	123c <gpio_get_data_bit>
    1112:	f1d0 0001 	rsbs	r0, r0, #1
    1116:	bf38      	it	cc
    1118:	2000      	movcc	r0, #0
    111a:	bd08      	pop	{r3, pc}

0000111c <btn_3_is_set>:
    111c:	b508      	push	{r3, lr}
    111e:	2107      	movs	r1, #7
    1120:	2000      	movs	r0, #0
    1122:	f000 f88b 	bl	123c <gpio_get_data_bit>
    1126:	f1d0 0001 	rsbs	r0, r0, #1
    112a:	bf38      	it	cc
    112c:	2000      	movcc	r0, #0
    112e:	bd08      	pop	{r3, pc}

00001130 <btn_4_is_set>:
    1130:	b508      	push	{r3, lr}
    1132:	2108      	movs	r1, #8
    1134:	2000      	movs	r0, #0
    1136:	f000 f881 	bl	123c <gpio_get_data_bit>
    113a:	f1d0 0001 	rsbs	r0, r0, #1
    113e:	bf38      	it	cc
    1140:	2000      	movcc	r0, #0
    1142:	bd08      	pop	{r3, pc}

00001144 <btn_5_is_set>:
    1144:	b508      	push	{r3, lr}
    1146:	2109      	movs	r1, #9
    1148:	2000      	movs	r0, #0
    114a:	f000 f877 	bl	123c <gpio_get_data_bit>
    114e:	f1d0 0001 	rsbs	r0, r0, #1
    1152:	bf38      	it	cc
    1154:	2000      	movcc	r0, #0
    1156:	bd08      	pop	{r3, pc}

00001158 <btn_fsm_init>:
    1158:	b510      	push	{r4, lr}
    115a:	6103      	str	r3, [r0, #16]
    115c:	9b02      	ldr	r3, [sp, #8]
    115e:	2400      	movs	r4, #0
    1160:	6004      	str	r4, [r0, #0]
    1162:	6044      	str	r4, [r0, #4]
    1164:	6081      	str	r1, [r0, #8]
    1166:	60c2      	str	r2, [r0, #12]
    1168:	6143      	str	r3, [r0, #20]
    116a:	bd10      	pop	{r4, pc}

0000116c <btn_fsm_step>:
    116c:	b538      	push	{r3, r4, r5, lr}
    116e:	6805      	ldr	r5, [r0, #0]
    1170:	4604      	mov	r4, r0
    1172:	b945      	cbnz	r5, 1186 <btn_fsm_step+0x1a>
    1174:	6883      	ldr	r3, [r0, #8]
    1176:	4798      	blx	r3
    1178:	b338      	cbz	r0, 11ca <btn_fsm_step+0x5e>
    117a:	68e3      	ldr	r3, [r4, #12]
    117c:	4798      	blx	r3
    117e:	2301      	movs	r3, #1
    1180:	e884 0028 	stmia.w	r4, {r3, r5}
    1184:	bd38      	pop	{r3, r4, r5, pc}
    1186:	2d01      	cmp	r5, #1
    1188:	d109      	bne.n	119e <btn_fsm_step+0x32>
    118a:	6843      	ldr	r3, [r0, #4]
    118c:	6902      	ldr	r2, [r0, #16]
    118e:	3301      	adds	r3, #1
    1190:	4293      	cmp	r3, r2
    1192:	6043      	str	r3, [r0, #4]
    1194:	db19      	blt.n	11ca <btn_fsm_step+0x5e>
    1196:	2300      	movs	r3, #0
    1198:	6043      	str	r3, [r0, #4]
    119a:	2302      	movs	r3, #2
    119c:	e006      	b.n	11ac <btn_fsm_step+0x40>
    119e:	2d02      	cmp	r5, #2
    11a0:	d106      	bne.n	11b0 <btn_fsm_step+0x44>
    11a2:	6883      	ldr	r3, [r0, #8]
    11a4:	4798      	blx	r3
    11a6:	b980      	cbnz	r0, 11ca <btn_fsm_step+0x5e>
    11a8:	6060      	str	r0, [r4, #4]
    11aa:	2303      	movs	r3, #3
    11ac:	6023      	str	r3, [r4, #0]
    11ae:	bd38      	pop	{r3, r4, r5, pc}
    11b0:	2d03      	cmp	r5, #3
    11b2:	d10a      	bne.n	11ca <btn_fsm_step+0x5e>
    11b4:	6843      	ldr	r3, [r0, #4]
    11b6:	6942      	ldr	r2, [r0, #20]
    11b8:	3301      	adds	r3, #1
    11ba:	4293      	cmp	r3, r2
    11bc:	6043      	str	r3, [r0, #4]
    11be:	db04      	blt.n	11ca <btn_fsm_step+0x5e>
    11c0:	6883      	ldr	r3, [r0, #8]
    11c2:	4798      	blx	r3
    11c4:	b908      	cbnz	r0, 11ca <btn_fsm_step+0x5e>
    11c6:	6060      	str	r0, [r4, #4]
    11c8:	6020      	str	r0, [r4, #0]
    11ca:	bd38      	pop	{r3, r4, r5, pc}

000011cc <delay_ticks>:
    11cc:	2300      	movs	r3, #0
    11ce:	4283      	cmp	r3, r0
    11d0:	d002      	beq.n	11d8 <delay_ticks+0xc>
    11d2:	bf00      	nop
    11d4:	3301      	adds	r3, #1
    11d6:	e7fa      	b.n	11ce <delay_ticks+0x2>
    11d8:	4770      	bx	lr
	...

000011dc <gpio_set_dir>:
    11dc:	2803      	cmp	r0, #3
    11de:	bf96      	itet	ls
    11e0:	4b03      	ldrls	r3, [pc, #12]	; (11f0 <gpio_set_dir+0x14>)
    11e2:	2000      	movhi	r0, #0
    11e4:	f853 0020 	ldrls.w	r0, [r3, r0, lsl #2]
    11e8:	f500 4000 	add.w	r0, r0, #32768	; 0x8000
    11ec:	f7ff bf3d 	b.w	106a <set_bit>
    11f0:	00004bac 	.word	0x00004bac

000011f4 <gpio_set_dir_in>:
    11f4:	2200      	movs	r2, #0
    11f6:	f7ff bff1 	b.w	11dc <gpio_set_dir>

000011fa <gpio_set_dir_out>:
    11fa:	2201      	movs	r2, #1
    11fc:	f7ff bfee 	b.w	11dc <gpio_set_dir>

00001200 <gpio_set_data_bit>:
    1200:	2803      	cmp	r0, #3
    1202:	bf98      	it	ls
    1204:	4b09      	ldrls	r3, [pc, #36]	; (122c <gpio_set_data_bit+0x2c>)
    1206:	b570      	push	{r4, r5, r6, lr}
    1208:	bf98      	it	ls
    120a:	f853 5020 	ldrls.w	r5, [r3, r0, lsl #2]
    120e:	4608      	mov	r0, r1
    1210:	460c      	mov	r4, r1
    1212:	4616      	mov	r6, r2
    1214:	bf88      	it	hi
    1216:	2500      	movhi	r5, #0
    1218:	f7ff ff14 	bl	1044 <bit_mask>
    121c:	4621      	mov	r1, r4
    121e:	eb05 0080 	add.w	r0, r5, r0, lsl #2
    1222:	4632      	mov	r2, r6
    1224:	e8bd 4070 	ldmia.w	sp!, {r4, r5, r6, lr}
    1228:	f7ff bf1f 	b.w	106a <set_bit>
    122c:	00004bac 	.word	0x00004bac

00001230 <gpio_set_data_bit_zero>:
    1230:	2200      	movs	r2, #0
    1232:	f7ff bfe5 	b.w	1200 <gpio_set_data_bit>

00001236 <gpio_set_data_bit_one>:
    1236:	2201      	movs	r2, #1
    1238:	f7ff bfe2 	b.w	1200 <gpio_set_data_bit>

0000123c <gpio_get_data_bit>:
    123c:	2803      	cmp	r0, #3
    123e:	b538      	push	{r3, r4, r5, lr}
    1240:	bf98      	it	ls
    1242:	4b08      	ldrls	r3, [pc, #32]	; (1264 <gpio_get_data_bit+0x28>)
    1244:	460c      	mov	r4, r1
    1246:	bf98      	it	ls
    1248:	f853 5020 	ldrls.w	r5, [r3, r0, lsl #2]
    124c:	4608      	mov	r0, r1
    124e:	bf88      	it	hi
    1250:	2500      	movhi	r5, #0
    1252:	f7ff fef7 	bl	1044 <bit_mask>
    1256:	4621      	mov	r1, r4
    1258:	eb05 0080 	add.w	r0, r5, r0, lsl #2
    125c:	e8bd 4038 	ldmia.w	sp!, {r3, r4, r5, lr}
    1260:	f7ff bf11 	b.w	1086 <bit_is_set>
    1264:	00004bac 	.word	0x00004bac

00001268 <iocfg_pio2_6_set_func_gpio>:
    1268:	4801      	ldr	r0, [pc, #4]	; (1270 <iocfg_pio2_6_set_func_gpio+0x8>)
    126a:	2107      	movs	r1, #7
    126c:	f7ff bf14 	b.w	1098 <set_all_bits_zero>
    1270:	40044000 	.word	0x40044000

00001274 <iocfg_pio2_6_set_resistor_none>:
    1274:	4801      	ldr	r0, [pc, #4]	; (127c <iocfg_pio2_6_set_resistor_none+0x8>)
    1276:	2118      	movs	r1, #24
    1278:	f7ff bf0e 	b.w	1098 <set_all_bits_zero>
    127c:	40044000 	.word	0x40044000

00001280 <iocfg_pio2_6_set_resistor_pull_down>:
    1280:	b510      	push	{r4, lr}
    1282:	4c05      	ldr	r4, [pc, #20]	; (1298 <iocfg_pio2_6_set_resistor_pull_down+0x18>)
    1284:	2118      	movs	r1, #24
    1286:	4620      	mov	r0, r4
    1288:	f7ff ff06 	bl	1098 <set_all_bits_zero>
    128c:	4620      	mov	r0, r4
    128e:	2108      	movs	r1, #8
    1290:	e8bd 4010 	ldmia.w	sp!, {r4, lr}
    1294:	f7ff bf05 	b.w	10a2 <set_all_bits_one>
    1298:	40044000 	.word	0x40044000

0000129c <iocfg_pio2_6_set_resistor_pull_up>:
    129c:	b510      	push	{r4, lr}
    129e:	4c05      	ldr	r4, [pc, #20]	; (12b4 <iocfg_pio2_6_set_resistor_pull_up+0x18>)
    12a0:	2118      	movs	r1, #24
    12a2:	4620      	mov	r0, r4
    12a4:	f7ff fef8 	bl	1098 <set_all_bits_zero>
    12a8:	4620      	mov	r0, r4
    12aa:	2110      	movs	r1, #16
    12ac:	e8bd 4010 	ldmia.w	sp!, {r4, lr}
    12b0:	f7ff bef7 	b.w	10a2 <set_all_bits_one>
    12b4:	40044000 	.word	0x40044000

000012b8 <iocfg_pio2_6_set_resistor_repeater>:
    12b8:	4801      	ldr	r0, [pc, #4]	; (12c0 <iocfg_pio2_6_set_resistor_repeater+0x8>)
    12ba:	2118      	movs	r1, #24
    12bc:	f7ff bef1 	b.w	10a2 <set_all_bits_one>
    12c0:	40044000 	.word	0x40044000

000012c4 <iocfg_pio2_6_set_hysteresis_disable>:
    12c4:	4801      	ldr	r0, [pc, #4]	; (12cc <iocfg_pio2_6_set_hysteresis_disable+0x8>)
    12c6:	2120      	movs	r1, #32
    12c8:	f7ff bee6 	b.w	1098 <set_all_bits_zero>
    12cc:	40044000 	.word	0x40044000

000012d0 <iocfg_pio2_6_set_hysteresis_enable>:
    12d0:	4801      	ldr	r0, [pc, #4]	; (12d8 <iocfg_pio2_6_set_hysteresis_enable+0x8>)
    12d2:	2120      	movs	r1, #32
    12d4:	f7ff bee5 	b.w	10a2 <set_all_bits_one>
    12d8:	40044000 	.word	0x40044000

000012dc <iocfg_pio2_0_set_func_gpio>:
    12dc:	4801      	ldr	r0, [pc, #4]	; (12e4 <iocfg_pio2_0_set_func_gpio+0x8>)
    12de:	2107      	movs	r1, #7
    12e0:	f7ff beda 	b.w	1098 <set_all_bits_zero>
    12e4:	40044008 	.word	0x40044008

000012e8 <iocfg_pio2_0_set_func_dtr>:
    12e8:	b510      	push	{r4, lr}
    12ea:	4c05      	ldr	r4, [pc, #20]	; (1300 <iocfg_pio2_0_set_func_dtr+0x18>)
    12ec:	2107      	movs	r1, #7
    12ee:	4620      	mov	r0, r4
    12f0:	f7ff fed2 	bl	1098 <set_all_bits_zero>
    12f4:	4620      	mov	r0, r4
    12f6:	2101      	movs	r1, #1
    12f8:	e8bd 4010 	ldmia.w	sp!, {r4, lr}
    12fc:	f7ff bed1 	b.w	10a2 <set_all_bits_one>
    1300:	40044008 	.word	0x40044008

00001304 <iocfg_pio2_0_set_resistor_none>:
    1304:	4801      	ldr	r0, [pc, #4]	; (130c <iocfg_pio2_0_set_resistor_none+0x8>)
    1306:	2118      	movs	r1, #24
    1308:	f7ff bec6 	b.w	1098 <set_all_bits_zero>
    130c:	40044008 	.word	0x40044008

00001310 <iocfg_pio2_0_set_resistor_pull_down>:
    1310:	b510      	push	{r4, lr}
    1312:	4c05      	ldr	r4, [pc, #20]	; (1328 <iocfg_pio2_0_set_resistor_pull_down+0x18>)
    1314:	2118      	movs	r1, #24
    1316:	4620      	mov	r0, r4
    1318:	f7ff febe 	bl	1098 <set_all_bits_zero>
    131c:	4620      	mov	r0, r4
    131e:	2108      	movs	r1, #8
    1320:	e8bd 4010 	ldmia.w	sp!, {r4, lr}
    1324:	f7ff bebd 	b.w	10a2 <set_all_bits_one>
    1328:	40044008 	.word	0x40044008

0000132c <iocfg_pio2_0_set_resistor_pull_up>:
    132c:	b510      	push	{r4, lr}
    132e:	4c05      	ldr	r4, [pc, #20]	; (1344 <iocfg_pio2_0_set_resistor_pull_up+0x18>)
    1330:	2118      	movs	r1, #24
    1332:	4620      	mov	r0, r4
    1334:	f7ff feb0 	bl	1098 <set_all_bits_zero>
    1338:	4620      	mov	r0, r4
    133a:	2110      	movs	r1, #16
    133c:	e8bd 4010 	ldmia.w	sp!, {r4, lr}
    1340:	f7ff beaf 	b.w	10a2 <set_all_bits_one>
    1344:	40044008 	.word	0x40044008

00001348 <iocfg_pio2_0_set_resistor_repeater>:
    1348:	4801      	ldr	r0, [pc, #4]	; (1350 <iocfg_pio2_0_set_resistor_repeater+0x8>)
    134a:	2118      	movs	r1, #24
    134c:	f7ff bea9 	b.w	10a2 <set_all_bits_one>
    1350:	40044008 	.word	0x40044008

00001354 <iocfg_pio2_0_set_hysteresis_disable>:
    1354:	4801      	ldr	r0, [pc, #4]	; (135c <iocfg_pio2_0_set_hysteresis_disable+0x8>)
    1356:	2120      	movs	r1, #32
    1358:	f7ff be9e 	b.w	1098 <set_all_bits_zero>
    135c:	40044008 	.word	0x40044008

00001360 <iocfg_pio2_0_set_hysteresis_enable>:
    1360:	4801      	ldr	r0, [pc, #4]	; (1368 <iocfg_pio2_0_set_hysteresis_enable+0x8>)
    1362:	2120      	movs	r1, #32
    1364:	f7ff be9d 	b.w	10a2 <set_all_bits_one>
    1368:	40044008 	.word	0x40044008

0000136c <iocfg_pio0_0_set_func_reset>:
    136c:	4801      	ldr	r0, [pc, #4]	; (1374 <iocfg_pio0_0_set_func_reset+0x8>)
    136e:	2107      	movs	r1, #7
    1370:	f7ff be92 	b.w	1098 <set_all_bits_zero>
    1374:	4004400c 	.word	0x4004400c

00001378 <iocfg_pio0_0_set_func_gpio>:
    1378:	b510      	push	{r4, lr}
    137a:	4c05      	ldr	r4, [pc, #20]	; (1390 <iocfg_pio0_0_set_func_gpio+0x18>)
    137c:	2107      	movs	r1, #7
    137e:	4620      	mov	r0, r4
    1380:	f7ff fe8a 	bl	1098 <set_all_bits_zero>
    1384:	4620      	mov	r0, r4
    1386:	2101      	movs	r1, #1
    1388:	e8bd 4010 	ldmia.w	sp!, {r4, lr}
    138c:	f7ff be89 	b.w	10a2 <set_all_bits_one>
    1390:	4004400c 	.word	0x4004400c

00001394 <iocfg_pio0_0_set_resistor_none>:
    1394:	4801      	ldr	r0, [pc, #4]	; (139c <iocfg_pio0_0_set_resistor_none+0x8>)
    1396:	2118      	movs	r1, #24
    1398:	f7ff be7e 	b.w	1098 <set_all_bits_zero>
    139c:	4004400c 	.word	0x4004400c

000013a0 <iocfg_pio0_0_set_resistor_pull_down>:
    13a0:	b510      	push	{r4, lr}
    13a2:	4c05      	ldr	r4, [pc, #20]	; (13b8 <iocfg_pio0_0_set_resistor_pull_down+0x18>)
    13a4:	2118      	movs	r1, #24
    13a6:	4620      	mov	r0, r4
    13a8:	f7ff fe76 	bl	1098 <set_all_bits_zero>
    13ac:	4620      	mov	r0, r4
    13ae:	2108      	movs	r1, #8
    13b0:	e8bd 4010 	ldmia.w	sp!, {r4, lr}
    13b4:	f7ff be75 	b.w	10a2 <set_all_bits_one>
    13b8:	4004400c 	.word	0x4004400c

000013bc <iocfg_pio0_0_set_resistor_pull_up>:
    13bc:	b510      	push	{r4, lr}
    13be:	4c05      	ldr	r4, [pc, #20]	; (13d4 <iocfg_pio0_0_set_resistor_pull_up+0x18>)
    13c0:	2118      	movs	r1, #24
    13c2:	4620      	mov	r0, r4
    13c4:	f7ff fe68 	bl	1098 <set_all_bits_zero>
    13c8:	4620      	mov	r0, r4
    13ca:	2110      	movs	r1, #16
    13cc:	e8bd 4010 	ldmia.w	sp!, {r4, lr}
    13d0:	f7ff be67 	b.w	10a2 <set_all_bits_one>
    13d4:	4004400c 	.word	0x4004400c

000013d8 <iocfg_pio0_0_set_resistor_repeater>:
    13d8:	4801      	ldr	r0, [pc, #4]	; (13e0 <iocfg_pio0_0_set_resistor_repeater+0x8>)
    13da:	2118      	movs	r1, #24
    13dc:	f7ff be61 	b.w	10a2 <set_all_bits_one>
    13e0:	4004400c 	.word	0x4004400c

000013e4 <iocfg_pio0_0_set_hysteresis_disable>:
    13e4:	4801      	ldr	r0, [pc, #4]	; (13ec <iocfg_pio0_0_set_hysteresis_disable+0x8>)
    13e6:	2120      	movs	r1, #32
    13e8:	f7ff be56 	b.w	1098 <set_all_bits_zero>
    13ec:	4004400c 	.word	0x4004400c

000013f0 <iocfg_pio0_0_set_hysteresis_enable>:
    13f0:	4801      	ldr	r0, [pc, #4]	; (13f8 <iocfg_pio0_0_set_hysteresis_enable+0x8>)
    13f2:	2120      	movs	r1, #32
    13f4:	f7ff be55 	b.w	10a2 <set_all_bits_one>
    13f8:	4004400c 	.word	0x4004400c

000013fc <iocfg_pio0_1_set_func_gpio>:
    13fc:	4801      	ldr	r0, [pc, #4]	; (1404 <iocfg_pio0_1_set_func_gpio+0x8>)
    13fe:	2107      	movs	r1, #7
    1400:	f7ff be4a 	b.w	1098 <set_all_bits_zero>
    1404:	40044010 	.word	0x40044010

00001408 <iocfg_pio0_1_set_func_clkout>:
    1408:	b510      	push	{r4, lr}
    140a:	4c05      	ldr	r4, [pc, #20]	; (1420 <iocfg_pio0_1_set_func_clkout+0x18>)
    140c:	2107      	movs	r1, #7
    140e:	4620      	mov	r0, r4
    1410:	f7ff fe42 	bl	1098 <set_all_bits_zero>
    1414:	4620      	mov	r0, r4
    1416:	2101      	movs	r1, #1
    1418:	e8bd 4010 	ldmia.w	sp!, {r4, lr}
    141c:	f7ff be41 	b.w	10a2 <set_all_bits_one>
    1420:	40044010 	.word	0x40044010

00001424 <iocfg_pio0_1_set_func_ct32b0_mat2>:
    1424:	b510      	push	{r4, lr}
    1426:	4c05      	ldr	r4, [pc, #20]	; (143c <iocfg_pio0_1_set_func_ct32b0_mat2+0x18>)
    1428:	2107      	movs	r1, #7
    142a:	4620      	mov	r0, r4
    142c:	f7ff fe34 	bl	1098 <set_all_bits_zero>
    1430:	4620      	mov	r0, r4
    1432:	2102      	movs	r1, #2
    1434:	e8bd 4010 	ldmia.w	sp!, {r4, lr}
    1438:	f7ff be33 	b.w	10a2 <set_all_bits_one>
    143c:	40044010 	.word	0x40044010

00001440 <iocfg_pio0_1_set_func_usb_ftoggle>:
    1440:	b510      	push	{r4, lr}
    1442:	4c05      	ldr	r4, [pc, #20]	; (1458 <iocfg_pio0_1_set_func_usb_ftoggle+0x18>)
    1444:	2107      	movs	r1, #7
    1446:	4620      	mov	r0, r4
    1448:	f7ff fe26 	bl	1098 <set_all_bits_zero>
    144c:	4620      	mov	r0, r4
    144e:	2103      	movs	r1, #3
    1450:	e8bd 4010 	ldmia.w	sp!, {r4, lr}
    1454:	f7ff be25 	b.w	10a2 <set_all_bits_one>
    1458:	40044010 	.word	0x40044010

0000145c <iocfg_pio0_1_set_resistor_none>:
    145c:	4801      	ldr	r0, [pc, #4]	; (1464 <iocfg_pio0_1_set_resistor_none+0x8>)
    145e:	2118      	movs	r1, #24
    1460:	f7ff be1a 	b.w	1098 <set_all_bits_zero>
    1464:	40044010 	.word	0x40044010

00001468 <iocfg_pio0_1_set_resistor_pull_down>:
    1468:	b510      	push	{r4, lr}
    146a:	4c05      	ldr	r4, [pc, #20]	; (1480 <iocfg_pio0_1_set_resistor_pull_down+0x18>)
    146c:	2118      	movs	r1, #24
    146e:	4620      	mov	r0, r4
    1470:	f7ff fe12 	bl	1098 <set_all_bits_zero>
    1474:	4620      	mov	r0, r4
    1476:	2108      	movs	r1, #8
    1478:	e8bd 4010 	ldmia.w	sp!, {r4, lr}
    147c:	f7ff be11 	b.w	10a2 <set_all_bits_one>
    1480:	40044010 	.word	0x40044010

00001484 <iocfg_pio0_1_set_resistor_pull_up>:
    1484:	b510      	push	{r4, lr}
    1486:	4c05      	ldr	r4, [pc, #20]	; (149c <iocfg_pio0_1_set_resistor_pull_up+0x18>)
    1488:	2118      	movs	r1, #24
    148a:	4620      	mov	r0, r4
    148c:	f7ff fe04 	bl	1098 <set_all_bits_zero>
    1490:	4620      	mov	r0, r4
    1492:	2110      	movs	r1, #16
    1494:	e8bd 4010 	ldmia.w	sp!, {r4, lr}
    1498:	f7ff be03 	b.w	10a2 <set_all_bits_one>
    149c:	40044010 	.word	0x40044010

000014a0 <iocfg_pio0_1_set_resistor_repeater>:
    14a0:	4801      	ldr	r0, [pc, #4]	; (14a8 <iocfg_pio0_1_set_resistor_repeater+0x8>)
    14a2:	2118      	movs	r1, #24
    14a4:	f7ff bdfd 	b.w	10a2 <set_all_bits_one>
    14a8:	40044010 	.word	0x40044010

000014ac <iocfg_pio0_1_set_hysteresis_disable>:
    14ac:	4801      	ldr	r0, [pc, #4]	; (14b4 <iocfg_pio0_1_set_hysteresis_disable+0x8>)
    14ae:	2120      	movs	r1, #32
    14b0:	f7ff bdf2 	b.w	1098 <set_all_bits_zero>
    14b4:	40044010 	.word	0x40044010

000014b8 <iocfg_pio0_1_set_hysteresis_enable>:
    14b8:	4801      	ldr	r0, [pc, #4]	; (14c0 <iocfg_pio0_1_set_hysteresis_enable+0x8>)
    14ba:	2120      	movs	r1, #32
    14bc:	f7ff bdf1 	b.w	10a2 <set_all_bits_one>
    14c0:	40044010 	.word	0x40044010

000014c4 <iocfg_pio1_8_set_func_gpio>:
    14c4:	4801      	ldr	r0, [pc, #4]	; (14cc <iocfg_pio1_8_set_func_gpio+0x8>)
    14c6:	2107      	movs	r1, #7
    14c8:	f7ff bde6 	b.w	1098 <set_all_bits_zero>
    14cc:	40044014 	.word	0x40044014

000014d0 <iocfg_pio1_8_set_func_ct16b1_cap0>:
    14d0:	b510      	push	{r4, lr}
    14d2:	4c05      	ldr	r4, [pc, #20]	; (14e8 <iocfg_pio1_8_set_func_ct16b1_cap0+0x18>)
    14d4:	2107      	movs	r1, #7
    14d6:	4620      	mov	r0, r4
    14d8:	f7ff fdde 	bl	1098 <set_all_bits_zero>
    14dc:	4620      	mov	r0, r4
    14de:	2101      	movs	r1, #1
    14e0:	e8bd 4010 	ldmia.w	sp!, {r4, lr}
    14e4:	f7ff bddd 	b.w	10a2 <set_all_bits_one>
    14e8:	40044014 	.word	0x40044014

000014ec <iocfg_pio1_8_set_resistor_none>:
    14ec:	4801      	ldr	r0, [pc, #4]	; (14f4 <iocfg_pio1_8_set_resistor_none+0x8>)
    14ee:	2118      	movs	r1, #24
    14f0:	f7ff bdd2 	b.w	1098 <set_all_bits_zero>
    14f4:	40044014 	.word	0x40044014

000014f8 <iocfg_pio1_8_set_resistor_pull_down>:
    14f8:	b510      	push	{r4, lr}
    14fa:	4c05      	ldr	r4, [pc, #20]	; (1510 <iocfg_pio1_8_set_resistor_pull_down+0x18>)
    14fc:	2118      	movs	r1, #24
    14fe:	4620      	mov	r0, r4
    1500:	f7ff fdca 	bl	1098 <set_all_bits_zero>
    1504:	4620      	mov	r0, r4
    1506:	2108      	movs	r1, #8
    1508:	e8bd 4010 	ldmia.w	sp!, {r4, lr}
    150c:	f7ff bdc9 	b.w	10a2 <set_all_bits_one>
    1510:	40044014 	.word	0x40044014

00001514 <iocfg_pio1_8_set_resistor_pull_up>:
    1514:	b510      	push	{r4, lr}
    1516:	4c05      	ldr	r4, [pc, #20]	; (152c <iocfg_pio1_8_set_resistor_pull_up+0x18>)
    1518:	2118      	movs	r1, #24
    151a:	4620      	mov	r0, r4
    151c:	f7ff fdbc 	bl	1098 <set_all_bits_zero>
    1520:	4620      	mov	r0, r4
    1522:	2110      	movs	r1, #16
    1524:	e8bd 4010 	ldmia.w	sp!, {r4, lr}
    1528:	f7ff bdbb 	b.w	10a2 <set_all_bits_one>
    152c:	40044014 	.word	0x40044014

00001530 <iocfg_pio1_8_set_resistor_repeater>:
    1530:	4801      	ldr	r0, [pc, #4]	; (1538 <iocfg_pio1_8_set_resistor_repeater+0x8>)
    1532:	2118      	movs	r1, #24
    1534:	f7ff bdb5 	b.w	10a2 <set_all_bits_one>
    1538:	40044014 	.word	0x40044014

0000153c <iocfg_pio1_8_set_hysteresis_disable>:
    153c:	4801      	ldr	r0, [pc, #4]	; (1544 <iocfg_pio1_8_set_hysteresis_disable+0x8>)
    153e:	2120      	movs	r1, #32
    1540:	f7ff bdaa 	b.w	1098 <set_all_bits_zero>
    1544:	40044014 	.word	0x40044014

00001548 <iocfg_pio1_8_set_hysteresis_enable>:
    1548:	4801      	ldr	r0, [pc, #4]	; (1550 <iocfg_pio1_8_set_hysteresis_enable+0x8>)
    154a:	2120      	movs	r1, #32
    154c:	f7ff bda9 	b.w	10a2 <set_all_bits_one>
    1550:	40044014 	.word	0x40044014

00001554 <iocfg_pio0_2_set_func_gpio>:
    1554:	4801      	ldr	r0, [pc, #4]	; (155c <iocfg_pio0_2_set_func_gpio+0x8>)
    1556:	2107      	movs	r1, #7
    1558:	f7ff bd9e 	b.w	1098 <set_all_bits_zero>
    155c:	4004401c 	.word	0x4004401c

00001560 <iocfg_pio0_2_set_func_ssel>:
    1560:	b510      	push	{r4, lr}
    1562:	4c05      	ldr	r4, [pc, #20]	; (1578 <iocfg_pio0_2_set_func_ssel+0x18>)
    1564:	2107      	movs	r1, #7
    1566:	4620      	mov	r0, r4
    1568:	f7ff fd96 	bl	1098 <set_all_bits_zero>
    156c:	4620      	mov	r0, r4
    156e:	2101      	movs	r1, #1
    1570:	e8bd 4010 	ldmia.w	sp!, {r4, lr}
    1574:	f7ff bd95 	b.w	10a2 <set_all_bits_one>
    1578:	4004401c 	.word	0x4004401c

0000157c <iocfg_pio0_2_set_func_ct16b0_cap0>:
    157c:	b510      	push	{r4, lr}
    157e:	4c05      	ldr	r4, [pc, #20]	; (1594 <iocfg_pio0_2_set_func_ct16b0_cap0+0x18>)
    1580:	2107      	movs	r1, #7
    1582:	4620      	mov	r0, r4
    1584:	f7ff fd88 	bl	1098 <set_all_bits_zero>
    1588:	4620      	mov	r0, r4
    158a:	2102      	movs	r1, #2
    158c:	e8bd 4010 	ldmia.w	sp!, {r4, lr}
    1590:	f7ff bd87 	b.w	10a2 <set_all_bits_one>
    1594:	4004401c 	.word	0x4004401c

00001598 <iocfg_pio0_2_set_resistor_none>:
    1598:	4801      	ldr	r0, [pc, #4]	; (15a0 <iocfg_pio0_2_set_resistor_none+0x8>)
    159a:	2118      	movs	r1, #24
    159c:	f7ff bd7c 	b.w	1098 <set_all_bits_zero>
    15a0:	4004401c 	.word	0x4004401c

000015a4 <iocfg_pio0_2_set_resistor_pull_down>:
    15a4:	b510      	push	{r4, lr}
    15a6:	4c05      	ldr	r4, [pc, #20]	; (15bc <iocfg_pio0_2_set_resistor_pull_down+0x18>)
    15a8:	2118      	movs	r1, #24
    15aa:	4620      	mov	r0, r4
    15ac:	f7ff fd74 	bl	1098 <set_all_bits_zero>
    15b0:	4620      	mov	r0, r4
    15b2:	2108      	movs	r1, #8
    15b4:	e8bd 4010 	ldmia.w	sp!, {r4, lr}
    15b8:	f7ff bd73 	b.w	10a2 <set_all_bits_one>
    15bc:	4004401c 	.word	0x4004401c

000015c0 <iocfg_pio0_2_set_resistor_pull_up>:
    15c0:	b510      	push	{r4, lr}
    15c2:	4c05      	ldr	r4, [pc, #20]	; (15d8 <iocfg_pio0_2_set_resistor_pull_up+0x18>)
    15c4:	2118      	movs	r1, #24
    15c6:	4620      	mov	r0, r4
    15c8:	f7ff fd66 	bl	1098 <set_all_bits_zero>
    15cc:	4620      	mov	r0, r4
    15ce:	2110      	movs	r1, #16
    15d0:	e8bd 4010 	ldmia.w	sp!, {r4, lr}
    15d4:	f7ff bd65 	b.w	10a2 <set_all_bits_one>
    15d8:	4004401c 	.word	0x4004401c

000015dc <iocfg_pio0_2_set_resistor_repeater>:
    15dc:	4801      	ldr	r0, [pc, #4]	; (15e4 <iocfg_pio0_2_set_resistor_repeater+0x8>)
    15de:	2118      	movs	r1, #24
    15e0:	f7ff bd5f 	b.w	10a2 <set_all_bits_one>
    15e4:	4004401c 	.word	0x4004401c

000015e8 <iocfg_pio0_2_set_hysteresis_disable>:
    15e8:	4801      	ldr	r0, [pc, #4]	; (15f0 <iocfg_pio0_2_set_hysteresis_disable+0x8>)
    15ea:	2120      	movs	r1, #32
    15ec:	f7ff bd54 	b.w	1098 <set_all_bits_zero>
    15f0:	4004401c 	.word	0x4004401c

000015f4 <iocfg_pio0_2_set_hysteresis_enable>:
    15f4:	4801      	ldr	r0, [pc, #4]	; (15fc <iocfg_pio0_2_set_hysteresis_enable+0x8>)
    15f6:	2120      	movs	r1, #32
    15f8:	f7ff bd53 	b.w	10a2 <set_all_bits_one>
    15fc:	4004401c 	.word	0x4004401c

00001600 <iocfg_pio2_7_set_func_gpio>:
    1600:	4801      	ldr	r0, [pc, #4]	; (1608 <iocfg_pio2_7_set_func_gpio+0x8>)
    1602:	2107      	movs	r1, #7
    1604:	f7ff bd48 	b.w	1098 <set_all_bits_zero>
    1608:	40044020 	.word	0x40044020

0000160c <iocfg_pio2_7_set_resistor_none>:
    160c:	4801      	ldr	r0, [pc, #4]	; (1614 <iocfg_pio2_7_set_resistor_none+0x8>)
    160e:	2118      	movs	r1, #24
    1610:	f7ff bd42 	b.w	1098 <set_all_bits_zero>
    1614:	40044020 	.word	0x40044020

00001618 <iocfg_pio2_7_set_resistor_pull_down>:
    1618:	b510      	push	{r4, lr}
    161a:	4c05      	ldr	r4, [pc, #20]	; (1630 <iocfg_pio2_7_set_resistor_pull_down+0x18>)
    161c:	2118      	movs	r1, #24
    161e:	4620      	mov	r0, r4
    1620:	f7ff fd3a 	bl	1098 <set_all_bits_zero>
    1624:	4620      	mov	r0, r4
    1626:	2108      	movs	r1, #8
    1628:	e8bd 4010 	ldmia.w	sp!, {r4, lr}
    162c:	f7ff bd39 	b.w	10a2 <set_all_bits_one>
    1630:	40044020 	.word	0x40044020

00001634 <iocfg_pio2_7_set_resistor_pull_up>:
    1634:	b510      	push	{r4, lr}
    1636:	4c05      	ldr	r4, [pc, #20]	; (164c <iocfg_pio2_7_set_resistor_pull_up+0x18>)
    1638:	2118      	movs	r1, #24
    163a:	4620      	mov	r0, r4
    163c:	f7ff fd2c 	bl	1098 <set_all_bits_zero>
    1640:	4620      	mov	r0, r4
    1642:	2110      	movs	r1, #16
    1644:	e8bd 4010 	ldmia.w	sp!, {r4, lr}
    1648:	f7ff bd2b 	b.w	10a2 <set_all_bits_one>
    164c:	40044020 	.word	0x40044020

00001650 <iocfg_pio2_7_set_resistor_repeater>:
    1650:	4801      	ldr	r0, [pc, #4]	; (1658 <iocfg_pio2_7_set_resistor_repeater+0x8>)
    1652:	2118      	movs	r1, #24
    1654:	f7ff bd25 	b.w	10a2 <set_all_bits_one>
    1658:	40044020 	.word	0x40044020

0000165c <iocfg_pio2_7_set_hysteresis_disable>:
    165c:	4801      	ldr	r0, [pc, #4]	; (1664 <iocfg_pio2_7_set_hysteresis_disable+0x8>)
    165e:	2120      	movs	r1, #32
    1660:	f7ff bd1a 	b.w	1098 <set_all_bits_zero>
    1664:	40044020 	.word	0x40044020

00001668 <iocfg_pio2_7_set_hysteresis_enable>:
    1668:	4801      	ldr	r0, [pc, #4]	; (1670 <iocfg_pio2_7_set_hysteresis_enable+0x8>)
    166a:	2120      	movs	r1, #32
    166c:	f7ff bd19 	b.w	10a2 <set_all_bits_one>
    1670:	40044020 	.word	0x40044020

00001674 <iocfg_pio2_8_set_func_gpio>:
    1674:	4801      	ldr	r0, [pc, #4]	; (167c <iocfg_pio2_8_set_func_gpio+0x8>)
    1676:	2107      	movs	r1, #7
    1678:	f7ff bd0e 	b.w	1098 <set_all_bits_zero>
    167c:	40044024 	.word	0x40044024

00001680 <iocfg_pio2_8_set_resistor_none>:
    1680:	4801      	ldr	r0, [pc, #4]	; (1688 <iocfg_pio2_8_set_resistor_none+0x8>)
    1682:	2118      	movs	r1, #24
    1684:	f7ff bd08 	b.w	1098 <set_all_bits_zero>
    1688:	40044024 	.word	0x40044024

0000168c <iocfg_pio2_8_set_resistor_pull_down>:
    168c:	b510      	push	{r4, lr}
    168e:	4c05      	ldr	r4, [pc, #20]	; (16a4 <iocfg_pio2_8_set_resistor_pull_down+0x18>)
    1690:	2118      	movs	r1, #24
    1692:	4620      	mov	r0, r4
    1694:	f7ff fd00 	bl	1098 <set_all_bits_zero>
    1698:	4620      	mov	r0, r4
    169a:	2108      	movs	r1, #8
    169c:	e8bd 4010 	ldmia.w	sp!, {r4, lr}
    16a0:	f7ff bcff 	b.w	10a2 <set_all_bits_one>
    16a4:	40044024 	.word	0x40044024

000016a8 <iocfg_pio2_8_set_resistor_pull_up>:
    16a8:	b510      	push	{r4, lr}
    16aa:	4c05      	ldr	r4, [pc, #20]	; (16c0 <iocfg_pio2_8_set_resistor_pull_up+0x18>)
    16ac:	2118      	movs	r1, #24
    16ae:	4620      	mov	r0, r4
    16b0:	f7ff fcf2 	bl	1098 <set_all_bits_zero>
    16b4:	4620      	mov	r0, r4
    16b6:	2110      	movs	r1, #16
    16b8:	e8bd 4010 	ldmia.w	sp!, {r4, lr}
    16bc:	f7ff bcf1 	b.w	10a2 <set_all_bits_one>
    16c0:	40044024 	.word	0x40044024

000016c4 <iocfg_pio2_8_set_resistor_repeater>:
    16c4:	4801      	ldr	r0, [pc, #4]	; (16cc <iocfg_pio2_8_set_resistor_repeater+0x8>)
    16c6:	2118      	movs	r1, #24
    16c8:	f7ff bceb 	b.w	10a2 <set_all_bits_one>
    16cc:	40044024 	.word	0x40044024

000016d0 <iocfg_pio2_8_set_hysteresis_disable>:
    16d0:	4801      	ldr	r0, [pc, #4]	; (16d8 <iocfg_pio2_8_set_hysteresis_disable+0x8>)
    16d2:	2120      	movs	r1, #32
    16d4:	f7ff bce0 	b.w	1098 <set_all_bits_zero>
    16d8:	40044024 	.word	0x40044024

000016dc <iocfg_pio2_8_set_hysteresis_enable>:
    16dc:	4801      	ldr	r0, [pc, #4]	; (16e4 <iocfg_pio2_8_set_hysteresis_enable+0x8>)
    16de:	2120      	movs	r1, #32
    16e0:	f7ff bcdf 	b.w	10a2 <set_all_bits_one>
    16e4:	40044024 	.word	0x40044024

000016e8 <iocfg_pio2_1_set_func_gpio>:
    16e8:	4801      	ldr	r0, [pc, #4]	; (16f0 <iocfg_pio2_1_set_func_gpio+0x8>)
    16ea:	2107      	movs	r1, #7
    16ec:	f7ff bcd4 	b.w	1098 <set_all_bits_zero>
    16f0:	40044028 	.word	0x40044028

000016f4 <iocfg_pio2_1_set_func_dsr>:
    16f4:	b510      	push	{r4, lr}
    16f6:	4c05      	ldr	r4, [pc, #20]	; (170c <iocfg_pio2_1_set_func_dsr+0x18>)
    16f8:	2107      	movs	r1, #7
    16fa:	4620      	mov	r0, r4
    16fc:	f7ff fccc 	bl	1098 <set_all_bits_zero>
    1700:	4620      	mov	r0, r4
    1702:	2101      	movs	r1, #1
    1704:	e8bd 4010 	ldmia.w	sp!, {r4, lr}
    1708:	f7ff bccb 	b.w	10a2 <set_all_bits_one>
    170c:	40044028 	.word	0x40044028

00001710 <iocfg_pio2_1_set_resistor_none>:
    1710:	4801      	ldr	r0, [pc, #4]	; (1718 <iocfg_pio2_1_set_resistor_none+0x8>)
    1712:	2118      	movs	r1, #24
    1714:	f7ff bcc0 	b.w	1098 <set_all_bits_zero>
    1718:	40044028 	.word	0x40044028

0000171c <iocfg_pio2_1_set_resistor_pull_down>:
    171c:	b510      	push	{r4, lr}
    171e:	4c05      	ldr	r4, [pc, #20]	; (1734 <iocfg_pio2_1_set_resistor_pull_down+0x18>)
    1720:	2118      	movs	r1, #24
    1722:	4620      	mov	r0, r4
    1724:	f7ff fcb8 	bl	1098 <set_all_bits_zero>
    1728:	4620      	mov	r0, r4
    172a:	2108      	movs	r1, #8
    172c:	e8bd 4010 	ldmia.w	sp!, {r4, lr}
    1730:	f7ff bcb7 	b.w	10a2 <set_all_bits_one>
    1734:	40044028 	.word	0x40044028

00001738 <iocfg_pio2_1_set_resistor_pull_up>:
    1738:	b510      	push	{r4, lr}
    173a:	4c05      	ldr	r4, [pc, #20]	; (1750 <iocfg_pio2_1_set_resistor_pull_up+0x18>)
    173c:	2118      	movs	r1, #24
    173e:	4620      	mov	r0, r4
    1740:	f7ff fcaa 	bl	1098 <set_all_bits_zero>
    1744:	4620      	mov	r0, r4
    1746:	2110      	movs	r1, #16
    1748:	e8bd 4010 	ldmia.w	sp!, {r4, lr}
    174c:	f7ff bca9 	b.w	10a2 <set_all_bits_one>
    1750:	40044028 	.word	0x40044028

00001754 <iocfg_pio2_1_set_resistor_repeater>:
    1754:	4801      	ldr	r0, [pc, #4]	; (175c <iocfg_pio2_1_set_resistor_repeater+0x8>)
    1756:	2118      	movs	r1, #24
    1758:	f7ff bca3 	b.w	10a2 <set_all_bits_one>
    175c:	40044028 	.word	0x40044028

00001760 <iocfg_pio2_1_set_hysteresis_disable>:
    1760:	4801      	ldr	r0, [pc, #4]	; (1768 <iocfg_pio2_1_set_hysteresis_disable+0x8>)
    1762:	2120      	movs	r1, #32
    1764:	f7ff bc98 	b.w	1098 <set_all_bits_zero>
    1768:	40044028 	.word	0x40044028

0000176c <iocfg_pio2_1_set_hysteresis_enable>:
    176c:	4801      	ldr	r0, [pc, #4]	; (1774 <iocfg_pio2_1_set_hysteresis_enable+0x8>)
    176e:	2120      	movs	r1, #32
    1770:	f7ff bc97 	b.w	10a2 <set_all_bits_one>
    1774:	40044028 	.word	0x40044028

00001778 <iocfg_pio0_3_set_func_gpio>:
    1778:	4801      	ldr	r0, [pc, #4]	; (1780 <iocfg_pio0_3_set_func_gpio+0x8>)
    177a:	2107      	movs	r1, #7
    177c:	f7ff bc8c 	b.w	1098 <set_all_bits_zero>
    1780:	4004402c 	.word	0x4004402c

00001784 <iocfg_pio0_3_set_func_usb_vbus>:
    1784:	b510      	push	{r4, lr}
    1786:	4c05      	ldr	r4, [pc, #20]	; (179c <iocfg_pio0_3_set_func_usb_vbus+0x18>)
    1788:	2107      	movs	r1, #7
    178a:	4620      	mov	r0, r4
    178c:	f7ff fc84 	bl	1098 <set_all_bits_zero>
    1790:	4620      	mov	r0, r4
    1792:	2101      	movs	r1, #1
    1794:	e8bd 4010 	ldmia.w	sp!, {r4, lr}
    1798:	f7ff bc83 	b.w	10a2 <set_all_bits_one>
    179c:	4004402c 	.word	0x4004402c

000017a0 <iocfg_pio0_3_set_resistor_none>:
    17a0:	4801      	ldr	r0, [pc, #4]	; (17a8 <iocfg_pio0_3_set_resistor_none+0x8>)
    17a2:	2118      	movs	r1, #24
    17a4:	f7ff bc78 	b.w	1098 <set_all_bits_zero>
    17a8:	4004402c 	.word	0x4004402c

000017ac <iocfg_pio0_3_set_resistor_pull_down>:
    17ac:	b510      	push	{r4, lr}
    17ae:	4c05      	ldr	r4, [pc, #20]	; (17c4 <iocfg_pio0_3_set_resistor_pull_down+0x18>)
    17b0:	2118      	movs	r1, #24
    17b2:	4620      	mov	r0, r4
    17b4:	f7ff fc70 	bl	1098 <set_all_bits_zero>
    17b8:	4620      	mov	r0, r4
    17ba:	2108      	movs	r1, #8
    17bc:	e8bd 4010 	ldmia.w	sp!, {r4, lr}
    17c0:	f7ff bc6f 	b.w	10a2 <set_all_bits_one>
    17c4:	4004402c 	.word	0x4004402c

000017c8 <iocfg_pio0_3_set_resistor_pull_up>:
    17c8:	b510      	push	{r4, lr}
    17ca:	4c05      	ldr	r4, [pc, #20]	; (17e0 <iocfg_pio0_3_set_resistor_pull_up+0x18>)
    17cc:	2118      	movs	r1, #24
    17ce:	4620      	mov	r0, r4
    17d0:	f7ff fc62 	bl	1098 <set_all_bits_zero>
    17d4:	4620      	mov	r0, r4
    17d6:	2110      	movs	r1, #16
    17d8:	e8bd 4010 	ldmia.w	sp!, {r4, lr}
    17dc:	f7ff bc61 	b.w	10a2 <set_all_bits_one>
    17e0:	4004402c 	.word	0x4004402c

000017e4 <iocfg_pio0_3_set_resistor_repeater>:
    17e4:	4801      	ldr	r0, [pc, #4]	; (17ec <iocfg_pio0_3_set_resistor_repeater+0x8>)
    17e6:	2118      	movs	r1, #24
    17e8:	f7ff bc5b 	b.w	10a2 <set_all_bits_one>
    17ec:	4004402c 	.word	0x4004402c

000017f0 <iocfg_pio0_3_set_hysteresis_disable>:
    17f0:	4801      	ldr	r0, [pc, #4]	; (17f8 <iocfg_pio0_3_set_hysteresis_disable+0x8>)
    17f2:	2120      	movs	r1, #32
    17f4:	f7ff bc50 	b.w	1098 <set_all_bits_zero>
    17f8:	4004402c 	.word	0x4004402c

000017fc <iocfg_pio0_3_set_hysteresis_enable>:
    17fc:	4801      	ldr	r0, [pc, #4]	; (1804 <iocfg_pio0_3_set_hysteresis_enable+0x8>)
    17fe:	2120      	movs	r1, #32
    1800:	f7ff bc4f 	b.w	10a2 <set_all_bits_one>
    1804:	4004402c 	.word	0x4004402c

00001808 <iocfg_pio0_4_set_func_gpio>:
    1808:	b510      	push	{r4, lr}
    180a:	4c08      	ldr	r4, [pc, #32]	; (182c <iocfg_pio0_4_set_func_gpio+0x24>)
    180c:	2107      	movs	r1, #7
    180e:	4620      	mov	r0, r4
    1810:	f7ff fc42 	bl	1098 <set_all_bits_zero>
    1814:	4620      	mov	r0, r4
    1816:	f44f 7140 	mov.w	r1, #768	; 0x300
    181a:	f7ff fc3d 	bl	1098 <set_all_bits_zero>
    181e:	4620      	mov	r0, r4
    1820:	f44f 7180 	mov.w	r1, #256	; 0x100
    1824:	e8bd 4010 	ldmia.w	sp!, {r4, lr}
    1828:	f7ff bc3b 	b.w	10a2 <set_all_bits_one>
    182c:	40044030 	.word	0x40044030

00001830 <iocfg_pio0_4_set_func_scl_i2c_standard_or_fast>:
    1830:	b510      	push	{r4, lr}
    1832:	4c08      	ldr	r4, [pc, #32]	; (1854 <iocfg_pio0_4_set_func_scl_i2c_standard_or_fast+0x24>)
    1834:	2107      	movs	r1, #7
    1836:	4620      	mov	r0, r4
    1838:	f7ff fc2e 	bl	1098 <set_all_bits_zero>
    183c:	4620      	mov	r0, r4
    183e:	2101      	movs	r1, #1
    1840:	f7ff fc2f 	bl	10a2 <set_all_bits_one>
    1844:	4620      	mov	r0, r4
    1846:	f44f 7140 	mov.w	r1, #768	; 0x300
    184a:	e8bd 4010 	ldmia.w	sp!, {r4, lr}
    184e:	f7ff bc23 	b.w	1098 <set_all_bits_zero>
    1852:	bf00      	nop
    1854:	40044030 	.word	0x40044030

00001858 <iocfg_pio0_4_set_func_scl_i2c_fast_plus>:
    1858:	b510      	push	{r4, lr}
    185a:	4c0a      	ldr	r4, [pc, #40]	; (1884 <iocfg_pio0_4_set_func_scl_i2c_fast_plus+0x2c>)
    185c:	2107      	movs	r1, #7
    185e:	4620      	mov	r0, r4
    1860:	f7ff fc1a 	bl	1098 <set_all_bits_zero>
    1864:	4620      	mov	r0, r4
    1866:	2101      	movs	r1, #1
    1868:	f7ff fc1b 	bl	10a2 <set_all_bits_one>
    186c:	4620      	mov	r0, r4
    186e:	f44f 7140 	mov.w	r1, #768	; 0x300
    1872:	f7ff fc11 	bl	1098 <set_all_bits_zero>
    1876:	4620      	mov	r0, r4
    1878:	f44f 7100 	mov.w	r1, #512	; 0x200
    187c:	e8bd 4010 	ldmia.w	sp!, {r4, lr}
    1880:	f7ff bc0f 	b.w	10a2 <set_all_bits_one>
    1884:	40044030 	.word	0x40044030

00001888 <iocfg_pio0_5_set_func_gpio>:
    1888:	b510      	push	{r4, lr}
    188a:	4c08      	ldr	r4, [pc, #32]	; (18ac <iocfg_pio0_5_set_func_gpio+0x24>)
    188c:	2107      	movs	r1, #7
    188e:	4620      	mov	r0, r4
    1890:	f7ff fc02 	bl	1098 <set_all_bits_zero>
    1894:	4620      	mov	r0, r4
    1896:	f44f 7140 	mov.w	r1, #768	; 0x300
    189a:	f7ff fbfd 	bl	1098 <set_all_bits_zero>
    189e:	4620      	mov	r0, r4
    18a0:	f44f 7180 	mov.w	r1, #256	; 0x100
    18a4:	e8bd 4010 	ldmia.w	sp!, {r4, lr}
    18a8:	f7ff bbfb 	b.w	10a2 <set_all_bits_one>
    18ac:	40044034 	.word	0x40044034

000018b0 <iocfg_pio0_5_set_func_sda_i2c_standard_or_fast>:
    18b0:	b510      	push	{r4, lr}
    18b2:	4c08      	ldr	r4, [pc, #32]	; (18d4 <iocfg_pio0_5_set_func_sda_i2c_standard_or_fast+0x24>)
    18b4:	2107      	movs	r1, #7
    18b6:	4620      	mov	r0, r4
    18b8:	f7ff fbee 	bl	1098 <set_all_bits_zero>
    18bc:	4620      	mov	r0, r4
    18be:	2101      	movs	r1, #1
    18c0:	f7ff fbef 	bl	10a2 <set_all_bits_one>
    18c4:	4620      	mov	r0, r4
    18c6:	f44f 7140 	mov.w	r1, #768	; 0x300
    18ca:	e8bd 4010 	ldmia.w	sp!, {r4, lr}
    18ce:	f7ff bbe3 	b.w	1098 <set_all_bits_zero>
    18d2:	bf00      	nop
    18d4:	40044034 	.word	0x40044034

000018d8 <iocfg_pio0_5_set_func_sda_i2c_fast_plus>:
    18d8:	b510      	push	{r4, lr}
    18da:	4c0a      	ldr	r4, [pc, #40]	; (1904 <iocfg_pio0_5_set_func_sda_i2c_fast_plus+0x2c>)
    18dc:	2107      	movs	r1, #7
    18de:	4620      	mov	r0, r4
    18e0:	f7ff fbda 	bl	1098 <set_all_bits_zero>
    18e4:	4620      	mov	r0, r4
    18e6:	2101      	movs	r1, #1
    18e8:	f7ff fbdb 	bl	10a2 <set_all_bits_one>
    18ec:	4620      	mov	r0, r4
    18ee:	f44f 7140 	mov.w	r1, #768	; 0x300
    18f2:	f7ff fbd1 	bl	1098 <set_all_bits_zero>
    18f6:	4620      	mov	r0, r4
    18f8:	f44f 7100 	mov.w	r1, #512	; 0x200
    18fc:	e8bd 4010 	ldmia.w	sp!, {r4, lr}
    1900:	f7ff bbcf 	b.w	10a2 <set_all_bits_one>
    1904:	40044034 	.word	0x40044034

00001908 <iocfg_pio1_9_set_func_gpio>:
    1908:	4801      	ldr	r0, [pc, #4]	; (1910 <iocfg_pio1_9_set_func_gpio+0x8>)
    190a:	2107      	movs	r1, #7
    190c:	f7ff bbc4 	b.w	1098 <set_all_bits_zero>
    1910:	40044038 	.word	0x40044038

00001914 <iocfg_pio1_9_set_func_ct16b1_mat0>:
    1914:	b510      	push	{r4, lr}
    1916:	4c05      	ldr	r4, [pc, #20]	; (192c <iocfg_pio1_9_set_func_ct16b1_mat0+0x18>)
    1918:	2107      	movs	r1, #7
    191a:	4620      	mov	r0, r4
    191c:	f7ff fbbc 	bl	1098 <set_all_bits_zero>
    1920:	4620      	mov	r0, r4
    1922:	2101      	movs	r1, #1
    1924:	e8bd 4010 	ldmia.w	sp!, {r4, lr}
    1928:	f7ff bbbb 	b.w	10a2 <set_all_bits_one>
    192c:	40044038 	.word	0x40044038

00001930 <iocfg_pio1_9_set_resistor_none>:
    1930:	4801      	ldr	r0, [pc, #4]	; (1938 <iocfg_pio1_9_set_resistor_none+0x8>)
    1932:	2118      	movs	r1, #24
    1934:	f7ff bbb0 	b.w	1098 <set_all_bits_zero>
    1938:	40044038 	.word	0x40044038

0000193c <iocfg_pio1_9_set_resistor_pull_down>:
    193c:	b510      	push	{r4, lr}
    193e:	4c05      	ldr	r4, [pc, #20]	; (1954 <iocfg_pio1_9_set_resistor_pull_down+0x18>)
    1940:	2118      	movs	r1, #24
    1942:	4620      	mov	r0, r4
    1944:	f7ff fba8 	bl	1098 <set_all_bits_zero>
    1948:	4620      	mov	r0, r4
    194a:	2108      	movs	r1, #8
    194c:	e8bd 4010 	ldmia.w	sp!, {r4, lr}
    1950:	f7ff bba7 	b.w	10a2 <set_all_bits_one>
    1954:	40044038 	.word	0x40044038

00001958 <iocfg_pio1_9_set_resistor_pull_up>:
    1958:	b510      	push	{r4, lr}
    195a:	4c05      	ldr	r4, [pc, #20]	; (1970 <iocfg_pio1_9_set_resistor_pull_up+0x18>)
    195c:	2118      	movs	r1, #24
    195e:	4620      	mov	r0, r4
    1960:	f7ff fb9a 	bl	1098 <set_all_bits_zero>
    1964:	4620      	mov	r0, r4
    1966:	2110      	movs	r1, #16
    1968:	e8bd 4010 	ldmia.w	sp!, {r4, lr}
    196c:	f7ff bb99 	b.w	10a2 <set_all_bits_one>
    1970:	40044038 	.word	0x40044038

00001974 <iocfg_pio1_9_set_resistor_repeater>:
    1974:	4801      	ldr	r0, [pc, #4]	; (197c <iocfg_pio1_9_set_resistor_repeater+0x8>)
    1976:	2118      	movs	r1, #24
    1978:	f7ff bb93 	b.w	10a2 <set_all_bits_one>
    197c:	40044038 	.word	0x40044038

00001980 <iocfg_pio1_9_set_hysteresis_disable>:
    1980:	4801      	ldr	r0, [pc, #4]	; (1988 <iocfg_pio1_9_set_hysteresis_disable+0x8>)
    1982:	2120      	movs	r1, #32
    1984:	f7ff bb88 	b.w	1098 <set_all_bits_zero>
    1988:	40044038 	.word	0x40044038

0000198c <iocfg_pio1_9_set_hysteresis_enable>:
    198c:	4801      	ldr	r0, [pc, #4]	; (1994 <iocfg_pio1_9_set_hysteresis_enable+0x8>)
    198e:	2120      	movs	r1, #32
    1990:	f7ff bb87 	b.w	10a2 <set_all_bits_one>
    1994:	40044038 	.word	0x40044038

00001998 <iocfg_pio2_4_set_func_gpio>:
    1998:	4801      	ldr	r0, [pc, #4]	; (19a0 <iocfg_pio2_4_set_func_gpio+0x8>)
    199a:	2107      	movs	r1, #7
    199c:	f7ff bb7c 	b.w	1098 <set_all_bits_zero>
    19a0:	40044040 	.word	0x40044040

000019a4 <iocfg_pio2_4_set_resistor_none>:
    19a4:	4801      	ldr	r0, [pc, #4]	; (19ac <iocfg_pio2_4_set_resistor_none+0x8>)
    19a6:	2118      	movs	r1, #24
    19a8:	f7ff bb76 	b.w	1098 <set_all_bits_zero>
    19ac:	40044040 	.word	0x40044040

000019b0 <iocfg_pio2_4_set_resistor_pull_down>:
    19b0:	b510      	push	{r4, lr}
    19b2:	4c05      	ldr	r4, [pc, #20]	; (19c8 <iocfg_pio2_4_set_resistor_pull_down+0x18>)
    19b4:	2118      	movs	r1, #24
    19b6:	4620      	mov	r0, r4
    19b8:	f7ff fb6e 	bl	1098 <set_all_bits_zero>
    19bc:	4620      	mov	r0, r4
    19be:	2108      	movs	r1, #8
    19c0:	e8bd 4010 	ldmia.w	sp!, {r4, lr}
    19c4:	f7ff bb6d 	b.w	10a2 <set_all_bits_one>
    19c8:	40044040 	.word	0x40044040

000019cc <iocfg_pio2_4_set_resistor_pull_up>:
    19cc:	b510      	push	{r4, lr}
    19ce:	4c05      	ldr	r4, [pc, #20]	; (19e4 <iocfg_pio2_4_set_resistor_pull_up+0x18>)
    19d0:	2118      	movs	r1, #24
    19d2:	4620      	mov	r0, r4
    19d4:	f7ff fb60 	bl	1098 <set_all_bits_zero>
    19d8:	4620      	mov	r0, r4
    19da:	2110      	movs	r1, #16
    19dc:	e8bd 4010 	ldmia.w	sp!, {r4, lr}
    19e0:	f7ff bb5f 	b.w	10a2 <set_all_bits_one>
    19e4:	40044040 	.word	0x40044040

000019e8 <iocfg_pio2_4_set_resistor_repeater>:
    19e8:	4801      	ldr	r0, [pc, #4]	; (19f0 <iocfg_pio2_4_set_resistor_repeater+0x8>)
    19ea:	2118      	movs	r1, #24
    19ec:	f7ff bb59 	b.w	10a2 <set_all_bits_one>
    19f0:	40044040 	.word	0x40044040

000019f4 <iocfg_pio2_4_set_hysteresis_disable>:
    19f4:	4801      	ldr	r0, [pc, #4]	; (19fc <iocfg_pio2_4_set_hysteresis_disable+0x8>)
    19f6:	2120      	movs	r1, #32
    19f8:	f7ff bb4e 	b.w	1098 <set_all_bits_zero>
    19fc:	40044040 	.word	0x40044040

00001a00 <iocfg_pio2_4_set_hysteresis_enable>:
    1a00:	4801      	ldr	r0, [pc, #4]	; (1a08 <iocfg_pio2_4_set_hysteresis_enable+0x8>)
    1a02:	2120      	movs	r1, #32
    1a04:	f7ff bb4d 	b.w	10a2 <set_all_bits_one>
    1a08:	40044040 	.word	0x40044040

00001a0c <iocfg_pio2_5_set_func_gpio>:
    1a0c:	4801      	ldr	r0, [pc, #4]	; (1a14 <iocfg_pio2_5_set_func_gpio+0x8>)
    1a0e:	2107      	movs	r1, #7
    1a10:	f7ff bb42 	b.w	1098 <set_all_bits_zero>
    1a14:	40044044 	.word	0x40044044

00001a18 <iocfg_pio2_5_set_resistor_none>:
    1a18:	4801      	ldr	r0, [pc, #4]	; (1a20 <iocfg_pio2_5_set_resistor_none+0x8>)
    1a1a:	2118      	movs	r1, #24
    1a1c:	f7ff bb3c 	b.w	1098 <set_all_bits_zero>
    1a20:	40044044 	.word	0x40044044

00001a24 <iocfg_pio2_5_set_resistor_pull_down>:
    1a24:	b510      	push	{r4, lr}
    1a26:	4c05      	ldr	r4, [pc, #20]	; (1a3c <iocfg_pio2_5_set_resistor_pull_down+0x18>)
    1a28:	2118      	movs	r1, #24
    1a2a:	4620      	mov	r0, r4
    1a2c:	f7ff fb34 	bl	1098 <set_all_bits_zero>
    1a30:	4620      	mov	r0, r4
    1a32:	2108      	movs	r1, #8
    1a34:	e8bd 4010 	ldmia.w	sp!, {r4, lr}
    1a38:	f7ff bb33 	b.w	10a2 <set_all_bits_one>
    1a3c:	40044044 	.word	0x40044044

00001a40 <iocfg_pio2_5_set_resistor_pull_up>:
    1a40:	b510      	push	{r4, lr}
    1a42:	4c05      	ldr	r4, [pc, #20]	; (1a58 <iocfg_pio2_5_set_resistor_pull_up+0x18>)
    1a44:	2118      	movs	r1, #24
    1a46:	4620      	mov	r0, r4
    1a48:	f7ff fb26 	bl	1098 <set_all_bits_zero>
    1a4c:	4620      	mov	r0, r4
    1a4e:	2110      	movs	r1, #16
    1a50:	e8bd 4010 	ldmia.w	sp!, {r4, lr}
    1a54:	f7ff bb25 	b.w	10a2 <set_all_bits_one>
    1a58:	40044044 	.word	0x40044044

00001a5c <iocfg_pio2_5_set_resistor_repeater>:
    1a5c:	4801      	ldr	r0, [pc, #4]	; (1a64 <iocfg_pio2_5_set_resistor_repeater+0x8>)
    1a5e:	2118      	movs	r1, #24
    1a60:	f7ff bb1f 	b.w	10a2 <set_all_bits_one>
    1a64:	40044044 	.word	0x40044044

00001a68 <iocfg_pio2_5_set_hysteresis_disable>:
    1a68:	4801      	ldr	r0, [pc, #4]	; (1a70 <iocfg_pio2_5_set_hysteresis_disable+0x8>)
    1a6a:	2120      	movs	r1, #32
    1a6c:	f7ff bb14 	b.w	1098 <set_all_bits_zero>
    1a70:	40044044 	.word	0x40044044

00001a74 <iocfg_pio2_5_set_hysteresis_enable>:
    1a74:	4801      	ldr	r0, [pc, #4]	; (1a7c <iocfg_pio2_5_set_hysteresis_enable+0x8>)
    1a76:	2120      	movs	r1, #32
    1a78:	f7ff bb13 	b.w	10a2 <set_all_bits_one>
    1a7c:	40044044 	.word	0x40044044

00001a80 <iocfg_pio0_6_set_func_gpio>:
    1a80:	4801      	ldr	r0, [pc, #4]	; (1a88 <iocfg_pio0_6_set_func_gpio+0x8>)
    1a82:	2107      	movs	r1, #7
    1a84:	f7ff bb08 	b.w	1098 <set_all_bits_zero>
    1a88:	4004404c 	.word	0x4004404c

00001a8c <iocfg_pio0_6_set_func_usb_connect>:
    1a8c:	b510      	push	{r4, lr}
    1a8e:	4c05      	ldr	r4, [pc, #20]	; (1aa4 <iocfg_pio0_6_set_func_usb_connect+0x18>)
    1a90:	2107      	movs	r1, #7
    1a92:	4620      	mov	r0, r4
    1a94:	f7ff fb00 	bl	1098 <set_all_bits_zero>
    1a98:	4620      	mov	r0, r4
    1a9a:	2101      	movs	r1, #1
    1a9c:	e8bd 4010 	ldmia.w	sp!, {r4, lr}
    1aa0:	f7ff baff 	b.w	10a2 <set_all_bits_one>
    1aa4:	4004404c 	.word	0x4004404c

00001aa8 <iocfg_pio0_6_set_func_sck>:
    1aa8:	b510      	push	{r4, lr}
    1aaa:	4c0a      	ldr	r4, [pc, #40]	; (1ad4 <iocfg_pio0_6_set_func_sck+0x2c>)
    1aac:	2107      	movs	r1, #7
    1aae:	4620      	mov	r0, r4
    1ab0:	f7ff faf2 	bl	1098 <set_all_bits_zero>
    1ab4:	4620      	mov	r0, r4
    1ab6:	2102      	movs	r1, #2
    1ab8:	3464      	adds	r4, #100	; 0x64
    1aba:	f7ff faf2 	bl	10a2 <set_all_bits_one>
    1abe:	4620      	mov	r0, r4
    1ac0:	2103      	movs	r1, #3
    1ac2:	f7ff fae9 	bl	1098 <set_all_bits_zero>
    1ac6:	4620      	mov	r0, r4
    1ac8:	2102      	movs	r1, #2
    1aca:	e8bd 4010 	ldmia.w	sp!, {r4, lr}
    1ace:	f7ff bae8 	b.w	10a2 <set_all_bits_one>
    1ad2:	bf00      	nop
    1ad4:	4004404c 	.word	0x4004404c

00001ad8 <iocfg_pio0_6_set_resistor_none>:
    1ad8:	4801      	ldr	r0, [pc, #4]	; (1ae0 <iocfg_pio0_6_set_resistor_none+0x8>)
    1ada:	2118      	movs	r1, #24
    1adc:	f7ff badc 	b.w	1098 <set_all_bits_zero>
    1ae0:	4004404c 	.word	0x4004404c

00001ae4 <iocfg_pio0_6_set_resistor_pull_down>:
    1ae4:	b510      	push	{r4, lr}
    1ae6:	4c05      	ldr	r4, [pc, #20]	; (1afc <iocfg_pio0_6_set_resistor_pull_down+0x18>)
    1ae8:	2118      	movs	r1, #24
    1aea:	4620      	mov	r0, r4
    1aec:	f7ff fad4 	bl	1098 <set_all_bits_zero>
    1af0:	4620      	mov	r0, r4
    1af2:	2108      	movs	r1, #8
    1af4:	e8bd 4010 	ldmia.w	sp!, {r4, lr}
    1af8:	f7ff bad3 	b.w	10a2 <set_all_bits_one>
    1afc:	4004404c 	.word	0x4004404c

00001b00 <iocfg_pio0_6_set_resistor_pull_up>:
    1b00:	b510      	push	{r4, lr}
    1b02:	4c05      	ldr	r4, [pc, #20]	; (1b18 <iocfg_pio0_6_set_resistor_pull_up+0x18>)
    1b04:	2118      	movs	r1, #24
    1b06:	4620      	mov	r0, r4
    1b08:	f7ff fac6 	bl	1098 <set_all_bits_zero>
    1b0c:	4620      	mov	r0, r4
    1b0e:	2110      	movs	r1, #16
    1b10:	e8bd 4010 	ldmia.w	sp!, {r4, lr}
    1b14:	f7ff bac5 	b.w	10a2 <set_all_bits_one>
    1b18:	4004404c 	.word	0x4004404c

00001b1c <iocfg_pio0_6_set_resistor_repeater>:
    1b1c:	4801      	ldr	r0, [pc, #4]	; (1b24 <iocfg_pio0_6_set_resistor_repeater+0x8>)
    1b1e:	2118      	movs	r1, #24
    1b20:	f7ff babf 	b.w	10a2 <set_all_bits_one>
    1b24:	4004404c 	.word	0x4004404c

00001b28 <iocfg_pio0_6_set_hysteresis_disable>:
    1b28:	4801      	ldr	r0, [pc, #4]	; (1b30 <iocfg_pio0_6_set_hysteresis_disable+0x8>)
    1b2a:	2120      	movs	r1, #32
    1b2c:	f7ff bab4 	b.w	1098 <set_all_bits_zero>
    1b30:	4004404c 	.word	0x4004404c

00001b34 <iocfg_pio0_6_set_hysteresis_enable>:
    1b34:	4801      	ldr	r0, [pc, #4]	; (1b3c <iocfg_pio0_6_set_hysteresis_enable+0x8>)
    1b36:	2120      	movs	r1, #32
    1b38:	f7ff bab3 	b.w	10a2 <set_all_bits_one>
    1b3c:	4004404c 	.word	0x4004404c

00001b40 <iocfg_pio0_7_set_func_gpio>:
    1b40:	4801      	ldr	r0, [pc, #4]	; (1b48 <iocfg_pio0_7_set_func_gpio+0x8>)
    1b42:	2107      	movs	r1, #7
    1b44:	f7ff baa8 	b.w	1098 <set_all_bits_zero>
    1b48:	40044050 	.word	0x40044050

00001b4c <iocfg_pio0_7_set_func_cts>:
    1b4c:	b510      	push	{r4, lr}
    1b4e:	4c05      	ldr	r4, [pc, #20]	; (1b64 <iocfg_pio0_7_set_func_cts+0x18>)
    1b50:	2107      	movs	r1, #7
    1b52:	4620      	mov	r0, r4
    1b54:	f7ff faa0 	bl	1098 <set_all_bits_zero>
    1b58:	4620      	mov	r0, r4
    1b5a:	2101      	movs	r1, #1
    1b5c:	e8bd 4010 	ldmia.w	sp!, {r4, lr}
    1b60:	f7ff ba9f 	b.w	10a2 <set_all_bits_one>
    1b64:	40044050 	.word	0x40044050

00001b68 <iocfg_pio0_7_set_resistor_none>:
    1b68:	4801      	ldr	r0, [pc, #4]	; (1b70 <iocfg_pio0_7_set_resistor_none+0x8>)
    1b6a:	2118      	movs	r1, #24
    1b6c:	f7ff ba94 	b.w	1098 <set_all_bits_zero>
    1b70:	40044050 	.word	0x40044050

00001b74 <iocfg_pio0_7_set_resistor_pull_down>:
    1b74:	b510      	push	{r4, lr}
    1b76:	4c05      	ldr	r4, [pc, #20]	; (1b8c <iocfg_pio0_7_set_resistor_pull_down+0x18>)
    1b78:	2118      	movs	r1, #24
    1b7a:	4620      	mov	r0, r4
    1b7c:	f7ff fa8c 	bl	1098 <set_all_bits_zero>
    1b80:	4620      	mov	r0, r4
    1b82:	2108      	movs	r1, #8
    1b84:	e8bd 4010 	ldmia.w	sp!, {r4, lr}
    1b88:	f7ff ba8b 	b.w	10a2 <set_all_bits_one>
    1b8c:	40044050 	.word	0x40044050

00001b90 <iocfg_pio0_7_set_resistor_pull_up>:
    1b90:	b510      	push	{r4, lr}
    1b92:	4c05      	ldr	r4, [pc, #20]	; (1ba8 <iocfg_pio0_7_set_resistor_pull_up+0x18>)
    1b94:	2118      	movs	r1, #24
    1b96:	4620      	mov	r0, r4
    1b98:	f7ff fa7e 	bl	1098 <set_all_bits_zero>
    1b9c:	4620      	mov	r0, r4
    1b9e:	2110      	movs	r1, #16
    1ba0:	e8bd 4010 	ldmia.w	sp!, {r4, lr}
    1ba4:	f7ff ba7d 	b.w	10a2 <set_all_bits_one>
    1ba8:	40044050 	.word	0x40044050

00001bac <iocfg_pio0_7_set_resistor_repeater>:
    1bac:	4801      	ldr	r0, [pc, #4]	; (1bb4 <iocfg_pio0_7_set_resistor_repeater+0x8>)
    1bae:	2118      	movs	r1, #24
    1bb0:	f7ff ba77 	b.w	10a2 <set_all_bits_one>
    1bb4:	40044050 	.word	0x40044050

00001bb8 <iocfg_pio0_7_set_hysteresis_disable>:
    1bb8:	4801      	ldr	r0, [pc, #4]	; (1bc0 <iocfg_pio0_7_set_hysteresis_disable+0x8>)
    1bba:	2120      	movs	r1, #32
    1bbc:	f7ff ba6c 	b.w	1098 <set_all_bits_zero>
    1bc0:	40044050 	.word	0x40044050

00001bc4 <iocfg_pio0_7_set_hysteresis_enable>:
    1bc4:	4801      	ldr	r0, [pc, #4]	; (1bcc <iocfg_pio0_7_set_hysteresis_enable+0x8>)
    1bc6:	2120      	movs	r1, #32
    1bc8:	f7ff ba6b 	b.w	10a2 <set_all_bits_one>
    1bcc:	40044050 	.word	0x40044050

00001bd0 <iocfg_pio2_9_set_func_gpio>:
    1bd0:	4801      	ldr	r0, [pc, #4]	; (1bd8 <iocfg_pio2_9_set_func_gpio+0x8>)
    1bd2:	2107      	movs	r1, #7
    1bd4:	f7ff ba60 	b.w	1098 <set_all_bits_zero>
    1bd8:	40044054 	.word	0x40044054

00001bdc <iocfg_pio2_9_set_resistor_none>:
    1bdc:	4801      	ldr	r0, [pc, #4]	; (1be4 <iocfg_pio2_9_set_resistor_none+0x8>)
    1bde:	2118      	movs	r1, #24
    1be0:	f7ff ba5a 	b.w	1098 <set_all_bits_zero>
    1be4:	40044054 	.word	0x40044054

00001be8 <iocfg_pio2_9_set_resistor_pull_down>:
    1be8:	b510      	push	{r4, lr}
    1bea:	4c05      	ldr	r4, [pc, #20]	; (1c00 <iocfg_pio2_9_set_resistor_pull_down+0x18>)
    1bec:	2118      	movs	r1, #24
    1bee:	4620      	mov	r0, r4
    1bf0:	f7ff fa52 	bl	1098 <set_all_bits_zero>
    1bf4:	4620      	mov	r0, r4
    1bf6:	2108      	movs	r1, #8
    1bf8:	e8bd 4010 	ldmia.w	sp!, {r4, lr}
    1bfc:	f7ff ba51 	b.w	10a2 <set_all_bits_one>
    1c00:	40044054 	.word	0x40044054

00001c04 <iocfg_pio2_9_set_resistor_pull_up>:
    1c04:	b510      	push	{r4, lr}
    1c06:	4c05      	ldr	r4, [pc, #20]	; (1c1c <iocfg_pio2_9_set_resistor_pull_up+0x18>)
    1c08:	2118      	movs	r1, #24
    1c0a:	4620      	mov	r0, r4
    1c0c:	f7ff fa44 	bl	1098 <set_all_bits_zero>
    1c10:	4620      	mov	r0, r4
    1c12:	2110      	movs	r1, #16
    1c14:	e8bd 4010 	ldmia.w	sp!, {r4, lr}
    1c18:	f7ff ba43 	b.w	10a2 <set_all_bits_one>
    1c1c:	40044054 	.word	0x40044054

00001c20 <iocfg_pio2_9_set_resistor_repeater>:
    1c20:	4801      	ldr	r0, [pc, #4]	; (1c28 <iocfg_pio2_9_set_resistor_repeater+0x8>)
    1c22:	2118      	movs	r1, #24
    1c24:	f7ff ba3d 	b.w	10a2 <set_all_bits_one>
    1c28:	40044054 	.word	0x40044054

00001c2c <iocfg_pio2_9_set_hysteresis_disable>:
    1c2c:	4801      	ldr	r0, [pc, #4]	; (1c34 <iocfg_pio2_9_set_hysteresis_disable+0x8>)
    1c2e:	2120      	movs	r1, #32
    1c30:	f7ff ba32 	b.w	1098 <set_all_bits_zero>
    1c34:	40044054 	.word	0x40044054

00001c38 <iocfg_pio2_9_set_hysteresis_enable>:
    1c38:	4801      	ldr	r0, [pc, #4]	; (1c40 <iocfg_pio2_9_set_hysteresis_enable+0x8>)
    1c3a:	2120      	movs	r1, #32
    1c3c:	f7ff ba31 	b.w	10a2 <set_all_bits_one>
    1c40:	40044054 	.word	0x40044054

00001c44 <iocfg_pio2_10_set_func_gpio>:
    1c44:	4801      	ldr	r0, [pc, #4]	; (1c4c <iocfg_pio2_10_set_func_gpio+0x8>)
    1c46:	2107      	movs	r1, #7
    1c48:	f7ff ba26 	b.w	1098 <set_all_bits_zero>
    1c4c:	40044058 	.word	0x40044058

00001c50 <iocfg_pio2_10_set_resistor_none>:
    1c50:	4801      	ldr	r0, [pc, #4]	; (1c58 <iocfg_pio2_10_set_resistor_none+0x8>)
    1c52:	2118      	movs	r1, #24
    1c54:	f7ff ba20 	b.w	1098 <set_all_bits_zero>
    1c58:	40044058 	.word	0x40044058

00001c5c <iocfg_pio2_10_set_resistor_pull_down>:
    1c5c:	b510      	push	{r4, lr}
    1c5e:	4c05      	ldr	r4, [pc, #20]	; (1c74 <iocfg_pio2_10_set_resistor_pull_down+0x18>)
    1c60:	2118      	movs	r1, #24
    1c62:	4620      	mov	r0, r4
    1c64:	f7ff fa18 	bl	1098 <set_all_bits_zero>
    1c68:	4620      	mov	r0, r4
    1c6a:	2108      	movs	r1, #8
    1c6c:	e8bd 4010 	ldmia.w	sp!, {r4, lr}
    1c70:	f7ff ba17 	b.w	10a2 <set_all_bits_one>
    1c74:	40044058 	.word	0x40044058

00001c78 <iocfg_pio2_10_set_resistor_pull_up>:
    1c78:	b510      	push	{r4, lr}
    1c7a:	4c05      	ldr	r4, [pc, #20]	; (1c90 <iocfg_pio2_10_set_resistor_pull_up+0x18>)
    1c7c:	2118      	movs	r1, #24
    1c7e:	4620      	mov	r0, r4
    1c80:	f7ff fa0a 	bl	1098 <set_all_bits_zero>
    1c84:	4620      	mov	r0, r4
    1c86:	2110      	movs	r1, #16
    1c88:	e8bd 4010 	ldmia.w	sp!, {r4, lr}
    1c8c:	f7ff ba09 	b.w	10a2 <set_all_bits_one>
    1c90:	40044058 	.word	0x40044058

00001c94 <iocfg_pio2_10_set_resistor_repeater>:
    1c94:	4801      	ldr	r0, [pc, #4]	; (1c9c <iocfg_pio2_10_set_resistor_repeater+0x8>)
    1c96:	2118      	movs	r1, #24
    1c98:	f7ff ba03 	b.w	10a2 <set_all_bits_one>
    1c9c:	40044058 	.word	0x40044058

00001ca0 <iocfg_pio2_10_set_hysteresis_disable>:
    1ca0:	4801      	ldr	r0, [pc, #4]	; (1ca8 <iocfg_pio2_10_set_hysteresis_disable+0x8>)
    1ca2:	2120      	movs	r1, #32
    1ca4:	f7ff b9f8 	b.w	1098 <set_all_bits_zero>
    1ca8:	40044058 	.word	0x40044058

00001cac <iocfg_pio2_10_set_hysteresis_enable>:
    1cac:	4801      	ldr	r0, [pc, #4]	; (1cb4 <iocfg_pio2_10_set_hysteresis_enable+0x8>)
    1cae:	2120      	movs	r1, #32
    1cb0:	f7ff b9f7 	b.w	10a2 <set_all_bits_one>
    1cb4:	40044058 	.word	0x40044058

00001cb8 <iocfg_pio2_2_set_func_gpio>:
    1cb8:	4801      	ldr	r0, [pc, #4]	; (1cc0 <iocfg_pio2_2_set_func_gpio+0x8>)
    1cba:	2107      	movs	r1, #7
    1cbc:	f7ff b9ec 	b.w	1098 <set_all_bits_zero>
    1cc0:	4004405c 	.word	0x4004405c

00001cc4 <iocfg_pio2_2_set_func_dcd>:
    1cc4:	b510      	push	{r4, lr}
    1cc6:	4c05      	ldr	r4, [pc, #20]	; (1cdc <iocfg_pio2_2_set_func_dcd+0x18>)
    1cc8:	2107      	movs	r1, #7
    1cca:	4620      	mov	r0, r4
    1ccc:	f7ff f9e4 	bl	1098 <set_all_bits_zero>
    1cd0:	4620      	mov	r0, r4
    1cd2:	2101      	movs	r1, #1
    1cd4:	e8bd 4010 	ldmia.w	sp!, {r4, lr}
    1cd8:	f7ff b9e3 	b.w	10a2 <set_all_bits_one>
    1cdc:	4004405c 	.word	0x4004405c

00001ce0 <iocfg_pio2_2_set_resistor_none>:
    1ce0:	4801      	ldr	r0, [pc, #4]	; (1ce8 <iocfg_pio2_2_set_resistor_none+0x8>)
    1ce2:	2118      	movs	r1, #24
    1ce4:	f7ff b9d8 	b.w	1098 <set_all_bits_zero>
    1ce8:	4004405c 	.word	0x4004405c

00001cec <iocfg_pio2_2_set_resistor_pull_down>:
    1cec:	b510      	push	{r4, lr}
    1cee:	4c05      	ldr	r4, [pc, #20]	; (1d04 <iocfg_pio2_2_set_resistor_pull_down+0x18>)
    1cf0:	2118      	movs	r1, #24
    1cf2:	4620      	mov	r0, r4
    1cf4:	f7ff f9d0 	bl	1098 <set_all_bits_zero>
    1cf8:	4620      	mov	r0, r4
    1cfa:	2108      	movs	r1, #8
    1cfc:	e8bd 4010 	ldmia.w	sp!, {r4, lr}
    1d00:	f7ff b9cf 	b.w	10a2 <set_all_bits_one>
    1d04:	4004405c 	.word	0x4004405c

00001d08 <iocfg_pio2_2_set_resistor_pull_up>:
    1d08:	b510      	push	{r4, lr}
    1d0a:	4c05      	ldr	r4, [pc, #20]	; (1d20 <iocfg_pio2_2_set_resistor_pull_up+0x18>)
    1d0c:	2118      	movs	r1, #24
    1d0e:	4620      	mov	r0, r4
    1d10:	f7ff f9c2 	bl	1098 <set_all_bits_zero>
    1d14:	4620      	mov	r0, r4
    1d16:	2110      	movs	r1, #16
    1d18:	e8bd 4010 	ldmia.w	sp!, {r4, lr}
    1d1c:	f7ff b9c1 	b.w	10a2 <set_all_bits_one>
    1d20:	4004405c 	.word	0x4004405c

00001d24 <iocfg_pio2_2_set_resistor_repeater>:
    1d24:	4801      	ldr	r0, [pc, #4]	; (1d2c <iocfg_pio2_2_set_resistor_repeater+0x8>)
    1d26:	2118      	movs	r1, #24
    1d28:	f7ff b9bb 	b.w	10a2 <set_all_bits_one>
    1d2c:	4004405c 	.word	0x4004405c

00001d30 <iocfg_pio2_2_set_hysteresis_disable>:
    1d30:	4801      	ldr	r0, [pc, #4]	; (1d38 <iocfg_pio2_2_set_hysteresis_disable+0x8>)
    1d32:	2120      	movs	r1, #32
    1d34:	f7ff b9b0 	b.w	1098 <set_all_bits_zero>
    1d38:	4004405c 	.word	0x4004405c

00001d3c <iocfg_pio2_2_set_hysteresis_enable>:
    1d3c:	4801      	ldr	r0, [pc, #4]	; (1d44 <iocfg_pio2_2_set_hysteresis_enable+0x8>)
    1d3e:	2120      	movs	r1, #32
    1d40:	f7ff b9af 	b.w	10a2 <set_all_bits_one>
    1d44:	4004405c 	.word	0x4004405c

00001d48 <iocfg_pio0_8_set_func_gpio>:
    1d48:	4801      	ldr	r0, [pc, #4]	; (1d50 <iocfg_pio0_8_set_func_gpio+0x8>)
    1d4a:	2107      	movs	r1, #7
    1d4c:	f7ff b9a4 	b.w	1098 <set_all_bits_zero>
    1d50:	40044060 	.word	0x40044060

00001d54 <iocfg_pio0_8_set_func_miso>:
    1d54:	b510      	push	{r4, lr}
    1d56:	4c05      	ldr	r4, [pc, #20]	; (1d6c <iocfg_pio0_8_set_func_miso+0x18>)
    1d58:	2107      	movs	r1, #7
    1d5a:	4620      	mov	r0, r4
    1d5c:	f7ff f99c 	bl	1098 <set_all_bits_zero>
    1d60:	4620      	mov	r0, r4
    1d62:	2101      	movs	r1, #1
    1d64:	e8bd 4010 	ldmia.w	sp!, {r4, lr}
    1d68:	f7ff b99b 	b.w	10a2 <set_all_bits_one>
    1d6c:	40044060 	.word	0x40044060

00001d70 <iocfg_pio0_8_set_func_ct16b0_mat0>:
    1d70:	b510      	push	{r4, lr}
    1d72:	4c05      	ldr	r4, [pc, #20]	; (1d88 <iocfg_pio0_8_set_func_ct16b0_mat0+0x18>)
    1d74:	2107      	movs	r1, #7
    1d76:	4620      	mov	r0, r4
    1d78:	f7ff f98e 	bl	1098 <set_all_bits_zero>
    1d7c:	4620      	mov	r0, r4
    1d7e:	2102      	movs	r1, #2
    1d80:	e8bd 4010 	ldmia.w	sp!, {r4, lr}
    1d84:	f7ff b98d 	b.w	10a2 <set_all_bits_one>
    1d88:	40044060 	.word	0x40044060

00001d8c <iocfg_pio0_8_set_resistor_none>:
    1d8c:	4801      	ldr	r0, [pc, #4]	; (1d94 <iocfg_pio0_8_set_resistor_none+0x8>)
    1d8e:	2118      	movs	r1, #24
    1d90:	f7ff b982 	b.w	1098 <set_all_bits_zero>
    1d94:	40044060 	.word	0x40044060

00001d98 <iocfg_pio0_8_set_resistor_pull_down>:
    1d98:	b510      	push	{r4, lr}
    1d9a:	4c05      	ldr	r4, [pc, #20]	; (1db0 <iocfg_pio0_8_set_resistor_pull_down+0x18>)
    1d9c:	2118      	movs	r1, #24
    1d9e:	4620      	mov	r0, r4
    1da0:	f7ff f97a 	bl	1098 <set_all_bits_zero>
    1da4:	4620      	mov	r0, r4
    1da6:	2108      	movs	r1, #8
    1da8:	e8bd 4010 	ldmia.w	sp!, {r4, lr}
    1dac:	f7ff b979 	b.w	10a2 <set_all_bits_one>
    1db0:	40044060 	.word	0x40044060

00001db4 <iocfg_pio0_8_set_resistor_pull_up>:
    1db4:	b510      	push	{r4, lr}
    1db6:	4c05      	ldr	r4, [pc, #20]	; (1dcc <iocfg_pio0_8_set_resistor_pull_up+0x18>)
    1db8:	2118      	movs	r1, #24
    1dba:	4620      	mov	r0, r4
    1dbc:	f7ff f96c 	bl	1098 <set_all_bits_zero>
    1dc0:	4620      	mov	r0, r4
    1dc2:	2110      	movs	r1, #16
    1dc4:	e8bd 4010 	ldmia.w	sp!, {r4, lr}
    1dc8:	f7ff b96b 	b.w	10a2 <set_all_bits_one>
    1dcc:	40044060 	.word	0x40044060

00001dd0 <iocfg_pio0_8_set_resistor_repeater>:
    1dd0:	4801      	ldr	r0, [pc, #4]	; (1dd8 <iocfg_pio0_8_set_resistor_repeater+0x8>)
    1dd2:	2118      	movs	r1, #24
    1dd4:	f7ff b965 	b.w	10a2 <set_all_bits_one>
    1dd8:	40044060 	.word	0x40044060

00001ddc <iocfg_pio0_8_set_hysteresis_disable>:
    1ddc:	4801      	ldr	r0, [pc, #4]	; (1de4 <iocfg_pio0_8_set_hysteresis_disable+0x8>)
    1dde:	2120      	movs	r1, #32
    1de0:	f7ff b95a 	b.w	1098 <set_all_bits_zero>
    1de4:	40044060 	.word	0x40044060

00001de8 <iocfg_pio0_8_set_hysteresis_enable>:
    1de8:	4801      	ldr	r0, [pc, #4]	; (1df0 <iocfg_pio0_8_set_hysteresis_enable+0x8>)
    1dea:	2120      	movs	r1, #32
    1dec:	f7ff b959 	b.w	10a2 <set_all_bits_one>
    1df0:	40044060 	.word	0x40044060

00001df4 <iocfg_pio0_9_set_func_gpio>:
    1df4:	4801      	ldr	r0, [pc, #4]	; (1dfc <iocfg_pio0_9_set_func_gpio+0x8>)
    1df6:	2107      	movs	r1, #7
    1df8:	f7ff b94e 	b.w	1098 <set_all_bits_zero>
    1dfc:	40044064 	.word	0x40044064

00001e00 <iocfg_pio0_9_set_func_mosi>:
    1e00:	b510      	push	{r4, lr}
    1e02:	4c05      	ldr	r4, [pc, #20]	; (1e18 <iocfg_pio0_9_set_func_mosi+0x18>)
    1e04:	2107      	movs	r1, #7
    1e06:	4620      	mov	r0, r4
    1e08:	f7ff f946 	bl	1098 <set_all_bits_zero>
    1e0c:	4620      	mov	r0, r4
    1e0e:	2101      	movs	r1, #1
    1e10:	e8bd 4010 	ldmia.w	sp!, {r4, lr}
    1e14:	f7ff b945 	b.w	10a2 <set_all_bits_one>
    1e18:	40044064 	.word	0x40044064

00001e1c <iocfg_pio0_9_set_func_ct16b0_mat1>:
    1e1c:	b510      	push	{r4, lr}
    1e1e:	4c05      	ldr	r4, [pc, #20]	; (1e34 <iocfg_pio0_9_set_func_ct16b0_mat1+0x18>)
    1e20:	2107      	movs	r1, #7
    1e22:	4620      	mov	r0, r4
    1e24:	f7ff f938 	bl	1098 <set_all_bits_zero>
    1e28:	4620      	mov	r0, r4
    1e2a:	2102      	movs	r1, #2
    1e2c:	e8bd 4010 	ldmia.w	sp!, {r4, lr}
    1e30:	f7ff b937 	b.w	10a2 <set_all_bits_one>
    1e34:	40044064 	.word	0x40044064

00001e38 <iocfg_pio0_9_set_func_swo>:
    1e38:	b510      	push	{r4, lr}
    1e3a:	4c05      	ldr	r4, [pc, #20]	; (1e50 <iocfg_pio0_9_set_func_swo+0x18>)
    1e3c:	2107      	movs	r1, #7
    1e3e:	4620      	mov	r0, r4
    1e40:	f7ff f92a 	bl	1098 <set_all_bits_zero>
    1e44:	4620      	mov	r0, r4
    1e46:	2103      	movs	r1, #3
    1e48:	e8bd 4010 	ldmia.w	sp!, {r4, lr}
    1e4c:	f7ff b929 	b.w	10a2 <set_all_bits_one>
    1e50:	40044064 	.word	0x40044064

00001e54 <iocfg_pio0_9_set_resistor_none>:
    1e54:	4801      	ldr	r0, [pc, #4]	; (1e5c <iocfg_pio0_9_set_resistor_none+0x8>)
    1e56:	2118      	movs	r1, #24
    1e58:	f7ff b91e 	b.w	1098 <set_all_bits_zero>
    1e5c:	40044064 	.word	0x40044064

00001e60 <iocfg_pio0_9_set_resistor_pull_down>:
    1e60:	b510      	push	{r4, lr}
    1e62:	4c05      	ldr	r4, [pc, #20]	; (1e78 <iocfg_pio0_9_set_resistor_pull_down+0x18>)
    1e64:	2118      	movs	r1, #24
    1e66:	4620      	mov	r0, r4
    1e68:	f7ff f916 	bl	1098 <set_all_bits_zero>
    1e6c:	4620      	mov	r0, r4
    1e6e:	2108      	movs	r1, #8
    1e70:	e8bd 4010 	ldmia.w	sp!, {r4, lr}
    1e74:	f7ff b915 	b.w	10a2 <set_all_bits_one>
    1e78:	40044064 	.word	0x40044064

00001e7c <iocfg_pio0_9_set_resistor_pull_up>:
    1e7c:	b510      	push	{r4, lr}
    1e7e:	4c05      	ldr	r4, [pc, #20]	; (1e94 <iocfg_pio0_9_set_resistor_pull_up+0x18>)
    1e80:	2118      	movs	r1, #24
    1e82:	4620      	mov	r0, r4
    1e84:	f7ff f908 	bl	1098 <set_all_bits_zero>
    1e88:	4620      	mov	r0, r4
    1e8a:	2110      	movs	r1, #16
    1e8c:	e8bd 4010 	ldmia.w	sp!, {r4, lr}
    1e90:	f7ff b907 	b.w	10a2 <set_all_bits_one>
    1e94:	40044064 	.word	0x40044064

00001e98 <iocfg_pio0_9_set_resistor_repeater>:
    1e98:	4801      	ldr	r0, [pc, #4]	; (1ea0 <iocfg_pio0_9_set_resistor_repeater+0x8>)
    1e9a:	2118      	movs	r1, #24
    1e9c:	f7ff b901 	b.w	10a2 <set_all_bits_one>
    1ea0:	40044064 	.word	0x40044064

00001ea4 <iocfg_pio0_9_set_hysteresis_disable>:
    1ea4:	4801      	ldr	r0, [pc, #4]	; (1eac <iocfg_pio0_9_set_hysteresis_disable+0x8>)
    1ea6:	2120      	movs	r1, #32
    1ea8:	f7ff b8f6 	b.w	1098 <set_all_bits_zero>
    1eac:	40044064 	.word	0x40044064

00001eb0 <iocfg_pio0_9_set_hysteresis_enable>:
    1eb0:	4801      	ldr	r0, [pc, #4]	; (1eb8 <iocfg_pio0_9_set_hysteresis_enable+0x8>)
    1eb2:	2120      	movs	r1, #32
    1eb4:	f7ff b8f5 	b.w	10a2 <set_all_bits_one>
    1eb8:	40044064 	.word	0x40044064

00001ebc <iocfg_pio0_10_set_func_swclk>:
    1ebc:	4801      	ldr	r0, [pc, #4]	; (1ec4 <iocfg_pio0_10_set_func_swclk+0x8>)
    1ebe:	2107      	movs	r1, #7
    1ec0:	f7ff b8ea 	b.w	1098 <set_all_bits_zero>
    1ec4:	40044068 	.word	0x40044068

00001ec8 <iocfg_pio0_10_set_func_gpio>:
    1ec8:	b510      	push	{r4, lr}
    1eca:	4c05      	ldr	r4, [pc, #20]	; (1ee0 <iocfg_pio0_10_set_func_gpio+0x18>)
    1ecc:	2107      	movs	r1, #7
    1ece:	4620      	mov	r0, r4
    1ed0:	f7ff f8e2 	bl	1098 <set_all_bits_zero>
    1ed4:	4620      	mov	r0, r4
    1ed6:	2101      	movs	r1, #1
    1ed8:	e8bd 4010 	ldmia.w	sp!, {r4, lr}
    1edc:	f7ff b8e1 	b.w	10a2 <set_all_bits_one>
    1ee0:	40044068 	.word	0x40044068

00001ee4 <iocfg_pio0_10_set_func_sck>:
    1ee4:	b510      	push	{r4, lr}
    1ee6:	4c07      	ldr	r4, [pc, #28]	; (1f04 <iocfg_pio0_10_set_func_sck+0x20>)
    1ee8:	2107      	movs	r1, #7
    1eea:	4620      	mov	r0, r4
    1eec:	f7ff f8d4 	bl	1098 <set_all_bits_zero>
    1ef0:	4620      	mov	r0, r4
    1ef2:	2102      	movs	r1, #2
    1ef4:	f7ff f8d5 	bl	10a2 <set_all_bits_one>
    1ef8:	e8bd 4010 	ldmia.w	sp!, {r4, lr}
    1efc:	4802      	ldr	r0, [pc, #8]	; (1f08 <iocfg_pio0_10_set_func_sck+0x24>)
    1efe:	2103      	movs	r1, #3
    1f00:	f7ff b8ca 	b.w	1098 <set_all_bits_zero>
    1f04:	40044068 	.word	0x40044068
    1f08:	400440b0 	.word	0x400440b0

00001f0c <iocfg_pio0_10_set_func_ct16b0_mat2>:
    1f0c:	b510      	push	{r4, lr}
    1f0e:	4c05      	ldr	r4, [pc, #20]	; (1f24 <iocfg_pio0_10_set_func_ct16b0_mat2+0x18>)
    1f10:	2107      	movs	r1, #7
    1f12:	4620      	mov	r0, r4
    1f14:	f7ff f8c0 	bl	1098 <set_all_bits_zero>
    1f18:	4620      	mov	r0, r4
    1f1a:	2103      	movs	r1, #3
    1f1c:	e8bd 4010 	ldmia.w	sp!, {r4, lr}
    1f20:	f7ff b8bf 	b.w	10a2 <set_all_bits_one>
    1f24:	40044068 	.word	0x40044068

00001f28 <iocfg_pio0_10_set_resistor_none>:
    1f28:	4801      	ldr	r0, [pc, #4]	; (1f30 <iocfg_pio0_10_set_resistor_none+0x8>)
    1f2a:	2118      	movs	r1, #24
    1f2c:	f7ff b8b4 	b.w	1098 <set_all_bits_zero>
    1f30:	40044068 	.word	0x40044068

00001f34 <iocfg_pio0_10_set_resistor_pull_down>:
    1f34:	b510      	push	{r4, lr}
    1f36:	4c05      	ldr	r4, [pc, #20]	; (1f4c <iocfg_pio0_10_set_resistor_pull_down+0x18>)
    1f38:	2118      	movs	r1, #24
    1f3a:	4620      	mov	r0, r4
    1f3c:	f7ff f8ac 	bl	1098 <set_all_bits_zero>
    1f40:	4620      	mov	r0, r4
    1f42:	2108      	movs	r1, #8
    1f44:	e8bd 4010 	ldmia.w	sp!, {r4, lr}
    1f48:	f7ff b8ab 	b.w	10a2 <set_all_bits_one>
    1f4c:	40044068 	.word	0x40044068

00001f50 <iocfg_pio0_10_set_resistor_pull_up>:
    1f50:	b510      	push	{r4, lr}
    1f52:	4c05      	ldr	r4, [pc, #20]	; (1f68 <iocfg_pio0_10_set_resistor_pull_up+0x18>)
    1f54:	2118      	movs	r1, #24
    1f56:	4620      	mov	r0, r4
    1f58:	f7ff f89e 	bl	1098 <set_all_bits_zero>
    1f5c:	4620      	mov	r0, r4
    1f5e:	2110      	movs	r1, #16
    1f60:	e8bd 4010 	ldmia.w	sp!, {r4, lr}
    1f64:	f7ff b89d 	b.w	10a2 <set_all_bits_one>
    1f68:	40044068 	.word	0x40044068

00001f6c <iocfg_pio0_10_set_resistor_repeater>:
    1f6c:	4801      	ldr	r0, [pc, #4]	; (1f74 <iocfg_pio0_10_set_resistor_repeater+0x8>)
    1f6e:	2118      	movs	r1, #24
    1f70:	f7ff b897 	b.w	10a2 <set_all_bits_one>
    1f74:	40044068 	.word	0x40044068

00001f78 <iocfg_pio0_10_set_hysteresis_disable>:
    1f78:	4801      	ldr	r0, [pc, #4]	; (1f80 <iocfg_pio0_10_set_hysteresis_disable+0x8>)
    1f7a:	2120      	movs	r1, #32
    1f7c:	f7ff b88c 	b.w	1098 <set_all_bits_zero>
    1f80:	40044068 	.word	0x40044068

00001f84 <iocfg_pio0_10_set_hysteresis_enable>:
    1f84:	4801      	ldr	r0, [pc, #4]	; (1f8c <iocfg_pio0_10_set_hysteresis_enable+0x8>)
    1f86:	2120      	movs	r1, #32
    1f88:	f7ff b88b 	b.w	10a2 <set_all_bits_one>
    1f8c:	40044068 	.word	0x40044068

00001f90 <iocfg_pio1_10_set_func_gpio>:
    1f90:	b510      	push	{r4, lr}
    1f92:	4c05      	ldr	r4, [pc, #20]	; (1fa8 <iocfg_pio1_10_set_func_gpio+0x18>)
    1f94:	2180      	movs	r1, #128	; 0x80
    1f96:	4620      	mov	r0, r4
    1f98:	f7ff f883 	bl	10a2 <set_all_bits_one>
    1f9c:	4620      	mov	r0, r4
    1f9e:	2107      	movs	r1, #7
    1fa0:	e8bd 4010 	ldmia.w	sp!, {r4, lr}
    1fa4:	f7ff b878 	b.w	1098 <set_all_bits_zero>
    1fa8:	4004406c 	.word	0x4004406c

00001fac <iocfg_pio1_10_set_func_ad6>:
    1fac:	b510      	push	{r4, lr}
    1fae:	4c07      	ldr	r4, [pc, #28]	; (1fcc <iocfg_pio1_10_set_func_ad6+0x20>)
    1fb0:	2180      	movs	r1, #128	; 0x80
    1fb2:	4620      	mov	r0, r4
    1fb4:	f7ff f870 	bl	1098 <set_all_bits_zero>
    1fb8:	4620      	mov	r0, r4
    1fba:	2107      	movs	r1, #7
    1fbc:	f7ff f86c 	bl	1098 <set_all_bits_zero>
    1fc0:	4620      	mov	r0, r4
    1fc2:	2101      	movs	r1, #1
    1fc4:	e8bd 4010 	ldmia.w	sp!, {r4, lr}
    1fc8:	f7ff b86b 	b.w	10a2 <set_all_bits_one>
    1fcc:	4004406c 	.word	0x4004406c

00001fd0 <iocfg_pio1_10_set_func_ct16b1_mat1>:
    1fd0:	b510      	push	{r4, lr}
    1fd2:	4c07      	ldr	r4, [pc, #28]	; (1ff0 <iocfg_pio1_10_set_func_ct16b1_mat1+0x20>)
    1fd4:	2180      	movs	r1, #128	; 0x80
    1fd6:	4620      	mov	r0, r4
    1fd8:	f7ff f863 	bl	10a2 <set_all_bits_one>
    1fdc:	4620      	mov	r0, r4
    1fde:	2107      	movs	r1, #7
    1fe0:	f7ff f85a 	bl	1098 <set_all_bits_zero>
    1fe4:	4620      	mov	r0, r4
    1fe6:	2102      	movs	r1, #2
    1fe8:	e8bd 4010 	ldmia.w	sp!, {r4, lr}
    1fec:	f7ff b859 	b.w	10a2 <set_all_bits_one>
    1ff0:	4004406c 	.word	0x4004406c

00001ff4 <iocfg_pio1_10_set_resistor_none>:
    1ff4:	4801      	ldr	r0, [pc, #4]	; (1ffc <iocfg_pio1_10_set_resistor_none+0x8>)
    1ff6:	2118      	movs	r1, #24
    1ff8:	f7ff b84e 	b.w	1098 <set_all_bits_zero>
    1ffc:	4004406c 	.word	0x4004406c

00002000 <iocfg_pio1_10_set_resistor_pull_down>:
    2000:	b510      	push	{r4, lr}
    2002:	4c05      	ldr	r4, [pc, #20]	; (2018 <_ram_size+0x18>)
    2004:	2118      	movs	r1, #24
    2006:	4620      	mov	r0, r4
    2008:	f7ff f846 	bl	1098 <set_all_bits_zero>
    200c:	4620      	mov	r0, r4
    200e:	2108      	movs	r1, #8
    2010:	e8bd 4010 	ldmia.w	sp!, {r4, lr}
    2014:	f7ff b845 	b.w	10a2 <set_all_bits_one>
    2018:	4004406c 	.word	0x4004406c

0000201c <iocfg_pio1_10_set_resistor_pull_up>:
    201c:	b510      	push	{r4, lr}
    201e:	4c05      	ldr	r4, [pc, #20]	; (2034 <iocfg_pio1_10_set_resistor_pull_up+0x18>)
    2020:	2118      	movs	r1, #24
    2022:	4620      	mov	r0, r4
    2024:	f7ff f838 	bl	1098 <set_all_bits_zero>
    2028:	4620      	mov	r0, r4
    202a:	2110      	movs	r1, #16
    202c:	e8bd 4010 	ldmia.w	sp!, {r4, lr}
    2030:	f7ff b837 	b.w	10a2 <set_all_bits_one>
    2034:	4004406c 	.word	0x4004406c

00002038 <iocfg_pio1_10_set_resistor_repeater>:
    2038:	4801      	ldr	r0, [pc, #4]	; (2040 <iocfg_pio1_10_set_resistor_repeater+0x8>)
    203a:	2118      	movs	r1, #24
    203c:	f7ff b831 	b.w	10a2 <set_all_bits_one>
    2040:	4004406c 	.word	0x4004406c

00002044 <iocfg_pio1_10_set_hysteresis_disable>:
    2044:	4801      	ldr	r0, [pc, #4]	; (204c <iocfg_pio1_10_set_hysteresis_disable+0x8>)
    2046:	2120      	movs	r1, #32
    2048:	f7ff b826 	b.w	1098 <set_all_bits_zero>
    204c:	4004406c 	.word	0x4004406c

00002050 <iocfg_pio1_10_set_hysteresis_enable>:
    2050:	4801      	ldr	r0, [pc, #4]	; (2058 <iocfg_pio1_10_set_hysteresis_enable+0x8>)
    2052:	2120      	movs	r1, #32
    2054:	f7ff b825 	b.w	10a2 <set_all_bits_one>
    2058:	4004406c 	.word	0x4004406c

0000205c <iocfg_pio2_11_set_func_gpio>:
    205c:	4801      	ldr	r0, [pc, #4]	; (2064 <iocfg_pio2_11_set_func_gpio+0x8>)
    205e:	2107      	movs	r1, #7
    2060:	f7ff b81a 	b.w	1098 <set_all_bits_zero>
    2064:	40044070 	.word	0x40044070

00002068 <iocfg_pio2_11_set_func_sck>:
    2068:	b510      	push	{r4, lr}
    206a:	4c0a      	ldr	r4, [pc, #40]	; (2094 <iocfg_pio2_11_set_func_sck+0x2c>)
    206c:	2107      	movs	r1, #7
    206e:	4620      	mov	r0, r4
    2070:	f7ff f812 	bl	1098 <set_all_bits_zero>
    2074:	4620      	mov	r0, r4
    2076:	2101      	movs	r1, #1
    2078:	3440      	adds	r4, #64	; 0x40
    207a:	f7ff f812 	bl	10a2 <set_all_bits_one>
    207e:	4620      	mov	r0, r4
    2080:	2103      	movs	r1, #3
    2082:	f7ff f809 	bl	1098 <set_all_bits_zero>
    2086:	4620      	mov	r0, r4
    2088:	2101      	movs	r1, #1
    208a:	e8bd 4010 	ldmia.w	sp!, {r4, lr}
    208e:	f7ff b808 	b.w	10a2 <set_all_bits_one>
    2092:	bf00      	nop
    2094:	40044070 	.word	0x40044070

00002098 <iocfg_pio2_11_set_resistor_none>:
    2098:	4801      	ldr	r0, [pc, #4]	; (20a0 <iocfg_pio2_11_set_resistor_none+0x8>)
    209a:	2118      	movs	r1, #24
    209c:	f7fe bffc 	b.w	1098 <set_all_bits_zero>
    20a0:	40044070 	.word	0x40044070

000020a4 <iocfg_pio2_11_set_resistor_pull_down>:
    20a4:	b510      	push	{r4, lr}
    20a6:	4c05      	ldr	r4, [pc, #20]	; (20bc <iocfg_pio2_11_set_resistor_pull_down+0x18>)
    20a8:	2118      	movs	r1, #24
    20aa:	4620      	mov	r0, r4
    20ac:	f7fe fff4 	bl	1098 <set_all_bits_zero>
    20b0:	4620      	mov	r0, r4
    20b2:	2108      	movs	r1, #8
    20b4:	e8bd 4010 	ldmia.w	sp!, {r4, lr}
    20b8:	f7fe bff3 	b.w	10a2 <set_all_bits_one>
    20bc:	40044070 	.word	0x40044070

000020c0 <iocfg_pio2_11_set_resistor_pull_up>:
    20c0:	b510      	push	{r4, lr}
    20c2:	4c05      	ldr	r4, [pc, #20]	; (20d8 <iocfg_pio2_11_set_resistor_pull_up+0x18>)
    20c4:	2118      	movs	r1, #24
    20c6:	4620      	mov	r0, r4
    20c8:	f7fe ffe6 	bl	1098 <set_all_bits_zero>
    20cc:	4620      	mov	r0, r4
    20ce:	2110      	movs	r1, #16
    20d0:	e8bd 4010 	ldmia.w	sp!, {r4, lr}
    20d4:	f7fe bfe5 	b.w	10a2 <set_all_bits_one>
    20d8:	40044070 	.word	0x40044070

000020dc <iocfg_pio2_11_set_resistor_repeater>:
    20dc:	4801      	ldr	r0, [pc, #4]	; (20e4 <iocfg_pio2_11_set_resistor_repeater+0x8>)
    20de:	2118      	movs	r1, #24
    20e0:	f7fe bfdf 	b.w	10a2 <set_all_bits_one>
    20e4:	40044070 	.word	0x40044070

000020e8 <iocfg_pio2_11_set_hysteresis_disable>:
    20e8:	4801      	ldr	r0, [pc, #4]	; (20f0 <iocfg_pio2_11_set_hysteresis_disable+0x8>)
    20ea:	2120      	movs	r1, #32
    20ec:	f7fe bfd4 	b.w	1098 <set_all_bits_zero>
    20f0:	40044070 	.word	0x40044070

000020f4 <iocfg_pio2_11_set_hysteresis_enable>:
    20f4:	4801      	ldr	r0, [pc, #4]	; (20fc <iocfg_pio2_11_set_hysteresis_enable+0x8>)
    20f6:	2120      	movs	r1, #32
    20f8:	f7fe bfd3 	b.w	10a2 <set_all_bits_one>
    20fc:	40044070 	.word	0x40044070

00002100 <iocfg_pio0_11_set_func_r_jtag_tdi>:
    2100:	b510      	push	{r4, lr}
    2102:	4c05      	ldr	r4, [pc, #20]	; (2118 <iocfg_pio0_11_set_func_r_jtag_tdi+0x18>)
    2104:	2180      	movs	r1, #128	; 0x80
    2106:	4620      	mov	r0, r4
    2108:	f7fe ffcb 	bl	10a2 <set_all_bits_one>
    210c:	4620      	mov	r0, r4
    210e:	2107      	movs	r1, #7
    2110:	e8bd 4010 	ldmia.w	sp!, {r4, lr}
    2114:	f7fe bfc0 	b.w	1098 <set_all_bits_zero>
    2118:	40044074 	.word	0x40044074

0000211c <iocfg_pio0_11_set_func_gpio>:
    211c:	b510      	push	{r4, lr}
    211e:	4c07      	ldr	r4, [pc, #28]	; (213c <iocfg_pio0_11_set_func_gpio+0x20>)
    2120:	2180      	movs	r1, #128	; 0x80
    2122:	4620      	mov	r0, r4
    2124:	f7fe ffbd 	bl	10a2 <set_all_bits_one>
    2128:	4620      	mov	r0, r4
    212a:	2107      	movs	r1, #7
    212c:	f7fe ffb4 	bl	1098 <set_all_bits_zero>
    2130:	4620      	mov	r0, r4
    2132:	2101      	movs	r1, #1
    2134:	e8bd 4010 	ldmia.w	sp!, {r4, lr}
    2138:	f7fe bfb3 	b.w	10a2 <set_all_bits_one>
    213c:	40044074 	.word	0x40044074

00002140 <iocfg_pio0_11_set_func_ad0>:
    2140:	b510      	push	{r4, lr}
    2142:	4c07      	ldr	r4, [pc, #28]	; (2160 <iocfg_pio0_11_set_func_ad0+0x20>)
    2144:	2180      	movs	r1, #128	; 0x80
    2146:	4620      	mov	r0, r4
    2148:	f7fe ffa6 	bl	1098 <set_all_bits_zero>
    214c:	4620      	mov	r0, r4
    214e:	2107      	movs	r1, #7
    2150:	f7fe ffa2 	bl	1098 <set_all_bits_zero>
    2154:	4620      	mov	r0, r4
    2156:	2102      	movs	r1, #2
    2158:	e8bd 4010 	ldmia.w	sp!, {r4, lr}
    215c:	f7fe bfa1 	b.w	10a2 <set_all_bits_one>
    2160:	40044074 	.word	0x40044074

00002164 <iocfg_pio0_11_set_func_ct32b0_mat3>:
    2164:	b510      	push	{r4, lr}
    2166:	4c07      	ldr	r4, [pc, #28]	; (2184 <iocfg_pio0_11_set_func_ct32b0_mat3+0x20>)
    2168:	2180      	movs	r1, #128	; 0x80
    216a:	4620      	mov	r0, r4
    216c:	f7fe ff99 	bl	10a2 <set_all_bits_one>
    2170:	4620      	mov	r0, r4
    2172:	2107      	movs	r1, #7
    2174:	f7fe ff90 	bl	1098 <set_all_bits_zero>
    2178:	4620      	mov	r0, r4
    217a:	2103      	movs	r1, #3
    217c:	e8bd 4010 	ldmia.w	sp!, {r4, lr}
    2180:	f7fe bf8f 	b.w	10a2 <set_all_bits_one>
    2184:	40044074 	.word	0x40044074

00002188 <iocfg_pio0_11_set_resistor_none>:
    2188:	4801      	ldr	r0, [pc, #4]	; (2190 <iocfg_pio0_11_set_resistor_none+0x8>)
    218a:	2118      	movs	r1, #24
    218c:	f7fe bf84 	b.w	1098 <set_all_bits_zero>
    2190:	40044074 	.word	0x40044074

00002194 <iocfg_pio0_11_set_resistor_pull_down>:
    2194:	b510      	push	{r4, lr}
    2196:	4c05      	ldr	r4, [pc, #20]	; (21ac <iocfg_pio0_11_set_resistor_pull_down+0x18>)
    2198:	2118      	movs	r1, #24
    219a:	4620      	mov	r0, r4
    219c:	f7fe ff7c 	bl	1098 <set_all_bits_zero>
    21a0:	4620      	mov	r0, r4
    21a2:	2108      	movs	r1, #8
    21a4:	e8bd 4010 	ldmia.w	sp!, {r4, lr}
    21a8:	f7fe bf7b 	b.w	10a2 <set_all_bits_one>
    21ac:	40044074 	.word	0x40044074

000021b0 <iocfg_pio0_11_set_resistor_pull_up>:
    21b0:	b510      	push	{r4, lr}
    21b2:	4c05      	ldr	r4, [pc, #20]	; (21c8 <iocfg_pio0_11_set_resistor_pull_up+0x18>)
    21b4:	2118      	movs	r1, #24
    21b6:	4620      	mov	r0, r4
    21b8:	f7fe ff6e 	bl	1098 <set_all_bits_zero>
    21bc:	4620      	mov	r0, r4
    21be:	2110      	movs	r1, #16
    21c0:	e8bd 4010 	ldmia.w	sp!, {r4, lr}
    21c4:	f7fe bf6d 	b.w	10a2 <set_all_bits_one>
    21c8:	40044074 	.word	0x40044074

000021cc <iocfg_pio0_11_set_resistor_repeater>:
    21cc:	4801      	ldr	r0, [pc, #4]	; (21d4 <iocfg_pio0_11_set_resistor_repeater+0x8>)
    21ce:	2118      	movs	r1, #24
    21d0:	f7fe bf67 	b.w	10a2 <set_all_bits_one>
    21d4:	40044074 	.word	0x40044074

000021d8 <iocfg_pio0_11_set_hysteresis_disable>:
    21d8:	4801      	ldr	r0, [pc, #4]	; (21e0 <iocfg_pio0_11_set_hysteresis_disable+0x8>)
    21da:	2120      	movs	r1, #32
    21dc:	f7fe bf5c 	b.w	1098 <set_all_bits_zero>
    21e0:	40044074 	.word	0x40044074

000021e4 <iocfg_pio0_11_set_hysteresis_enable>:
    21e4:	4801      	ldr	r0, [pc, #4]	; (21ec <iocfg_pio0_11_set_hysteresis_enable+0x8>)
    21e6:	2120      	movs	r1, #32
    21e8:	f7fe bf5b 	b.w	10a2 <set_all_bits_one>
    21ec:	40044074 	.word	0x40044074

000021f0 <iocfg_pio1_0_set_func_r_jtag_tms>:
    21f0:	b510      	push	{r4, lr}
    21f2:	4c05      	ldr	r4, [pc, #20]	; (2208 <iocfg_pio1_0_set_func_r_jtag_tms+0x18>)
    21f4:	2180      	movs	r1, #128	; 0x80
    21f6:	4620      	mov	r0, r4
    21f8:	f7fe ff53 	bl	10a2 <set_all_bits_one>
    21fc:	4620      	mov	r0, r4
    21fe:	2107      	movs	r1, #7
    2200:	e8bd 4010 	ldmia.w	sp!, {r4, lr}
    2204:	f7fe bf48 	b.w	1098 <set_all_bits_zero>
    2208:	40044078 	.word	0x40044078

0000220c <iocfg_pio1_0_set_func_gpio>:
    220c:	b510      	push	{r4, lr}
    220e:	4c07      	ldr	r4, [pc, #28]	; (222c <iocfg_pio1_0_set_func_gpio+0x20>)
    2210:	2180      	movs	r1, #128	; 0x80
    2212:	4620      	mov	r0, r4
    2214:	f7fe ff45 	bl	10a2 <set_all_bits_one>
    2218:	4620      	mov	r0, r4
    221a:	2107      	movs	r1, #7
    221c:	f7fe ff3c 	bl	1098 <set_all_bits_zero>
    2220:	4620      	mov	r0, r4
    2222:	2101      	movs	r1, #1
    2224:	e8bd 4010 	ldmia.w	sp!, {r4, lr}
    2228:	f7fe bf3b 	b.w	10a2 <set_all_bits_one>
    222c:	40044078 	.word	0x40044078

00002230 <iocfg_pio1_0_set_func_ad1>:
    2230:	b510      	push	{r4, lr}
    2232:	4c07      	ldr	r4, [pc, #28]	; (2250 <iocfg_pio1_0_set_func_ad1+0x20>)
    2234:	2180      	movs	r1, #128	; 0x80
    2236:	4620      	mov	r0, r4
    2238:	f7fe ff2e 	bl	1098 <set_all_bits_zero>
    223c:	4620      	mov	r0, r4
    223e:	2107      	movs	r1, #7
    2240:	f7fe ff2a 	bl	1098 <set_all_bits_zero>
    2244:	4620      	mov	r0, r4
    2246:	2102      	movs	r1, #2
    2248:	e8bd 4010 	ldmia.w	sp!, {r4, lr}
    224c:	f7fe bf29 	b.w	10a2 <set_all_bits_one>
    2250:	40044078 	.word	0x40044078

00002254 <iocfg_pio1_0_set_func_ct32b1_cap0>:
    2254:	b510      	push	{r4, lr}
    2256:	4c07      	ldr	r4, [pc, #28]	; (2274 <iocfg_pio1_0_set_func_ct32b1_cap0+0x20>)
    2258:	2180      	movs	r1, #128	; 0x80
    225a:	4620      	mov	r0, r4
    225c:	f7fe ff21 	bl	10a2 <set_all_bits_one>
    2260:	4620      	mov	r0, r4
    2262:	2107      	movs	r1, #7
    2264:	f7fe ff18 	bl	1098 <set_all_bits_zero>
    2268:	4620      	mov	r0, r4
    226a:	2103      	movs	r1, #3
    226c:	e8bd 4010 	ldmia.w	sp!, {r4, lr}
    2270:	f7fe bf17 	b.w	10a2 <set_all_bits_one>
    2274:	40044078 	.word	0x40044078

00002278 <iocfg_pio1_0_set_resistor_none>:
    2278:	4801      	ldr	r0, [pc, #4]	; (2280 <iocfg_pio1_0_set_resistor_none+0x8>)
    227a:	2118      	movs	r1, #24
    227c:	f7fe bf0c 	b.w	1098 <set_all_bits_zero>
    2280:	40044078 	.word	0x40044078

00002284 <iocfg_pio1_0_set_resistor_pull_down>:
    2284:	b510      	push	{r4, lr}
    2286:	4c05      	ldr	r4, [pc, #20]	; (229c <iocfg_pio1_0_set_resistor_pull_down+0x18>)
    2288:	2118      	movs	r1, #24
    228a:	4620      	mov	r0, r4
    228c:	f7fe ff04 	bl	1098 <set_all_bits_zero>
    2290:	4620      	mov	r0, r4
    2292:	2108      	movs	r1, #8
    2294:	e8bd 4010 	ldmia.w	sp!, {r4, lr}
    2298:	f7fe bf03 	b.w	10a2 <set_all_bits_one>
    229c:	40044078 	.word	0x40044078

000022a0 <iocfg_pio1_0_set_resistor_pull_up>:
    22a0:	b510      	push	{r4, lr}
    22a2:	4c05      	ldr	r4, [pc, #20]	; (22b8 <iocfg_pio1_0_set_resistor_pull_up+0x18>)
    22a4:	2118      	movs	r1, #24
    22a6:	4620      	mov	r0, r4
    22a8:	f7fe fef6 	bl	1098 <set_all_bits_zero>
    22ac:	4620      	mov	r0, r4
    22ae:	2110      	movs	r1, #16
    22b0:	e8bd 4010 	ldmia.w	sp!, {r4, lr}
    22b4:	f7fe bef5 	b.w	10a2 <set_all_bits_one>
    22b8:	40044078 	.word	0x40044078

000022bc <iocfg_pio1_0_set_resistor_repeater>:
    22bc:	4801      	ldr	r0, [pc, #4]	; (22c4 <iocfg_pio1_0_set_resistor_repeater+0x8>)
    22be:	2118      	movs	r1, #24
    22c0:	f7fe beef 	b.w	10a2 <set_all_bits_one>
    22c4:	40044078 	.word	0x40044078

000022c8 <iocfg_pio1_0_set_hysteresis_disable>:
    22c8:	4801      	ldr	r0, [pc, #4]	; (22d0 <iocfg_pio1_0_set_hysteresis_disable+0x8>)
    22ca:	2120      	movs	r1, #32
    22cc:	f7fe bee4 	b.w	1098 <set_all_bits_zero>
    22d0:	40044078 	.word	0x40044078

000022d4 <iocfg_pio1_0_set_hysteresis_enable>:
    22d4:	4801      	ldr	r0, [pc, #4]	; (22dc <iocfg_pio1_0_set_hysteresis_enable+0x8>)
    22d6:	2120      	movs	r1, #32
    22d8:	f7fe bee3 	b.w	10a2 <set_all_bits_one>
    22dc:	40044078 	.word	0x40044078

000022e0 <iocfg_pio1_1_set_func_r_jtag_tdo>:
    22e0:	b510      	push	{r4, lr}
    22e2:	4c05      	ldr	r4, [pc, #20]	; (22f8 <iocfg_pio1_1_set_func_r_jtag_tdo+0x18>)
    22e4:	2180      	movs	r1, #128	; 0x80
    22e6:	4620      	mov	r0, r4
    22e8:	f7fe fedb 	bl	10a2 <set_all_bits_one>
    22ec:	4620      	mov	r0, r4
    22ee:	2107      	movs	r1, #7
    22f0:	e8bd 4010 	ldmia.w	sp!, {r4, lr}
    22f4:	f7fe bed0 	b.w	1098 <set_all_bits_zero>
    22f8:	4004407c 	.word	0x4004407c

000022fc <iocfg_pio1_1_set_func_gpio>:
    22fc:	b510      	push	{r4, lr}
    22fe:	4c07      	ldr	r4, [pc, #28]	; (231c <iocfg_pio1_1_set_func_gpio+0x20>)
    2300:	2180      	movs	r1, #128	; 0x80
    2302:	4620      	mov	r0, r4
    2304:	f7fe fecd 	bl	10a2 <set_all_bits_one>
    2308:	4620      	mov	r0, r4
    230a:	2107      	movs	r1, #7
    230c:	f7fe fec4 	bl	1098 <set_all_bits_zero>
    2310:	4620      	mov	r0, r4
    2312:	2101      	movs	r1, #1
    2314:	e8bd 4010 	ldmia.w	sp!, {r4, lr}
    2318:	f7fe bec3 	b.w	10a2 <set_all_bits_one>
    231c:	4004407c 	.word	0x4004407c

00002320 <iocfg_pio1_1_set_func_ad2>:
    2320:	b510      	push	{r4, lr}
    2322:	4c07      	ldr	r4, [pc, #28]	; (2340 <iocfg_pio1_1_set_func_ad2+0x20>)
    2324:	2180      	movs	r1, #128	; 0x80
    2326:	4620      	mov	r0, r4
    2328:	f7fe feb6 	bl	1098 <set_all_bits_zero>
    232c:	4620      	mov	r0, r4
    232e:	2107      	movs	r1, #7
    2330:	f7fe feb2 	bl	1098 <set_all_bits_zero>
    2334:	4620      	mov	r0, r4
    2336:	2102      	movs	r1, #2
    2338:	e8bd 4010 	ldmia.w	sp!, {r4, lr}
    233c:	f7fe beb1 	b.w	10a2 <set_all_bits_one>
    2340:	4004407c 	.word	0x4004407c

00002344 <iocfg_pio1_1_set_func_ct32b1_mat0>:
    2344:	b510      	push	{r4, lr}
    2346:	4c07      	ldr	r4, [pc, #28]	; (2364 <iocfg_pio1_1_set_func_ct32b1_mat0+0x20>)
    2348:	2180      	movs	r1, #128	; 0x80
    234a:	4620      	mov	r0, r4
    234c:	f7fe fea9 	bl	10a2 <set_all_bits_one>
    2350:	4620      	mov	r0, r4
    2352:	2107      	movs	r1, #7
    2354:	f7fe fea0 	bl	1098 <set_all_bits_zero>
    2358:	4620      	mov	r0, r4
    235a:	2103      	movs	r1, #3
    235c:	e8bd 4010 	ldmia.w	sp!, {r4, lr}
    2360:	f7fe be9f 	b.w	10a2 <set_all_bits_one>
    2364:	4004407c 	.word	0x4004407c

00002368 <iocfg_pio1_1_set_resistor_none>:
    2368:	4801      	ldr	r0, [pc, #4]	; (2370 <iocfg_pio1_1_set_resistor_none+0x8>)
    236a:	2118      	movs	r1, #24
    236c:	f7fe be94 	b.w	1098 <set_all_bits_zero>
    2370:	4004407c 	.word	0x4004407c

00002374 <iocfg_pio1_1_set_resistor_pull_down>:
    2374:	b510      	push	{r4, lr}
    2376:	4c05      	ldr	r4, [pc, #20]	; (238c <iocfg_pio1_1_set_resistor_pull_down+0x18>)
    2378:	2118      	movs	r1, #24
    237a:	4620      	mov	r0, r4
    237c:	f7fe fe8c 	bl	1098 <set_all_bits_zero>
    2380:	4620      	mov	r0, r4
    2382:	2108      	movs	r1, #8
    2384:	e8bd 4010 	ldmia.w	sp!, {r4, lr}
    2388:	f7fe be8b 	b.w	10a2 <set_all_bits_one>
    238c:	4004407c 	.word	0x4004407c

00002390 <iocfg_pio1_1_set_resistor_pull_up>:
    2390:	b510      	push	{r4, lr}
    2392:	4c05      	ldr	r4, [pc, #20]	; (23a8 <iocfg_pio1_1_set_resistor_pull_up+0x18>)
    2394:	2118      	movs	r1, #24
    2396:	4620      	mov	r0, r4
    2398:	f7fe fe7e 	bl	1098 <set_all_bits_zero>
    239c:	4620      	mov	r0, r4
    239e:	2110      	movs	r1, #16
    23a0:	e8bd 4010 	ldmia.w	sp!, {r4, lr}
    23a4:	f7fe be7d 	b.w	10a2 <set_all_bits_one>
    23a8:	4004407c 	.word	0x4004407c

000023ac <iocfg_pio1_1_set_resistor_repeater>:
    23ac:	4801      	ldr	r0, [pc, #4]	; (23b4 <iocfg_pio1_1_set_resistor_repeater+0x8>)
    23ae:	2118      	movs	r1, #24
    23b0:	f7fe be77 	b.w	10a2 <set_all_bits_one>
    23b4:	4004407c 	.word	0x4004407c

000023b8 <iocfg_pio1_1_set_hysteresis_disable>:
    23b8:	4801      	ldr	r0, [pc, #4]	; (23c0 <iocfg_pio1_1_set_hysteresis_disable+0x8>)
    23ba:	2120      	movs	r1, #32
    23bc:	f7fe be6c 	b.w	1098 <set_all_bits_zero>
    23c0:	4004407c 	.word	0x4004407c

000023c4 <iocfg_pio1_1_set_hysteresis_enable>:
    23c4:	4801      	ldr	r0, [pc, #4]	; (23cc <iocfg_pio1_1_set_hysteresis_enable+0x8>)
    23c6:	2120      	movs	r1, #32
    23c8:	f7fe be6b 	b.w	10a2 <set_all_bits_one>
    23cc:	4004407c 	.word	0x4004407c

000023d0 <iocfg_pio1_2_set_func_r_jtag_ntrst>:
    23d0:	b510      	push	{r4, lr}
    23d2:	4c05      	ldr	r4, [pc, #20]	; (23e8 <iocfg_pio1_2_set_func_r_jtag_ntrst+0x18>)
    23d4:	2180      	movs	r1, #128	; 0x80
    23d6:	4620      	mov	r0, r4
    23d8:	f7fe fe63 	bl	10a2 <set_all_bits_one>
    23dc:	4620      	mov	r0, r4
    23de:	2107      	movs	r1, #7
    23e0:	e8bd 4010 	ldmia.w	sp!, {r4, lr}
    23e4:	f7fe be58 	b.w	1098 <set_all_bits_zero>
    23e8:	40044080 	.word	0x40044080

000023ec <iocfg_pio1_2_set_func_gpio>:
    23ec:	b510      	push	{r4, lr}
    23ee:	4c07      	ldr	r4, [pc, #28]	; (240c <iocfg_pio1_2_set_func_gpio+0x20>)
    23f0:	2180      	movs	r1, #128	; 0x80
    23f2:	4620      	mov	r0, r4
    23f4:	f7fe fe55 	bl	10a2 <set_all_bits_one>
    23f8:	4620      	mov	r0, r4
    23fa:	2107      	movs	r1, #7
    23fc:	f7fe fe4c 	bl	1098 <set_all_bits_zero>
    2400:	4620      	mov	r0, r4
    2402:	2101      	movs	r1, #1
    2404:	e8bd 4010 	ldmia.w	sp!, {r4, lr}
    2408:	f7fe be4b 	b.w	10a2 <set_all_bits_one>
    240c:	40044080 	.word	0x40044080

00002410 <iocfg_pio1_2_set_func_ad3>:
    2410:	b510      	push	{r4, lr}
    2412:	4c07      	ldr	r4, [pc, #28]	; (2430 <iocfg_pio1_2_set_func_ad3+0x20>)
    2414:	2180      	movs	r1, #128	; 0x80
    2416:	4620      	mov	r0, r4
    2418:	f7fe fe3e 	bl	1098 <set_all_bits_zero>
    241c:	4620      	mov	r0, r4
    241e:	2107      	movs	r1, #7
    2420:	f7fe fe3a 	bl	1098 <set_all_bits_zero>
    2424:	4620      	mov	r0, r4
    2426:	2102      	movs	r1, #2
    2428:	e8bd 4010 	ldmia.w	sp!, {r4, lr}
    242c:	f7fe be39 	b.w	10a2 <set_all_bits_one>
    2430:	40044080 	.word	0x40044080

00002434 <iocfg_pio1_2_set_func_ct32b1_mat1>:
    2434:	b510      	push	{r4, lr}
    2436:	4c07      	ldr	r4, [pc, #28]	; (2454 <iocfg_pio1_2_set_func_ct32b1_mat1+0x20>)
    2438:	2180      	movs	r1, #128	; 0x80
    243a:	4620      	mov	r0, r4
    243c:	f7fe fe31 	bl	10a2 <set_all_bits_one>
    2440:	4620      	mov	r0, r4
    2442:	2107      	movs	r1, #7
    2444:	f7fe fe28 	bl	1098 <set_all_bits_zero>
    2448:	4620      	mov	r0, r4
    244a:	2103      	movs	r1, #3
    244c:	e8bd 4010 	ldmia.w	sp!, {r4, lr}
    2450:	f7fe be27 	b.w	10a2 <set_all_bits_one>
    2454:	40044080 	.word	0x40044080

00002458 <iocfg_pio1_2_set_resistor_none>:
    2458:	4801      	ldr	r0, [pc, #4]	; (2460 <iocfg_pio1_2_set_resistor_none+0x8>)
    245a:	2118      	movs	r1, #24
    245c:	f7fe be1c 	b.w	1098 <set_all_bits_zero>
    2460:	40044080 	.word	0x40044080

00002464 <iocfg_pio1_2_set_resistor_pull_down>:
    2464:	b510      	push	{r4, lr}
    2466:	4c05      	ldr	r4, [pc, #20]	; (247c <iocfg_pio1_2_set_resistor_pull_down+0x18>)
    2468:	2118      	movs	r1, #24
    246a:	4620      	mov	r0, r4
    246c:	f7fe fe14 	bl	1098 <set_all_bits_zero>
    2470:	4620      	mov	r0, r4
    2472:	2108      	movs	r1, #8
    2474:	e8bd 4010 	ldmia.w	sp!, {r4, lr}
    2478:	f7fe be13 	b.w	10a2 <set_all_bits_one>
    247c:	40044080 	.word	0x40044080

00002480 <iocfg_pio1_2_set_resistor_pull_up>:
    2480:	b510      	push	{r4, lr}
    2482:	4c05      	ldr	r4, [pc, #20]	; (2498 <iocfg_pio1_2_set_resistor_pull_up+0x18>)
    2484:	2118      	movs	r1, #24
    2486:	4620      	mov	r0, r4
    2488:	f7fe fe06 	bl	1098 <set_all_bits_zero>
    248c:	4620      	mov	r0, r4
    248e:	2110      	movs	r1, #16
    2490:	e8bd 4010 	ldmia.w	sp!, {r4, lr}
    2494:	f7fe be05 	b.w	10a2 <set_all_bits_one>
    2498:	40044080 	.word	0x40044080

0000249c <iocfg_pio1_2_set_resistor_repeater>:
    249c:	4801      	ldr	r0, [pc, #4]	; (24a4 <iocfg_pio1_2_set_resistor_repeater+0x8>)
    249e:	2118      	movs	r1, #24
    24a0:	f7fe bdff 	b.w	10a2 <set_all_bits_one>
    24a4:	40044080 	.word	0x40044080

000024a8 <iocfg_pio1_2_set_hysteresis_disable>:
    24a8:	4801      	ldr	r0, [pc, #4]	; (24b0 <iocfg_pio1_2_set_hysteresis_disable+0x8>)
    24aa:	2120      	movs	r1, #32
    24ac:	f7fe bdf4 	b.w	1098 <set_all_bits_zero>
    24b0:	40044080 	.word	0x40044080

000024b4 <iocfg_pio1_2_set_hysteresis_enable>:
    24b4:	4801      	ldr	r0, [pc, #4]	; (24bc <iocfg_pio1_2_set_hysteresis_enable+0x8>)
    24b6:	2120      	movs	r1, #32
    24b8:	f7fe bdf3 	b.w	10a2 <set_all_bits_one>
    24bc:	40044080 	.word	0x40044080

000024c0 <iocfg_pio3_0_set_func_gpio>:
    24c0:	4801      	ldr	r0, [pc, #4]	; (24c8 <iocfg_pio3_0_set_func_gpio+0x8>)
    24c2:	2107      	movs	r1, #7
    24c4:	f7fe bde8 	b.w	1098 <set_all_bits_zero>
    24c8:	40044084 	.word	0x40044084

000024cc <iocfg_pio3_0_set_resistor_none>:
    24cc:	4801      	ldr	r0, [pc, #4]	; (24d4 <iocfg_pio3_0_set_resistor_none+0x8>)
    24ce:	2118      	movs	r1, #24
    24d0:	f7fe bde2 	b.w	1098 <set_all_bits_zero>
    24d4:	40044084 	.word	0x40044084

000024d8 <iocfg_pio3_0_set_resistor_pull_down>:
    24d8:	b510      	push	{r4, lr}
    24da:	4c05      	ldr	r4, [pc, #20]	; (24f0 <iocfg_pio3_0_set_resistor_pull_down+0x18>)
    24dc:	2118      	movs	r1, #24
    24de:	4620      	mov	r0, r4
    24e0:	f7fe fdda 	bl	1098 <set_all_bits_zero>
    24e4:	4620      	mov	r0, r4
    24e6:	2108      	movs	r1, #8
    24e8:	e8bd 4010 	ldmia.w	sp!, {r4, lr}
    24ec:	f7fe bdd9 	b.w	10a2 <set_all_bits_one>
    24f0:	40044084 	.word	0x40044084

000024f4 <iocfg_pio3_0_set_resistor_pull_up>:
    24f4:	b510      	push	{r4, lr}
    24f6:	4c05      	ldr	r4, [pc, #20]	; (250c <iocfg_pio3_0_set_resistor_pull_up+0x18>)
    24f8:	2118      	movs	r1, #24
    24fa:	4620      	mov	r0, r4
    24fc:	f7fe fdcc 	bl	1098 <set_all_bits_zero>
    2500:	4620      	mov	r0, r4
    2502:	2110      	movs	r1, #16
    2504:	e8bd 4010 	ldmia.w	sp!, {r4, lr}
    2508:	f7fe bdcb 	b.w	10a2 <set_all_bits_one>
    250c:	40044084 	.word	0x40044084

00002510 <iocfg_pio3_0_set_resistor_repeater>:
    2510:	4801      	ldr	r0, [pc, #4]	; (2518 <iocfg_pio3_0_set_resistor_repeater+0x8>)
    2512:	2118      	movs	r1, #24
    2514:	f7fe bdc5 	b.w	10a2 <set_all_bits_one>
    2518:	40044084 	.word	0x40044084

0000251c <iocfg_pio3_0_set_hysteresis_disable>:
    251c:	4801      	ldr	r0, [pc, #4]	; (2524 <iocfg_pio3_0_set_hysteresis_disable+0x8>)
    251e:	2120      	movs	r1, #32
    2520:	f7fe bdba 	b.w	1098 <set_all_bits_zero>
    2524:	40044084 	.word	0x40044084

00002528 <iocfg_pio3_0_set_hysteresis_enable>:
    2528:	4801      	ldr	r0, [pc, #4]	; (2530 <iocfg_pio3_0_set_hysteresis_enable+0x8>)
    252a:	2120      	movs	r1, #32
    252c:	f7fe bdb9 	b.w	10a2 <set_all_bits_one>
    2530:	40044084 	.word	0x40044084

00002534 <iocfg_pio3_1_set_func_gpio>:
    2534:	4801      	ldr	r0, [pc, #4]	; (253c <iocfg_pio3_1_set_func_gpio+0x8>)
    2536:	2107      	movs	r1, #7
    2538:	f7fe bdae 	b.w	1098 <set_all_bits_zero>
    253c:	40044088 	.word	0x40044088

00002540 <iocfg_pio3_1_set_resistor_none>:
    2540:	4801      	ldr	r0, [pc, #4]	; (2548 <iocfg_pio3_1_set_resistor_none+0x8>)
    2542:	2118      	movs	r1, #24
    2544:	f7fe bda8 	b.w	1098 <set_all_bits_zero>
    2548:	40044088 	.word	0x40044088

0000254c <iocfg_pio3_1_set_resistor_pull_down>:
    254c:	b510      	push	{r4, lr}
    254e:	4c05      	ldr	r4, [pc, #20]	; (2564 <iocfg_pio3_1_set_resistor_pull_down+0x18>)
    2550:	2118      	movs	r1, #24
    2552:	4620      	mov	r0, r4
    2554:	f7fe fda0 	bl	1098 <set_all_bits_zero>
    2558:	4620      	mov	r0, r4
    255a:	2108      	movs	r1, #8
    255c:	e8bd 4010 	ldmia.w	sp!, {r4, lr}
    2560:	f7fe bd9f 	b.w	10a2 <set_all_bits_one>
    2564:	40044088 	.word	0x40044088

00002568 <iocfg_pio3_1_set_resistor_pull_up>:
    2568:	b510      	push	{r4, lr}
    256a:	4c05      	ldr	r4, [pc, #20]	; (2580 <iocfg_pio3_1_set_resistor_pull_up+0x18>)
    256c:	2118      	movs	r1, #24
    256e:	4620      	mov	r0, r4
    2570:	f7fe fd92 	bl	1098 <set_all_bits_zero>
    2574:	4620      	mov	r0, r4
    2576:	2110      	movs	r1, #16
    2578:	e8bd 4010 	ldmia.w	sp!, {r4, lr}
    257c:	f7fe bd91 	b.w	10a2 <set_all_bits_one>
    2580:	40044088 	.word	0x40044088

00002584 <iocfg_pio3_1_set_resistor_repeater>:
    2584:	4801      	ldr	r0, [pc, #4]	; (258c <iocfg_pio3_1_set_resistor_repeater+0x8>)
    2586:	2118      	movs	r1, #24
    2588:	f7fe bd8b 	b.w	10a2 <set_all_bits_one>
    258c:	40044088 	.word	0x40044088

00002590 <iocfg_pio3_1_set_hysteresis_disable>:
    2590:	4801      	ldr	r0, [pc, #4]	; (2598 <iocfg_pio3_1_set_hysteresis_disable+0x8>)
    2592:	2120      	movs	r1, #32
    2594:	f7fe bd80 	b.w	1098 <set_all_bits_zero>
    2598:	40044088 	.word	0x40044088

0000259c <iocfg_pio3_1_set_hysteresis_enable>:
    259c:	4801      	ldr	r0, [pc, #4]	; (25a4 <iocfg_pio3_1_set_hysteresis_enable+0x8>)
    259e:	2120      	movs	r1, #32
    25a0:	f7fe bd7f 	b.w	10a2 <set_all_bits_one>
    25a4:	40044088 	.word	0x40044088

000025a8 <iocfg_pio2_3_set_func_gpio>:
    25a8:	4801      	ldr	r0, [pc, #4]	; (25b0 <iocfg_pio2_3_set_func_gpio+0x8>)
    25aa:	2107      	movs	r1, #7
    25ac:	f7fe bd74 	b.w	1098 <set_all_bits_zero>
    25b0:	4004408c 	.word	0x4004408c

000025b4 <iocfg_pio2_3_set_func_ri>:
    25b4:	b510      	push	{r4, lr}
    25b6:	4c05      	ldr	r4, [pc, #20]	; (25cc <iocfg_pio2_3_set_func_ri+0x18>)
    25b8:	2107      	movs	r1, #7
    25ba:	4620      	mov	r0, r4
    25bc:	f7fe fd6c 	bl	1098 <set_all_bits_zero>
    25c0:	4620      	mov	r0, r4
    25c2:	2101      	movs	r1, #1
    25c4:	e8bd 4010 	ldmia.w	sp!, {r4, lr}
    25c8:	f7fe bd6b 	b.w	10a2 <set_all_bits_one>
    25cc:	4004408c 	.word	0x4004408c

000025d0 <iocfg_pio2_3_set_resistor_none>:
    25d0:	4801      	ldr	r0, [pc, #4]	; (25d8 <iocfg_pio2_3_set_resistor_none+0x8>)
    25d2:	2118      	movs	r1, #24
    25d4:	f7fe bd60 	b.w	1098 <set_all_bits_zero>
    25d8:	4004408c 	.word	0x4004408c

000025dc <iocfg_pio2_3_set_resistor_pull_down>:
    25dc:	b510      	push	{r4, lr}
    25de:	4c05      	ldr	r4, [pc, #20]	; (25f4 <iocfg_pio2_3_set_resistor_pull_down+0x18>)
    25e0:	2118      	movs	r1, #24
    25e2:	4620      	mov	r0, r4
    25e4:	f7fe fd58 	bl	1098 <set_all_bits_zero>
    25e8:	4620      	mov	r0, r4
    25ea:	2108      	movs	r1, #8
    25ec:	e8bd 4010 	ldmia.w	sp!, {r4, lr}
    25f0:	f7fe bd57 	b.w	10a2 <set_all_bits_one>
    25f4:	4004408c 	.word	0x4004408c

000025f8 <iocfg_pio2_3_set_resistor_pull_up>:
    25f8:	b510      	push	{r4, lr}
    25fa:	4c05      	ldr	r4, [pc, #20]	; (2610 <iocfg_pio2_3_set_resistor_pull_up+0x18>)
    25fc:	2118      	movs	r1, #24
    25fe:	4620      	mov	r0, r4
    2600:	f7fe fd4a 	bl	1098 <set_all_bits_zero>
    2604:	4620      	mov	r0, r4
    2606:	2110      	movs	r1, #16
    2608:	e8bd 4010 	ldmia.w	sp!, {r4, lr}
    260c:	f7fe bd49 	b.w	10a2 <set_all_bits_one>
    2610:	4004408c 	.word	0x4004408c

00002614 <iocfg_pio2_3_set_resistor_repeater>:
    2614:	4801      	ldr	r0, [pc, #4]	; (261c <iocfg_pio2_3_set_resistor_repeater+0x8>)
    2616:	2118      	movs	r1, #24
    2618:	f7fe bd43 	b.w	10a2 <set_all_bits_one>
    261c:	4004408c 	.word	0x4004408c

00002620 <iocfg_pio2_3_set_hysteresis_disable>:
    2620:	4801      	ldr	r0, [pc, #4]	; (2628 <iocfg_pio2_3_set_hysteresis_disable+0x8>)
    2622:	2120      	movs	r1, #32
    2624:	f7fe bd38 	b.w	1098 <set_all_bits_zero>
    2628:	4004408c 	.word	0x4004408c

0000262c <iocfg_pio2_3_set_hysteresis_enable>:
    262c:	4801      	ldr	r0, [pc, #4]	; (2634 <iocfg_pio2_3_set_hysteresis_enable+0x8>)
    262e:	2120      	movs	r1, #32
    2630:	f7fe bd37 	b.w	10a2 <set_all_bits_one>
    2634:	4004408c 	.word	0x4004408c

00002638 <iocfg_pio1_3_set_func_swdio>:
    2638:	b510      	push	{r4, lr}
    263a:	4c05      	ldr	r4, [pc, #20]	; (2650 <iocfg_pio1_3_set_func_swdio+0x18>)
    263c:	2180      	movs	r1, #128	; 0x80
    263e:	4620      	mov	r0, r4
    2640:	f7fe fd2f 	bl	10a2 <set_all_bits_one>
    2644:	4620      	mov	r0, r4
    2646:	2107      	movs	r1, #7
    2648:	e8bd 4010 	ldmia.w	sp!, {r4, lr}
    264c:	f7fe bd24 	b.w	1098 <set_all_bits_zero>
    2650:	40044090 	.word	0x40044090

00002654 <iocfg_pio1_3_set_func_gpio>:
    2654:	b510      	push	{r4, lr}
    2656:	4c07      	ldr	r4, [pc, #28]	; (2674 <iocfg_pio1_3_set_func_gpio+0x20>)
    2658:	2180      	movs	r1, #128	; 0x80
    265a:	4620      	mov	r0, r4
    265c:	f7fe fd21 	bl	10a2 <set_all_bits_one>
    2660:	4620      	mov	r0, r4
    2662:	2107      	movs	r1, #7
    2664:	f7fe fd18 	bl	1098 <set_all_bits_zero>
    2668:	4620      	mov	r0, r4
    266a:	2101      	movs	r1, #1
    266c:	e8bd 4010 	ldmia.w	sp!, {r4, lr}
    2670:	f7fe bd17 	b.w	10a2 <set_all_bits_one>
    2674:	40044090 	.word	0x40044090

00002678 <iocfg_pio1_3_set_func_ad4>:
    2678:	b510      	push	{r4, lr}
    267a:	4c07      	ldr	r4, [pc, #28]	; (2698 <iocfg_pio1_3_set_func_ad4+0x20>)
    267c:	2180      	movs	r1, #128	; 0x80
    267e:	4620      	mov	r0, r4
    2680:	f7fe fd0a 	bl	1098 <set_all_bits_zero>
    2684:	4620      	mov	r0, r4
    2686:	2107      	movs	r1, #7
    2688:	f7fe fd06 	bl	1098 <set_all_bits_zero>
    268c:	4620      	mov	r0, r4
    268e:	2102      	movs	r1, #2
    2690:	e8bd 4010 	ldmia.w	sp!, {r4, lr}
    2694:	f7fe bd05 	b.w	10a2 <set_all_bits_one>
    2698:	40044090 	.word	0x40044090

0000269c <iocfg_pio1_3_set_func_ct32b1_mat2>:
    269c:	b510      	push	{r4, lr}
    269e:	4c07      	ldr	r4, [pc, #28]	; (26bc <iocfg_pio1_3_set_func_ct32b1_mat2+0x20>)
    26a0:	2180      	movs	r1, #128	; 0x80
    26a2:	4620      	mov	r0, r4
    26a4:	f7fe fcfd 	bl	10a2 <set_all_bits_one>
    26a8:	4620      	mov	r0, r4
    26aa:	2107      	movs	r1, #7
    26ac:	f7fe fcf4 	bl	1098 <set_all_bits_zero>
    26b0:	4620      	mov	r0, r4
    26b2:	2103      	movs	r1, #3
    26b4:	e8bd 4010 	ldmia.w	sp!, {r4, lr}
    26b8:	f7fe bcf3 	b.w	10a2 <set_all_bits_one>
    26bc:	40044090 	.word	0x40044090

000026c0 <iocfg_pio1_3_set_resistor_none>:
    26c0:	4801      	ldr	r0, [pc, #4]	; (26c8 <iocfg_pio1_3_set_resistor_none+0x8>)
    26c2:	2118      	movs	r1, #24
    26c4:	f7fe bce8 	b.w	1098 <set_all_bits_zero>
    26c8:	40044090 	.word	0x40044090

000026cc <iocfg_pio1_3_set_resistor_pull_down>:
    26cc:	b510      	push	{r4, lr}
    26ce:	4c05      	ldr	r4, [pc, #20]	; (26e4 <iocfg_pio1_3_set_resistor_pull_down+0x18>)
    26d0:	2118      	movs	r1, #24
    26d2:	4620      	mov	r0, r4
    26d4:	f7fe fce0 	bl	1098 <set_all_bits_zero>
    26d8:	4620      	mov	r0, r4
    26da:	2108      	movs	r1, #8
    26dc:	e8bd 4010 	ldmia.w	sp!, {r4, lr}
    26e0:	f7fe bcdf 	b.w	10a2 <set_all_bits_one>
    26e4:	40044090 	.word	0x40044090

000026e8 <iocfg_pio1_3_set_resistor_pull_up>:
    26e8:	b510      	push	{r4, lr}
    26ea:	4c05      	ldr	r4, [pc, #20]	; (2700 <iocfg_pio1_3_set_resistor_pull_up+0x18>)
    26ec:	2118      	movs	r1, #24
    26ee:	4620      	mov	r0, r4
    26f0:	f7fe fcd2 	bl	1098 <set_all_bits_zero>
    26f4:	4620      	mov	r0, r4
    26f6:	2110      	movs	r1, #16
    26f8:	e8bd 4010 	ldmia.w	sp!, {r4, lr}
    26fc:	f7fe bcd1 	b.w	10a2 <set_all_bits_one>
    2700:	40044090 	.word	0x40044090

00002704 <iocfg_pio1_3_set_resistor_repeater>:
    2704:	4801      	ldr	r0, [pc, #4]	; (270c <iocfg_pio1_3_set_resistor_repeater+0x8>)
    2706:	2118      	movs	r1, #24
    2708:	f7fe bccb 	b.w	10a2 <set_all_bits_one>
    270c:	40044090 	.word	0x40044090

00002710 <iocfg_pio1_3_set_hysteresis_disable>:
    2710:	4801      	ldr	r0, [pc, #4]	; (2718 <iocfg_pio1_3_set_hysteresis_disable+0x8>)
    2712:	2120      	movs	r1, #32
    2714:	f7fe bcc0 	b.w	1098 <set_all_bits_zero>
    2718:	40044090 	.word	0x40044090

0000271c <iocfg_pio1_3_set_hysteresis_enable>:
    271c:	4801      	ldr	r0, [pc, #4]	; (2724 <iocfg_pio1_3_set_hysteresis_enable+0x8>)
    271e:	2120      	movs	r1, #32
    2720:	f7fe bcbf 	b.w	10a2 <set_all_bits_one>
    2724:	40044090 	.word	0x40044090

00002728 <iocfg_pio1_4_set_func_gpio>:
    2728:	b510      	push	{r4, lr}
    272a:	4c05      	ldr	r4, [pc, #20]	; (2740 <iocfg_pio1_4_set_func_gpio+0x18>)
    272c:	2180      	movs	r1, #128	; 0x80
    272e:	4620      	mov	r0, r4
    2730:	f7fe fcb7 	bl	10a2 <set_all_bits_one>
    2734:	4620      	mov	r0, r4
    2736:	2107      	movs	r1, #7
    2738:	e8bd 4010 	ldmia.w	sp!, {r4, lr}
    273c:	f7fe bcac 	b.w	1098 <set_all_bits_zero>
    2740:	40044094 	.word	0x40044094

00002744 <iocfg_pio1_4_set_func_ad5>:
    2744:	b510      	push	{r4, lr}
    2746:	4c07      	ldr	r4, [pc, #28]	; (2764 <iocfg_pio1_4_set_func_ad5+0x20>)
    2748:	2180      	movs	r1, #128	; 0x80
    274a:	4620      	mov	r0, r4
    274c:	f7fe fca4 	bl	1098 <set_all_bits_zero>
    2750:	4620      	mov	r0, r4
    2752:	2107      	movs	r1, #7
    2754:	f7fe fca0 	bl	1098 <set_all_bits_zero>
    2758:	4620      	mov	r0, r4
    275a:	2101      	movs	r1, #1
    275c:	e8bd 4010 	ldmia.w	sp!, {r4, lr}
    2760:	f7fe bc9f 	b.w	10a2 <set_all_bits_one>
    2764:	40044094 	.word	0x40044094

00002768 <iocfg_pio1_4_set_func_ct32b1_mat3>:
    2768:	b510      	push	{r4, lr}
    276a:	4c07      	ldr	r4, [pc, #28]	; (2788 <iocfg_pio1_4_set_func_ct32b1_mat3+0x20>)
    276c:	2180      	movs	r1, #128	; 0x80
    276e:	4620      	mov	r0, r4
    2770:	f7fe fc97 	bl	10a2 <set_all_bits_one>
    2774:	4620      	mov	r0, r4
    2776:	2107      	movs	r1, #7
    2778:	f7fe fc8e 	bl	1098 <set_all_bits_zero>
    277c:	4620      	mov	r0, r4
    277e:	2102      	movs	r1, #2
    2780:	e8bd 4010 	ldmia.w	sp!, {r4, lr}
    2784:	f7fe bc8d 	b.w	10a2 <set_all_bits_one>
    2788:	40044094 	.word	0x40044094

0000278c <iocfg_pio1_4_set_resistor_none>:
    278c:	4801      	ldr	r0, [pc, #4]	; (2794 <iocfg_pio1_4_set_resistor_none+0x8>)
    278e:	2118      	movs	r1, #24
    2790:	f7fe bc82 	b.w	1098 <set_all_bits_zero>
    2794:	40044094 	.word	0x40044094

00002798 <iocfg_pio1_4_set_resistor_pull_down>:
    2798:	b510      	push	{r4, lr}
    279a:	4c05      	ldr	r4, [pc, #20]	; (27b0 <iocfg_pio1_4_set_resistor_pull_down+0x18>)
    279c:	2118      	movs	r1, #24
    279e:	4620      	mov	r0, r4
    27a0:	f7fe fc7a 	bl	1098 <set_all_bits_zero>
    27a4:	4620      	mov	r0, r4
    27a6:	2108      	movs	r1, #8
    27a8:	e8bd 4010 	ldmia.w	sp!, {r4, lr}
    27ac:	f7fe bc79 	b.w	10a2 <set_all_bits_one>
    27b0:	40044094 	.word	0x40044094

000027b4 <iocfg_pio1_4_set_resistor_pull_up>:
    27b4:	b510      	push	{r4, lr}
    27b6:	4c05      	ldr	r4, [pc, #20]	; (27cc <iocfg_pio1_4_set_resistor_pull_up+0x18>)
    27b8:	2118      	movs	r1, #24
    27ba:	4620      	mov	r0, r4
    27bc:	f7fe fc6c 	bl	1098 <set_all_bits_zero>
    27c0:	4620      	mov	r0, r4
    27c2:	2110      	movs	r1, #16
    27c4:	e8bd 4010 	ldmia.w	sp!, {r4, lr}
    27c8:	f7fe bc6b 	b.w	10a2 <set_all_bits_one>
    27cc:	40044094 	.word	0x40044094

000027d0 <iocfg_pio1_4_set_resistor_repeater>:
    27d0:	4801      	ldr	r0, [pc, #4]	; (27d8 <iocfg_pio1_4_set_resistor_repeater+0x8>)
    27d2:	2118      	movs	r1, #24
    27d4:	f7fe bc65 	b.w	10a2 <set_all_bits_one>
    27d8:	40044094 	.word	0x40044094

000027dc <iocfg_pio1_4_set_hysteresis_disable>:
    27dc:	4801      	ldr	r0, [pc, #4]	; (27e4 <iocfg_pio1_4_set_hysteresis_disable+0x8>)
    27de:	2120      	movs	r1, #32
    27e0:	f7fe bc5a 	b.w	1098 <set_all_bits_zero>
    27e4:	40044094 	.word	0x40044094

000027e8 <iocfg_pio1_4_set_hysteresis_enable>:
    27e8:	4801      	ldr	r0, [pc, #4]	; (27f0 <iocfg_pio1_4_set_hysteresis_enable+0x8>)
    27ea:	2120      	movs	r1, #32
    27ec:	f7fe bc59 	b.w	10a2 <set_all_bits_one>
    27f0:	40044094 	.word	0x40044094

000027f4 <iocfg_pio1_11_set_func_gpio>:
    27f4:	b510      	push	{r4, lr}
    27f6:	4c05      	ldr	r4, [pc, #20]	; (280c <iocfg_pio1_11_set_func_gpio+0x18>)
    27f8:	2180      	movs	r1, #128	; 0x80
    27fa:	4620      	mov	r0, r4
    27fc:	f7fe fc51 	bl	10a2 <set_all_bits_one>
    2800:	4620      	mov	r0, r4
    2802:	2107      	movs	r1, #7
    2804:	e8bd 4010 	ldmia.w	sp!, {r4, lr}
    2808:	f7fe bc46 	b.w	1098 <set_all_bits_zero>
    280c:	40044098 	.word	0x40044098

00002810 <iocfg_pio1_11_set_func_ad7>:
    2810:	b510      	push	{r4, lr}
    2812:	4c07      	ldr	r4, [pc, #28]	; (2830 <iocfg_pio1_11_set_func_ad7+0x20>)
    2814:	2180      	movs	r1, #128	; 0x80
    2816:	4620      	mov	r0, r4
    2818:	f7fe fc3e 	bl	1098 <set_all_bits_zero>
    281c:	4620      	mov	r0, r4
    281e:	2107      	movs	r1, #7
    2820:	f7fe fc3a 	bl	1098 <set_all_bits_zero>
    2824:	4620      	mov	r0, r4
    2826:	2101      	movs	r1, #1
    2828:	e8bd 4010 	ldmia.w	sp!, {r4, lr}
    282c:	f7fe bc39 	b.w	10a2 <set_all_bits_one>
    2830:	40044098 	.word	0x40044098

00002834 <iocfg_pio1_11_set_resistor_none>:
    2834:	4801      	ldr	r0, [pc, #4]	; (283c <iocfg_pio1_11_set_resistor_none+0x8>)
    2836:	2118      	movs	r1, #24
    2838:	f7fe bc2e 	b.w	1098 <set_all_bits_zero>
    283c:	40044098 	.word	0x40044098

00002840 <iocfg_pio1_11_set_resistor_pull_down>:
    2840:	b510      	push	{r4, lr}
    2842:	4c05      	ldr	r4, [pc, #20]	; (2858 <iocfg_pio1_11_set_resistor_pull_down+0x18>)
    2844:	2118      	movs	r1, #24
    2846:	4620      	mov	r0, r4
    2848:	f7fe fc26 	bl	1098 <set_all_bits_zero>
    284c:	4620      	mov	r0, r4
    284e:	2108      	movs	r1, #8
    2850:	e8bd 4010 	ldmia.w	sp!, {r4, lr}
    2854:	f7fe bc25 	b.w	10a2 <set_all_bits_one>
    2858:	40044098 	.word	0x40044098

0000285c <iocfg_pio1_11_set_resistor_pull_up>:
    285c:	b510      	push	{r4, lr}
    285e:	4c05      	ldr	r4, [pc, #20]	; (2874 <iocfg_pio1_11_set_resistor_pull_up+0x18>)
    2860:	2118      	movs	r1, #24
    2862:	4620      	mov	r0, r4
    2864:	f7fe fc18 	bl	1098 <set_all_bits_zero>
    2868:	4620      	mov	r0, r4
    286a:	2110      	movs	r1, #16
    286c:	e8bd 4010 	ldmia.w	sp!, {r4, lr}
    2870:	f7fe bc17 	b.w	10a2 <set_all_bits_one>
    2874:	40044098 	.word	0x40044098

00002878 <iocfg_pio1_11_set_resistor_repeater>:
    2878:	4801      	ldr	r0, [pc, #4]	; (2880 <iocfg_pio1_11_set_resistor_repeater+0x8>)
    287a:	2118      	movs	r1, #24
    287c:	f7fe bc11 	b.w	10a2 <set_all_bits_one>
    2880:	40044098 	.word	0x40044098

00002884 <iocfg_pio1_11_set_hysteresis_disable>:
    2884:	4801      	ldr	r0, [pc, #4]	; (288c <iocfg_pio1_11_set_hysteresis_disable+0x8>)
    2886:	2120      	movs	r1, #32
    2888:	f7fe bc06 	b.w	1098 <set_all_bits_zero>
    288c:	40044098 	.word	0x40044098

00002890 <iocfg_pio1_11_set_hysteresis_enable>:
    2890:	4801      	ldr	r0, [pc, #4]	; (2898 <iocfg_pio1_11_set_hysteresis_enable+0x8>)
    2892:	2120      	movs	r1, #32
    2894:	f7fe bc05 	b.w	10a2 <set_all_bits_one>
    2898:	40044098 	.word	0x40044098

0000289c <iocfg_pio3_2_set_func_gpio>:
    289c:	4801      	ldr	r0, [pc, #4]	; (28a4 <iocfg_pio3_2_set_func_gpio+0x8>)
    289e:	2107      	movs	r1, #7
    28a0:	f7fe bbfa 	b.w	1098 <set_all_bits_zero>
    28a4:	4004409c 	.word	0x4004409c

000028a8 <iocfg_pio3_2_set_resistor_none>:
    28a8:	4801      	ldr	r0, [pc, #4]	; (28b0 <iocfg_pio3_2_set_resistor_none+0x8>)
    28aa:	2118      	movs	r1, #24
    28ac:	f7fe bbf4 	b.w	1098 <set_all_bits_zero>
    28b0:	4004409c 	.word	0x4004409c

000028b4 <iocfg_pio3_2_set_resistor_pull_down>:
    28b4:	b510      	push	{r4, lr}
    28b6:	4c05      	ldr	r4, [pc, #20]	; (28cc <iocfg_pio3_2_set_resistor_pull_down+0x18>)
    28b8:	2118      	movs	r1, #24
    28ba:	4620      	mov	r0, r4
    28bc:	f7fe fbec 	bl	1098 <set_all_bits_zero>
    28c0:	4620      	mov	r0, r4
    28c2:	2108      	movs	r1, #8
    28c4:	e8bd 4010 	ldmia.w	sp!, {r4, lr}
    28c8:	f7fe bbeb 	b.w	10a2 <set_all_bits_one>
    28cc:	4004409c 	.word	0x4004409c

000028d0 <iocfg_pio3_2_set_resistor_pull_up>:
    28d0:	b510      	push	{r4, lr}
    28d2:	4c05      	ldr	r4, [pc, #20]	; (28e8 <iocfg_pio3_2_set_resistor_pull_up+0x18>)
    28d4:	2118      	movs	r1, #24
    28d6:	4620      	mov	r0, r4
    28d8:	f7fe fbde 	bl	1098 <set_all_bits_zero>
    28dc:	4620      	mov	r0, r4
    28de:	2110      	movs	r1, #16
    28e0:	e8bd 4010 	ldmia.w	sp!, {r4, lr}
    28e4:	f7fe bbdd 	b.w	10a2 <set_all_bits_one>
    28e8:	4004409c 	.word	0x4004409c

000028ec <iocfg_pio3_2_set_resistor_repeater>:
    28ec:	4801      	ldr	r0, [pc, #4]	; (28f4 <iocfg_pio3_2_set_resistor_repeater+0x8>)
    28ee:	2118      	movs	r1, #24
    28f0:	f7fe bbd7 	b.w	10a2 <set_all_bits_one>
    28f4:	4004409c 	.word	0x4004409c

000028f8 <iocfg_pio3_2_set_hysteresis_disable>:
    28f8:	4801      	ldr	r0, [pc, #4]	; (2900 <iocfg_pio3_2_set_hysteresis_disable+0x8>)
    28fa:	2120      	movs	r1, #32
    28fc:	f7fe bbcc 	b.w	1098 <set_all_bits_zero>
    2900:	4004409c 	.word	0x4004409c

00002904 <iocfg_pio3_2_set_hysteresis_enable>:
    2904:	4801      	ldr	r0, [pc, #4]	; (290c <iocfg_pio3_2_set_hysteresis_enable+0x8>)
    2906:	2120      	movs	r1, #32
    2908:	f7fe bbcb 	b.w	10a2 <set_all_bits_one>
    290c:	4004409c 	.word	0x4004409c

00002910 <iocfg_pio1_5_set_func_gpio>:
    2910:	4801      	ldr	r0, [pc, #4]	; (2918 <iocfg_pio1_5_set_func_gpio+0x8>)
    2912:	2107      	movs	r1, #7
    2914:	f7fe bbc0 	b.w	1098 <set_all_bits_zero>
    2918:	400440a0 	.word	0x400440a0

0000291c <iocfg_pio1_5_set_func_rts>:
    291c:	b510      	push	{r4, lr}
    291e:	4c05      	ldr	r4, [pc, #20]	; (2934 <iocfg_pio1_5_set_func_rts+0x18>)
    2920:	2107      	movs	r1, #7
    2922:	4620      	mov	r0, r4
    2924:	f7fe fbb8 	bl	1098 <set_all_bits_zero>
    2928:	4620      	mov	r0, r4
    292a:	2101      	movs	r1, #1
    292c:	e8bd 4010 	ldmia.w	sp!, {r4, lr}
    2930:	f7fe bbb7 	b.w	10a2 <set_all_bits_one>
    2934:	400440a0 	.word	0x400440a0

00002938 <iocfg_pio1_5_set_func_ct32b0_cap0>:
    2938:	b510      	push	{r4, lr}
    293a:	4c05      	ldr	r4, [pc, #20]	; (2950 <iocfg_pio1_5_set_func_ct32b0_cap0+0x18>)
    293c:	2107      	movs	r1, #7
    293e:	4620      	mov	r0, r4
    2940:	f7fe fbaa 	bl	1098 <set_all_bits_zero>
    2944:	4620      	mov	r0, r4
    2946:	2102      	movs	r1, #2
    2948:	e8bd 4010 	ldmia.w	sp!, {r4, lr}
    294c:	f7fe bba9 	b.w	10a2 <set_all_bits_one>
    2950:	400440a0 	.word	0x400440a0

00002954 <iocfg_pio1_5_set_resistor_none>:
    2954:	4801      	ldr	r0, [pc, #4]	; (295c <iocfg_pio1_5_set_resistor_none+0x8>)
    2956:	2118      	movs	r1, #24
    2958:	f7fe bb9e 	b.w	1098 <set_all_bits_zero>
    295c:	400440a0 	.word	0x400440a0

00002960 <iocfg_pio1_5_set_resistor_pull_down>:
    2960:	b510      	push	{r4, lr}
    2962:	4c05      	ldr	r4, [pc, #20]	; (2978 <iocfg_pio1_5_set_resistor_pull_down+0x18>)
    2964:	2118      	movs	r1, #24
    2966:	4620      	mov	r0, r4
    2968:	f7fe fb96 	bl	1098 <set_all_bits_zero>
    296c:	4620      	mov	r0, r4
    296e:	2108      	movs	r1, #8
    2970:	e8bd 4010 	ldmia.w	sp!, {r4, lr}
    2974:	f7fe bb95 	b.w	10a2 <set_all_bits_one>
    2978:	400440a0 	.word	0x400440a0

0000297c <iocfg_pio1_5_set_resistor_pull_up>:
    297c:	b510      	push	{r4, lr}
    297e:	4c05      	ldr	r4, [pc, #20]	; (2994 <iocfg_pio1_5_set_resistor_pull_up+0x18>)
    2980:	2118      	movs	r1, #24
    2982:	4620      	mov	r0, r4
    2984:	f7fe fb88 	bl	1098 <set_all_bits_zero>
    2988:	4620      	mov	r0, r4
    298a:	2110      	movs	r1, #16
    298c:	e8bd 4010 	ldmia.w	sp!, {r4, lr}
    2990:	f7fe bb87 	b.w	10a2 <set_all_bits_one>
    2994:	400440a0 	.word	0x400440a0

00002998 <iocfg_pio1_5_set_resistor_repeater>:
    2998:	4801      	ldr	r0, [pc, #4]	; (29a0 <iocfg_pio1_5_set_resistor_repeater+0x8>)
    299a:	2118      	movs	r1, #24
    299c:	f7fe bb81 	b.w	10a2 <set_all_bits_one>
    29a0:	400440a0 	.word	0x400440a0

000029a4 <iocfg_pio1_5_set_hysteresis_disable>:
    29a4:	4801      	ldr	r0, [pc, #4]	; (29ac <iocfg_pio1_5_set_hysteresis_disable+0x8>)
    29a6:	2120      	movs	r1, #32
    29a8:	f7fe bb76 	b.w	1098 <set_all_bits_zero>
    29ac:	400440a0 	.word	0x400440a0

000029b0 <iocfg_pio1_5_set_hysteresis_enable>:
    29b0:	4801      	ldr	r0, [pc, #4]	; (29b8 <iocfg_pio1_5_set_hysteresis_enable+0x8>)
    29b2:	2120      	movs	r1, #32
    29b4:	f7fe bb75 	b.w	10a2 <set_all_bits_one>
    29b8:	400440a0 	.word	0x400440a0

000029bc <iocfg_pio1_6_set_func_gpio>:
    29bc:	4801      	ldr	r0, [pc, #4]	; (29c4 <iocfg_pio1_6_set_func_gpio+0x8>)
    29be:	2107      	movs	r1, #7
    29c0:	f7fe bb6a 	b.w	1098 <set_all_bits_zero>
    29c4:	400440a4 	.word	0x400440a4

000029c8 <iocfg_pio1_6_set_func_rxd>:
    29c8:	b510      	push	{r4, lr}
    29ca:	4c05      	ldr	r4, [pc, #20]	; (29e0 <iocfg_pio1_6_set_func_rxd+0x18>)
    29cc:	2107      	movs	r1, #7
    29ce:	4620      	mov	r0, r4
    29d0:	f7fe fb62 	bl	1098 <set_all_bits_zero>
    29d4:	4620      	mov	r0, r4
    29d6:	2101      	movs	r1, #1
    29d8:	e8bd 4010 	ldmia.w	sp!, {r4, lr}
    29dc:	f7fe bb61 	b.w	10a2 <set_all_bits_one>
    29e0:	400440a4 	.word	0x400440a4

000029e4 <iocfg_pio1_6_set_func_ct32b0_mat0>:
    29e4:	b510      	push	{r4, lr}
    29e6:	4c05      	ldr	r4, [pc, #20]	; (29fc <iocfg_pio1_6_set_func_ct32b0_mat0+0x18>)
    29e8:	2107      	movs	r1, #7
    29ea:	4620      	mov	r0, r4
    29ec:	f7fe fb54 	bl	1098 <set_all_bits_zero>
    29f0:	4620      	mov	r0, r4
    29f2:	2102      	movs	r1, #2
    29f4:	e8bd 4010 	ldmia.w	sp!, {r4, lr}
    29f8:	f7fe bb53 	b.w	10a2 <set_all_bits_one>
    29fc:	400440a4 	.word	0x400440a4

00002a00 <iocfg_pio1_6_set_resistor_none>:
    2a00:	4801      	ldr	r0, [pc, #4]	; (2a08 <iocfg_pio1_6_set_resistor_none+0x8>)
    2a02:	2118      	movs	r1, #24
    2a04:	f7fe bb48 	b.w	1098 <set_all_bits_zero>
    2a08:	400440a4 	.word	0x400440a4

00002a0c <iocfg_pio1_6_set_resistor_pull_down>:
    2a0c:	b510      	push	{r4, lr}
    2a0e:	4c05      	ldr	r4, [pc, #20]	; (2a24 <iocfg_pio1_6_set_resistor_pull_down+0x18>)
    2a10:	2118      	movs	r1, #24
    2a12:	4620      	mov	r0, r4
    2a14:	f7fe fb40 	bl	1098 <set_all_bits_zero>
    2a18:	4620      	mov	r0, r4
    2a1a:	2108      	movs	r1, #8
    2a1c:	e8bd 4010 	ldmia.w	sp!, {r4, lr}
    2a20:	f7fe bb3f 	b.w	10a2 <set_all_bits_one>
    2a24:	400440a4 	.word	0x400440a4

00002a28 <iocfg_pio1_6_set_resistor_pull_up>:
    2a28:	b510      	push	{r4, lr}
    2a2a:	4c05      	ldr	r4, [pc, #20]	; (2a40 <iocfg_pio1_6_set_resistor_pull_up+0x18>)
    2a2c:	2118      	movs	r1, #24
    2a2e:	4620      	mov	r0, r4
    2a30:	f7fe fb32 	bl	1098 <set_all_bits_zero>
    2a34:	4620      	mov	r0, r4
    2a36:	2110      	movs	r1, #16
    2a38:	e8bd 4010 	ldmia.w	sp!, {r4, lr}
    2a3c:	f7fe bb31 	b.w	10a2 <set_all_bits_one>
    2a40:	400440a4 	.word	0x400440a4

00002a44 <iocfg_pio1_6_set_resistor_repeater>:
    2a44:	4801      	ldr	r0, [pc, #4]	; (2a4c <iocfg_pio1_6_set_resistor_repeater+0x8>)
    2a46:	2118      	movs	r1, #24
    2a48:	f7fe bb2b 	b.w	10a2 <set_all_bits_one>
    2a4c:	400440a4 	.word	0x400440a4

00002a50 <iocfg_pio1_6_set_hysteresis_disable>:
    2a50:	4801      	ldr	r0, [pc, #4]	; (2a58 <iocfg_pio1_6_set_hysteresis_disable+0x8>)
    2a52:	2120      	movs	r1, #32
    2a54:	f7fe bb20 	b.w	1098 <set_all_bits_zero>
    2a58:	400440a4 	.word	0x400440a4

00002a5c <iocfg_pio1_6_set_hysteresis_enable>:
    2a5c:	4801      	ldr	r0, [pc, #4]	; (2a64 <iocfg_pio1_6_set_hysteresis_enable+0x8>)
    2a5e:	2120      	movs	r1, #32
    2a60:	f7fe bb1f 	b.w	10a2 <set_all_bits_one>
    2a64:	400440a4 	.word	0x400440a4

00002a68 <iocfg_pio1_7_set_func_gpio>:
    2a68:	4801      	ldr	r0, [pc, #4]	; (2a70 <iocfg_pio1_7_set_func_gpio+0x8>)
    2a6a:	2107      	movs	r1, #7
    2a6c:	f7fe bb14 	b.w	1098 <set_all_bits_zero>
    2a70:	400440a8 	.word	0x400440a8

00002a74 <iocfg_pio1_7_set_func_txd>:
    2a74:	b510      	push	{r4, lr}
    2a76:	4c05      	ldr	r4, [pc, #20]	; (2a8c <iocfg_pio1_7_set_func_txd+0x18>)
    2a78:	2107      	movs	r1, #7
    2a7a:	4620      	mov	r0, r4
    2a7c:	f7fe fb0c 	bl	1098 <set_all_bits_zero>
    2a80:	4620      	mov	r0, r4
    2a82:	2101      	movs	r1, #1
    2a84:	e8bd 4010 	ldmia.w	sp!, {r4, lr}
    2a88:	f7fe bb0b 	b.w	10a2 <set_all_bits_one>
    2a8c:	400440a8 	.word	0x400440a8

00002a90 <iocfg_pio1_7_set_func_ct32b0_mat1>:
    2a90:	b510      	push	{r4, lr}
    2a92:	4c05      	ldr	r4, [pc, #20]	; (2aa8 <iocfg_pio1_7_set_func_ct32b0_mat1+0x18>)
    2a94:	2107      	movs	r1, #7
    2a96:	4620      	mov	r0, r4
    2a98:	f7fe fafe 	bl	1098 <set_all_bits_zero>
    2a9c:	4620      	mov	r0, r4
    2a9e:	2102      	movs	r1, #2
    2aa0:	e8bd 4010 	ldmia.w	sp!, {r4, lr}
    2aa4:	f7fe bafd 	b.w	10a2 <set_all_bits_one>
    2aa8:	400440a8 	.word	0x400440a8

00002aac <iocfg_pio1_7_set_resistor_none>:
    2aac:	4801      	ldr	r0, [pc, #4]	; (2ab4 <iocfg_pio1_7_set_resistor_none+0x8>)
    2aae:	2118      	movs	r1, #24
    2ab0:	f7fe baf2 	b.w	1098 <set_all_bits_zero>
    2ab4:	400440a8 	.word	0x400440a8

00002ab8 <iocfg_pio1_7_set_resistor_pull_down>:
    2ab8:	b510      	push	{r4, lr}
    2aba:	4c05      	ldr	r4, [pc, #20]	; (2ad0 <iocfg_pio1_7_set_resistor_pull_down+0x18>)
    2abc:	2118      	movs	r1, #24
    2abe:	4620      	mov	r0, r4
    2ac0:	f7fe faea 	bl	1098 <set_all_bits_zero>
    2ac4:	4620      	mov	r0, r4
    2ac6:	2108      	movs	r1, #8
    2ac8:	e8bd 4010 	ldmia.w	sp!, {r4, lr}
    2acc:	f7fe bae9 	b.w	10a2 <set_all_bits_one>
    2ad0:	400440a8 	.word	0x400440a8

00002ad4 <iocfg_pio1_7_set_resistor_pull_up>:
    2ad4:	b510      	push	{r4, lr}
    2ad6:	4c05      	ldr	r4, [pc, #20]	; (2aec <iocfg_pio1_7_set_resistor_pull_up+0x18>)
    2ad8:	2118      	movs	r1, #24
    2ada:	4620      	mov	r0, r4
    2adc:	f7fe fadc 	bl	1098 <set_all_bits_zero>
    2ae0:	4620      	mov	r0, r4
    2ae2:	2110      	movs	r1, #16
    2ae4:	e8bd 4010 	ldmia.w	sp!, {r4, lr}
    2ae8:	f7fe badb 	b.w	10a2 <set_all_bits_one>
    2aec:	400440a8 	.word	0x400440a8

00002af0 <iocfg_pio1_7_set_resistor_repeater>:
    2af0:	4801      	ldr	r0, [pc, #4]	; (2af8 <iocfg_pio1_7_set_resistor_repeater+0x8>)
    2af2:	2118      	movs	r1, #24
    2af4:	f7fe bad5 	b.w	10a2 <set_all_bits_one>
    2af8:	400440a8 	.word	0x400440a8

00002afc <iocfg_pio1_7_set_hysteresis_disable>:
    2afc:	4801      	ldr	r0, [pc, #4]	; (2b04 <iocfg_pio1_7_set_hysteresis_disable+0x8>)
    2afe:	2120      	movs	r1, #32
    2b00:	f7fe baca 	b.w	1098 <set_all_bits_zero>
    2b04:	400440a8 	.word	0x400440a8

00002b08 <iocfg_pio1_7_set_hysteresis_enable>:
    2b08:	4801      	ldr	r0, [pc, #4]	; (2b10 <iocfg_pio1_7_set_hysteresis_enable+0x8>)
    2b0a:	2120      	movs	r1, #32
    2b0c:	f7fe bac9 	b.w	10a2 <set_all_bits_one>
    2b10:	400440a8 	.word	0x400440a8

00002b14 <iocfg_pio3_3_set_func_gpio>:
    2b14:	4801      	ldr	r0, [pc, #4]	; (2b1c <iocfg_pio3_3_set_func_gpio+0x8>)
    2b16:	2107      	movs	r1, #7
    2b18:	f7fe babe 	b.w	1098 <set_all_bits_zero>
    2b1c:	400440ac 	.word	0x400440ac

00002b20 <iocfg_pio3_3_set_resistor_none>:
    2b20:	4801      	ldr	r0, [pc, #4]	; (2b28 <iocfg_pio3_3_set_resistor_none+0x8>)
    2b22:	2118      	movs	r1, #24
    2b24:	f7fe bab8 	b.w	1098 <set_all_bits_zero>
    2b28:	400440ac 	.word	0x400440ac

00002b2c <iocfg_pio3_3_set_resistor_pull_down>:
    2b2c:	b510      	push	{r4, lr}
    2b2e:	4c05      	ldr	r4, [pc, #20]	; (2b44 <iocfg_pio3_3_set_resistor_pull_down+0x18>)
    2b30:	2118      	movs	r1, #24
    2b32:	4620      	mov	r0, r4
    2b34:	f7fe fab0 	bl	1098 <set_all_bits_zero>
    2b38:	4620      	mov	r0, r4
    2b3a:	2108      	movs	r1, #8
    2b3c:	e8bd 4010 	ldmia.w	sp!, {r4, lr}
    2b40:	f7fe baaf 	b.w	10a2 <set_all_bits_one>
    2b44:	400440ac 	.word	0x400440ac

00002b48 <iocfg_pio3_3_set_resistor_pull_up>:
    2b48:	b510      	push	{r4, lr}
    2b4a:	4c05      	ldr	r4, [pc, #20]	; (2b60 <iocfg_pio3_3_set_resistor_pull_up+0x18>)
    2b4c:	2118      	movs	r1, #24
    2b4e:	4620      	mov	r0, r4
    2b50:	f7fe faa2 	bl	1098 <set_all_bits_zero>
    2b54:	4620      	mov	r0, r4
    2b56:	2110      	movs	r1, #16
    2b58:	e8bd 4010 	ldmia.w	sp!, {r4, lr}
    2b5c:	f7fe baa1 	b.w	10a2 <set_all_bits_one>
    2b60:	400440ac 	.word	0x400440ac

00002b64 <iocfg_pio3_3_set_resistor_repeater>:
    2b64:	4801      	ldr	r0, [pc, #4]	; (2b6c <iocfg_pio3_3_set_resistor_repeater+0x8>)
    2b66:	2118      	movs	r1, #24
    2b68:	f7fe ba9b 	b.w	10a2 <set_all_bits_one>
    2b6c:	400440ac 	.word	0x400440ac

00002b70 <iocfg_pio3_3_set_hysteresis_disable>:
    2b70:	4801      	ldr	r0, [pc, #4]	; (2b78 <iocfg_pio3_3_set_hysteresis_disable+0x8>)
    2b72:	2120      	movs	r1, #32
    2b74:	f7fe ba90 	b.w	1098 <set_all_bits_zero>
    2b78:	400440ac 	.word	0x400440ac

00002b7c <iocfg_pio3_3_set_hysteresis_enable>:
    2b7c:	4801      	ldr	r0, [pc, #4]	; (2b84 <iocfg_pio3_3_set_hysteresis_enable+0x8>)
    2b7e:	2120      	movs	r1, #32
    2b80:	f7fe ba8f 	b.w	10a2 <set_all_bits_one>
    2b84:	400440ac 	.word	0x400440ac

00002b88 <led_ann_1g_on>:
    2b88:	b508      	push	{r3, lr}
    2b8a:	2001      	movs	r0, #1
    2b8c:	2100      	movs	r1, #0
    2b8e:	f7fe fb34 	bl	11fa <gpio_set_dir_out>
    2b92:	e8bd 4008 	ldmia.w	sp!, {r3, lr}
    2b96:	2001      	movs	r0, #1
    2b98:	2100      	movs	r1, #0
    2b9a:	f7fe bb49 	b.w	1230 <gpio_set_data_bit_zero>

00002b9e <led_ann_1b_on>:
    2b9e:	b508      	push	{r3, lr}
    2ba0:	2001      	movs	r0, #1
    2ba2:	4601      	mov	r1, r0
    2ba4:	f7fe fb29 	bl	11fa <gpio_set_dir_out>
    2ba8:	e8bd 4008 	ldmia.w	sp!, {r3, lr}
    2bac:	2001      	movs	r0, #1
    2bae:	4601      	mov	r1, r0
    2bb0:	f7fe bb3e 	b.w	1230 <gpio_set_data_bit_zero>

00002bb4 <led_ann_1r_on>:
    2bb4:	b508      	push	{r3, lr}
    2bb6:	2001      	movs	r0, #1
    2bb8:	2102      	movs	r1, #2
    2bba:	f7fe fb1e 	bl	11fa <gpio_set_dir_out>
    2bbe:	e8bd 4008 	ldmia.w	sp!, {r3, lr}
    2bc2:	2001      	movs	r0, #1
    2bc4:	2102      	movs	r1, #2
    2bc6:	f7fe bb33 	b.w	1230 <gpio_set_data_bit_zero>

00002bca <led_ann_2g_on>:
    2bca:	b508      	push	{r3, lr}
    2bcc:	2001      	movs	r0, #1
    2bce:	2103      	movs	r1, #3
    2bd0:	f7fe fb13 	bl	11fa <gpio_set_dir_out>
    2bd4:	e8bd 4008 	ldmia.w	sp!, {r3, lr}
    2bd8:	2001      	movs	r0, #1
    2bda:	2103      	movs	r1, #3
    2bdc:	f7fe bb28 	b.w	1230 <gpio_set_data_bit_zero>

00002be0 <led_ann_2b_on>:
    2be0:	b508      	push	{r3, lr}
    2be2:	2001      	movs	r0, #1
    2be4:	2104      	movs	r1, #4
    2be6:	f7fe fb08 	bl	11fa <gpio_set_dir_out>
    2bea:	e8bd 4008 	ldmia.w	sp!, {r3, lr}
    2bee:	2001      	movs	r0, #1
    2bf0:	2104      	movs	r1, #4
    2bf2:	f7fe bb1d 	b.w	1230 <gpio_set_data_bit_zero>

00002bf6 <led_ann_2r_on>:
    2bf6:	b508      	push	{r3, lr}
    2bf8:	2001      	movs	r0, #1
    2bfa:	2105      	movs	r1, #5
    2bfc:	f7fe fafd 	bl	11fa <gpio_set_dir_out>
    2c00:	e8bd 4008 	ldmia.w	sp!, {r3, lr}
    2c04:	2001      	movs	r0, #1
    2c06:	2105      	movs	r1, #5
    2c08:	f7fe bb12 	b.w	1230 <gpio_set_data_bit_zero>

00002c0c <led_ann_3g_on>:
    2c0c:	b508      	push	{r3, lr}
    2c0e:	2001      	movs	r0, #1
    2c10:	2106      	movs	r1, #6
    2c12:	f7fe faf2 	bl	11fa <gpio_set_dir_out>
    2c16:	e8bd 4008 	ldmia.w	sp!, {r3, lr}
    2c1a:	2001      	movs	r0, #1
    2c1c:	2106      	movs	r1, #6
    2c1e:	f7fe bb07 	b.w	1230 <gpio_set_data_bit_zero>

00002c22 <led_ann_3b_on>:
    2c22:	b508      	push	{r3, lr}
    2c24:	2001      	movs	r0, #1
    2c26:	2107      	movs	r1, #7
    2c28:	f7fe fae7 	bl	11fa <gpio_set_dir_out>
    2c2c:	e8bd 4008 	ldmia.w	sp!, {r3, lr}
    2c30:	2001      	movs	r0, #1
    2c32:	2107      	movs	r1, #7
    2c34:	f7fe bafc 	b.w	1230 <gpio_set_data_bit_zero>

00002c38 <led_ann_3r_on>:
    2c38:	b508      	push	{r3, lr}
    2c3a:	2001      	movs	r0, #1
    2c3c:	2108      	movs	r1, #8
    2c3e:	f7fe fadc 	bl	11fa <gpio_set_dir_out>
    2c42:	e8bd 4008 	ldmia.w	sp!, {r3, lr}
    2c46:	2001      	movs	r0, #1
    2c48:	2108      	movs	r1, #8
    2c4a:	f7fe baf1 	b.w	1230 <gpio_set_data_bit_zero>

00002c4e <led_ann_1g_off>:
    2c4e:	2001      	movs	r0, #1
    2c50:	2100      	movs	r1, #0
    2c52:	f7fe bacf 	b.w	11f4 <gpio_set_dir_in>

00002c56 <led_ann_1b_off>:
    2c56:	2001      	movs	r0, #1
    2c58:	4601      	mov	r1, r0
    2c5a:	f7fe bacb 	b.w	11f4 <gpio_set_dir_in>

00002c5e <led_ann_1r_off>:
    2c5e:	2001      	movs	r0, #1
    2c60:	2102      	movs	r1, #2
    2c62:	f7fe bac7 	b.w	11f4 <gpio_set_dir_in>

00002c66 <led_ann_2g_off>:
    2c66:	2001      	movs	r0, #1
    2c68:	2103      	movs	r1, #3
    2c6a:	f7fe bac3 	b.w	11f4 <gpio_set_dir_in>

00002c6e <led_ann_2b_off>:
    2c6e:	2001      	movs	r0, #1
    2c70:	2104      	movs	r1, #4
    2c72:	f7fe babf 	b.w	11f4 <gpio_set_dir_in>

00002c76 <led_ann_2r_off>:
    2c76:	2001      	movs	r0, #1
    2c78:	2105      	movs	r1, #5
    2c7a:	f7fe babb 	b.w	11f4 <gpio_set_dir_in>

00002c7e <led_ann_3g_off>:
    2c7e:	2001      	movs	r0, #1
    2c80:	2106      	movs	r1, #6
    2c82:	f7fe bab7 	b.w	11f4 <gpio_set_dir_in>

00002c86 <led_ann_3b_off>:
    2c86:	2001      	movs	r0, #1
    2c88:	2107      	movs	r1, #7
    2c8a:	f7fe bab3 	b.w	11f4 <gpio_set_dir_in>

00002c8e <led_ann_3r_off>:
    2c8e:	2001      	movs	r0, #1
    2c90:	2108      	movs	r1, #8
    2c92:	f7fe baaf 	b.w	11f4 <gpio_set_dir_in>

00002c96 <led_dbg_red_power_off>:
    2c96:	2003      	movs	r0, #3
    2c98:	2101      	movs	r1, #1
    2c9a:	f7fe baab 	b.w	11f4 <gpio_set_dir_in>

00002c9e <led_dbg_red_power_on>:
    2c9e:	b508      	push	{r3, lr}
    2ca0:	2003      	movs	r0, #3
    2ca2:	2101      	movs	r1, #1
    2ca4:	f7fe faa9 	bl	11fa <gpio_set_dir_out>
    2ca8:	e8bd 4008 	ldmia.w	sp!, {r3, lr}
    2cac:	2003      	movs	r0, #3
    2cae:	2101      	movs	r1, #1
    2cb0:	f7fe babe 	b.w	1230 <gpio_set_data_bit_zero>

00002cb4 <led_dbg_green_power_off>:
    2cb4:	2003      	movs	r0, #3
    2cb6:	2102      	movs	r1, #2
    2cb8:	f7fe ba9c 	b.w	11f4 <gpio_set_dir_in>

00002cbc <led_dbg_green_power_on>:
    2cbc:	b508      	push	{r3, lr}
    2cbe:	2003      	movs	r0, #3
    2cc0:	2102      	movs	r1, #2
    2cc2:	f7fe fa9a 	bl	11fa <gpio_set_dir_out>
    2cc6:	e8bd 4008 	ldmia.w	sp!, {r3, lr}
    2cca:	2003      	movs	r0, #3
    2ccc:	2102      	movs	r1, #2
    2cce:	f7fe baaf 	b.w	1230 <gpio_set_data_bit_zero>

00002cd2 <led_dbg_blue_power_off>:
    2cd2:	2003      	movs	r0, #3
    2cd4:	4601      	mov	r1, r0
    2cd6:	f7fe ba8d 	b.w	11f4 <gpio_set_dir_in>

00002cda <led_dbg_blue_power_on>:
    2cda:	b508      	push	{r3, lr}
    2cdc:	2003      	movs	r0, #3
    2cde:	4601      	mov	r1, r0
    2ce0:	f7fe fa8b 	bl	11fa <gpio_set_dir_out>
    2ce4:	e8bd 4008 	ldmia.w	sp!, {r3, lr}
    2ce8:	2003      	movs	r0, #3
    2cea:	4601      	mov	r1, r0
    2cec:	f7fe baa0 	b.w	1230 <gpio_set_data_bit_zero>

00002cf0 <led_bat_0_power_off>:
    2cf0:	2000      	movs	r0, #0
    2cf2:	210a      	movs	r1, #10
    2cf4:	f7fe ba7e 	b.w	11f4 <gpio_set_dir_in>

00002cf8 <led_bat_0_power_on>:
    2cf8:	b508      	push	{r3, lr}
    2cfa:	2000      	movs	r0, #0
    2cfc:	210a      	movs	r1, #10
    2cfe:	f7fe fa7c 	bl	11fa <gpio_set_dir_out>
    2d02:	e8bd 4008 	ldmia.w	sp!, {r3, lr}
    2d06:	2000      	movs	r0, #0
    2d08:	210a      	movs	r1, #10
    2d0a:	f7fe ba91 	b.w	1230 <gpio_set_data_bit_zero>

00002d0e <led_bat_1_power_off>:
    2d0e:	2001      	movs	r0, #1
    2d10:	2109      	movs	r1, #9
    2d12:	f7fe ba6f 	b.w	11f4 <gpio_set_dir_in>

00002d16 <led_bat_1_power_on>:
    2d16:	b508      	push	{r3, lr}
    2d18:	2001      	movs	r0, #1
    2d1a:	2109      	movs	r1, #9
    2d1c:	f7fe fa6d 	bl	11fa <gpio_set_dir_out>
    2d20:	e8bd 4008 	ldmia.w	sp!, {r3, lr}
    2d24:	2001      	movs	r0, #1
    2d26:	2109      	movs	r1, #9
    2d28:	f7fe ba82 	b.w	1230 <gpio_set_data_bit_zero>

00002d2c <led_bat_2_power_off>:
    2d2c:	2001      	movs	r0, #1
    2d2e:	210a      	movs	r1, #10
    2d30:	f7fe ba60 	b.w	11f4 <gpio_set_dir_in>

00002d34 <led_bat_2_power_on>:
    2d34:	b508      	push	{r3, lr}
    2d36:	2001      	movs	r0, #1
    2d38:	210a      	movs	r1, #10
    2d3a:	f7fe fa5e 	bl	11fa <gpio_set_dir_out>
    2d3e:	e8bd 4008 	ldmia.w	sp!, {r3, lr}
    2d42:	2001      	movs	r0, #1
    2d44:	210a      	movs	r1, #10
    2d46:	f7fe ba73 	b.w	1230 <gpio_set_data_bit_zero>

00002d4a <led_bat_3_power_off>:
    2d4a:	2001      	movs	r0, #1
    2d4c:	210b      	movs	r1, #11
    2d4e:	f7fe ba51 	b.w	11f4 <gpio_set_dir_in>

00002d52 <init_leds>:
    2d52:	b508      	push	{r3, lr}
    2d54:	f7ff ff9f 	bl	2c96 <led_dbg_red_power_off>
    2d58:	f7ff ffac 	bl	2cb4 <led_dbg_green_power_off>
    2d5c:	f7ff ffb9 	bl	2cd2 <led_dbg_blue_power_off>
    2d60:	f7ff ffc6 	bl	2cf0 <led_bat_0_power_off>
    2d64:	f7ff ffd3 	bl	2d0e <led_bat_1_power_off>
    2d68:	f7ff ffe0 	bl	2d2c <led_bat_2_power_off>
    2d6c:	f7ff ffed 	bl	2d4a <led_bat_3_power_off>
    2d70:	2002      	movs	r0, #2
    2d72:	2100      	movs	r1, #0
    2d74:	f7fe fa41 	bl	11fa <gpio_set_dir_out>
    2d78:	2002      	movs	r0, #2
    2d7a:	2100      	movs	r1, #0
    2d7c:	f7fe fa58 	bl	1230 <gpio_set_data_bit_zero>
    2d80:	2002      	movs	r0, #2
    2d82:	2101      	movs	r1, #1
    2d84:	f7fe fa39 	bl	11fa <gpio_set_dir_out>
    2d88:	2002      	movs	r0, #2
    2d8a:	2101      	movs	r1, #1
    2d8c:	f7fe fa50 	bl	1230 <gpio_set_data_bit_zero>
    2d90:	2002      	movs	r0, #2
    2d92:	4601      	mov	r1, r0
    2d94:	f7fe fa31 	bl	11fa <gpio_set_dir_out>
    2d98:	2002      	movs	r0, #2
    2d9a:	4601      	mov	r1, r0
    2d9c:	f7fe fa48 	bl	1230 <gpio_set_data_bit_zero>
    2da0:	2002      	movs	r0, #2
    2da2:	2103      	movs	r1, #3
    2da4:	f7fe fa29 	bl	11fa <gpio_set_dir_out>
    2da8:	2002      	movs	r0, #2
    2daa:	2103      	movs	r1, #3
    2dac:	f7fe fa40 	bl	1230 <gpio_set_data_bit_zero>
    2db0:	2002      	movs	r0, #2
    2db2:	2104      	movs	r1, #4
    2db4:	f7fe fa21 	bl	11fa <gpio_set_dir_out>
    2db8:	2002      	movs	r0, #2
    2dba:	2104      	movs	r1, #4
    2dbc:	f7fe fa38 	bl	1230 <gpio_set_data_bit_zero>
    2dc0:	2002      	movs	r0, #2
    2dc2:	2105      	movs	r1, #5
    2dc4:	f7fe fa19 	bl	11fa <gpio_set_dir_out>
    2dc8:	2002      	movs	r0, #2
    2dca:	2105      	movs	r1, #5
    2dcc:	f7fe fa30 	bl	1230 <gpio_set_data_bit_zero>
    2dd0:	2002      	movs	r0, #2
    2dd2:	2106      	movs	r1, #6
    2dd4:	f7fe fa11 	bl	11fa <gpio_set_dir_out>
    2dd8:	2002      	movs	r0, #2
    2dda:	2106      	movs	r1, #6
    2ddc:	f7fe fa28 	bl	1230 <gpio_set_data_bit_zero>
    2de0:	2002      	movs	r0, #2
    2de2:	2107      	movs	r1, #7
    2de4:	f7fe fa09 	bl	11fa <gpio_set_dir_out>
    2de8:	2002      	movs	r0, #2
    2dea:	2107      	movs	r1, #7
    2dec:	f7fe fa20 	bl	1230 <gpio_set_data_bit_zero>
    2df0:	2002      	movs	r0, #2
    2df2:	2108      	movs	r1, #8
    2df4:	f7fe fa01 	bl	11fa <gpio_set_dir_out>
    2df8:	2002      	movs	r0, #2
    2dfa:	2108      	movs	r1, #8
    2dfc:	f7fe fa18 	bl	1230 <gpio_set_data_bit_zero>
    2e00:	2002      	movs	r0, #2
    2e02:	2109      	movs	r1, #9
    2e04:	f7fe f9f9 	bl	11fa <gpio_set_dir_out>
    2e08:	2002      	movs	r0, #2
    2e0a:	2109      	movs	r1, #9
    2e0c:	f7fe fa10 	bl	1230 <gpio_set_data_bit_zero>
    2e10:	f7ff ff21 	bl	2c56 <led_ann_1b_off>
    2e14:	f7ff ff1b 	bl	2c4e <led_ann_1g_off>
    2e18:	f7ff ff21 	bl	2c5e <led_ann_1r_off>
    2e1c:	f7ff ff27 	bl	2c6e <led_ann_2b_off>
    2e20:	f7ff ff21 	bl	2c66 <led_ann_2g_off>
    2e24:	f7ff ff27 	bl	2c76 <led_ann_2r_off>
    2e28:	f7ff ff2d 	bl	2c86 <led_ann_3b_off>
    2e2c:	f7ff ff27 	bl	2c7e <led_ann_3g_off>
    2e30:	e8bd 4008 	ldmia.w	sp!, {r3, lr}
    2e34:	f7ff bf2b 	b.w	2c8e <led_ann_3r_off>

00002e38 <led_bat_3_power_on>:
    2e38:	b508      	push	{r3, lr}
    2e3a:	2001      	movs	r0, #1
    2e3c:	210b      	movs	r1, #11
    2e3e:	f7fe f9dc 	bl	11fa <gpio_set_dir_out>
    2e42:	e8bd 4008 	ldmia.w	sp!, {r3, lr}
    2e46:	2001      	movs	r0, #1
    2e48:	210b      	movs	r1, #11
    2e4a:	f7fe b9f1 	b.w	1230 <gpio_set_data_bit_zero>

00002e4e <print_bat_leds>:
    2e4e:	b513      	push	{r0, r1, r4, lr}
    2e50:	f000 000f 	and.w	r0, r0, #15
    2e54:	ac02      	add	r4, sp, #8
    2e56:	f844 0d04 	str.w	r0, [r4, #-4]!
    2e5a:	4620      	mov	r0, r4
    2e5c:	2100      	movs	r1, #0
    2e5e:	f7fe f912 	bl	1086 <bit_is_set>
    2e62:	b110      	cbz	r0, 2e6a <print_bat_leds+0x1c>
    2e64:	f7ff ff48 	bl	2cf8 <led_bat_0_power_on>
    2e68:	e001      	b.n	2e6e <print_bat_leds+0x20>
    2e6a:	f7ff ff41 	bl	2cf0 <led_bat_0_power_off>
    2e6e:	4620      	mov	r0, r4
    2e70:	2101      	movs	r1, #1
    2e72:	f7fe f908 	bl	1086 <bit_is_set>
    2e76:	b110      	cbz	r0, 2e7e <print_bat_leds+0x30>
    2e78:	f7ff ff4d 	bl	2d16 <led_bat_1_power_on>
    2e7c:	e001      	b.n	2e82 <print_bat_leds+0x34>
    2e7e:	f7ff ff46 	bl	2d0e <led_bat_1_power_off>
    2e82:	4620      	mov	r0, r4
    2e84:	2102      	movs	r1, #2
    2e86:	f7fe f8fe 	bl	1086 <bit_is_set>
    2e8a:	b110      	cbz	r0, 2e92 <print_bat_leds+0x44>
    2e8c:	f7ff ff52 	bl	2d34 <led_bat_2_power_on>
    2e90:	e001      	b.n	2e96 <print_bat_leds+0x48>
    2e92:	f7ff ff4b 	bl	2d2c <led_bat_2_power_off>
    2e96:	4620      	mov	r0, r4
    2e98:	2103      	movs	r1, #3
    2e9a:	f7fe f8f4 	bl	1086 <bit_is_set>
    2e9e:	b110      	cbz	r0, 2ea6 <print_bat_leds+0x58>
    2ea0:	f7ff ffca 	bl	2e38 <led_bat_3_power_on>
    2ea4:	e001      	b.n	2eaa <print_bat_leds+0x5c>
    2ea6:	f7ff ff50 	bl	2d4a <led_bat_3_power_off>
    2eaa:	b002      	add	sp, #8
    2eac:	bd10      	pop	{r4, pc}

00002eae <led_ann_cs_all_off>:
    2eae:	b508      	push	{r3, lr}
    2eb0:	2002      	movs	r0, #2
    2eb2:	2100      	movs	r1, #0
    2eb4:	f7fe f9bc 	bl	1230 <gpio_set_data_bit_zero>
    2eb8:	2002      	movs	r0, #2
    2eba:	2101      	movs	r1, #1
    2ebc:	f7fe f9b8 	bl	1230 <gpio_set_data_bit_zero>
    2ec0:	2002      	movs	r0, #2
    2ec2:	4601      	mov	r1, r0
    2ec4:	f7fe f9b4 	bl	1230 <gpio_set_data_bit_zero>
    2ec8:	2002      	movs	r0, #2
    2eca:	2103      	movs	r1, #3
    2ecc:	f7fe f9b0 	bl	1230 <gpio_set_data_bit_zero>
    2ed0:	2002      	movs	r0, #2
    2ed2:	2104      	movs	r1, #4
    2ed4:	f7fe f9ac 	bl	1230 <gpio_set_data_bit_zero>
    2ed8:	2002      	movs	r0, #2
    2eda:	2105      	movs	r1, #5
    2edc:	f7fe f9a8 	bl	1230 <gpio_set_data_bit_zero>
    2ee0:	2002      	movs	r0, #2
    2ee2:	2106      	movs	r1, #6
    2ee4:	f7fe f9a4 	bl	1230 <gpio_set_data_bit_zero>
    2ee8:	2002      	movs	r0, #2
    2eea:	2107      	movs	r1, #7
    2eec:	f7fe f9a0 	bl	1230 <gpio_set_data_bit_zero>
    2ef0:	2002      	movs	r0, #2
    2ef2:	2108      	movs	r1, #8
    2ef4:	f7fe f99c 	bl	1230 <gpio_set_data_bit_zero>
    2ef8:	e8bd 4008 	ldmia.w	sp!, {r3, lr}
    2efc:	2002      	movs	r0, #2
    2efe:	2109      	movs	r1, #9
    2f00:	f7fe b996 	b.w	1230 <gpio_set_data_bit_zero>

00002f04 <led_ann_cs_one_on>:
    2f04:	b510      	push	{r4, lr}
    2f06:	4604      	mov	r4, r0
    2f08:	f7ff ffd1 	bl	2eae <led_ann_cs_all_off>
    2f0c:	2c09      	cmp	r4, #9
    2f0e:	d805      	bhi.n	2f1c <led_ann_cs_one_on+0x18>
    2f10:	4621      	mov	r1, r4
    2f12:	2002      	movs	r0, #2
    2f14:	e8bd 4010 	ldmia.w	sp!, {r4, lr}
    2f18:	f7fe b98d 	b.w	1236 <gpio_set_data_bit_one>
    2f1c:	bd10      	pop	{r4, pc}

00002f1e <led_fsm_init>:
    2f1e:	6001      	str	r1, [r0, #0]
    2f20:	2100      	movs	r1, #0
    2f22:	6041      	str	r1, [r0, #4]
    2f24:	6081      	str	r1, [r0, #8]
    2f26:	60c1      	str	r1, [r0, #12]
    2f28:	6102      	str	r2, [r0, #16]
    2f2a:	6143      	str	r3, [r0, #20]
    2f2c:	4770      	bx	lr

00002f2e <led_fsm_step>:
    2f2e:	68c2      	ldr	r2, [r0, #12]
    2f30:	6881      	ldr	r1, [r0, #8]
    2f32:	3201      	adds	r2, #1
    2f34:	b538      	push	{r3, r4, r5, lr}
    2f36:	4604      	mov	r4, r0
    2f38:	60c2      	str	r2, [r0, #12]
    2f3a:	6843      	ldr	r3, [r0, #4]
    2f3c:	b959      	cbnz	r1, 2f56 <led_fsm_step+0x28>
    2f3e:	6800      	ldr	r0, [r0, #0]
    2f40:	1ac0      	subs	r0, r0, r3
    2f42:	4282      	cmp	r2, r0
    2f44:	db12      	blt.n	2f6c <led_fsm_step+0x3e>
    2f46:	2b00      	cmp	r3, #0
    2f48:	60e1      	str	r1, [r4, #12]
    2f4a:	dd0f      	ble.n	2f6c <led_fsm_step+0x3e>
    2f4c:	6963      	ldr	r3, [r4, #20]
    2f4e:	4798      	blx	r3
    2f50:	2301      	movs	r3, #1
    2f52:	60a3      	str	r3, [r4, #8]
    2f54:	bd38      	pop	{r3, r4, r5, pc}
    2f56:	429a      	cmp	r2, r3
    2f58:	db08      	blt.n	2f6c <led_fsm_step+0x3e>
    2f5a:	6802      	ldr	r2, [r0, #0]
    2f5c:	2500      	movs	r5, #0
    2f5e:	1ad3      	subs	r3, r2, r3
    2f60:	42ab      	cmp	r3, r5
    2f62:	60c5      	str	r5, [r0, #12]
    2f64:	dd02      	ble.n	2f6c <led_fsm_step+0x3e>
    2f66:	6903      	ldr	r3, [r0, #16]
    2f68:	4798      	blx	r3
    2f6a:	60a5      	str	r5, [r4, #8]
    2f6c:	bd38      	pop	{r3, r4, r5, pc}

00002f6e <led_fsm_set_bright>:
    2f6e:	6803      	ldr	r3, [r0, #0]
    2f70:	ea21 71e1 	bic.w	r1, r1, r1, asr #31
    2f74:	4299      	cmp	r1, r3
    2f76:	bfd4      	ite	le
    2f78:	6041      	strle	r1, [r0, #4]
    2f7a:	6043      	strgt	r3, [r0, #4]
    2f7c:	4770      	bx	lr

00002f7e <led_fsm_get_bright>:
    2f7e:	6840      	ldr	r0, [r0, #4]
    2f80:	4770      	bx	lr

00002f82 <led_matrix_fsm_init>:
    2f82:	4a1a      	ldr	r2, [pc, #104]	; (2fec <led_matrix_fsm_init+0x6a>)
    2f84:	b5f8      	push	{r3, r4, r5, r6, r7, lr}
    2f86:	e882 0003 	stmia.w	r2, {r0, r1}
    2f8a:	4348      	muls	r0, r1
    2f8c:	2301      	movs	r3, #1
    2f8e:	f102 016a 	add.w	r1, r2, #106	; 0x6a
    2f92:	60d3      	str	r3, [r2, #12]
    2f94:	6090      	str	r0, [r2, #8]
    2f96:	f102 0310 	add.w	r3, r2, #16
    2f9a:	460f      	mov	r7, r1
    2f9c:	2200      	movs	r2, #0
    2f9e:	701a      	strb	r2, [r3, #0]
    2fa0:	705a      	strb	r2, [r3, #1]
    2fa2:	709a      	strb	r2, [r3, #2]
    2fa4:	70da      	strb	r2, [r3, #3]
    2fa6:	711a      	strb	r2, [r3, #4]
    2fa8:	715a      	strb	r2, [r3, #5]
    2faa:	719a      	strb	r2, [r3, #6]
    2fac:	71da      	strb	r2, [r3, #7]
    2fae:	721a      	strb	r2, [r3, #8]
    2fb0:	3309      	adds	r3, #9
    2fb2:	428b      	cmp	r3, r1
    2fb4:	d1f3      	bne.n	2f9e <led_matrix_fsm_init+0x1c>
    2fb6:	2300      	movs	r3, #0
    2fb8:	4e0d      	ldr	r6, [pc, #52]	; (2ff0 <led_matrix_fsm_init+0x6e>)
    2fba:	461a      	mov	r2, r3
    2fbc:	54fa      	strb	r2, [r7, r3]
    2fbe:	559a      	strb	r2, [r3, r6]
    2fc0:	18f8      	adds	r0, r7, r3
    2fc2:	18f1      	adds	r1, r6, r3
    2fc4:	3303      	adds	r3, #3
    2fc6:	2b09      	cmp	r3, #9
    2fc8:	4d08      	ldr	r5, [pc, #32]	; (2fec <led_matrix_fsm_init+0x6a>)
    2fca:	f04f 0400 	mov.w	r4, #0
    2fce:	7042      	strb	r2, [r0, #1]
    2fd0:	704a      	strb	r2, [r1, #1]
    2fd2:	7082      	strb	r2, [r0, #2]
    2fd4:	708a      	strb	r2, [r1, #2]
    2fd6:	d1f1      	bne.n	2fbc <led_matrix_fsm_init+0x3a>
    2fd8:	f7ff ff69 	bl	2eae <led_ann_cs_all_off>
    2fdc:	4620      	mov	r0, r4
    2fde:	f7ff ff91 	bl	2f04 <led_ann_cs_one_on>
    2fe2:	67ec      	str	r4, [r5, #124]	; 0x7c
    2fe4:	f8c5 4080 	str.w	r4, [r5, #128]	; 0x80
    2fe8:	bdf8      	pop	{r3, r4, r5, r6, r7, pc}
    2fea:	bf00      	nop
    2fec:	10000204 	.word	0x10000204
    2ff0:	10000277 	.word	0x10000277

00002ff4 <led_matrix_fsm_step>:
    2ff4:	e92d 4ff0 	stmdb	sp!, {r4, r5, r6, r7, r8, r9, sl, fp, lr}
    2ff8:	4d40      	ldr	r5, [pc, #256]	; (30fc <led_matrix_fsm_step+0x108>)
    2ffa:	b085      	sub	sp, #20
    2ffc:	f8d5 3080 	ldr.w	r3, [r5, #128]	; 0x80
    3000:	68aa      	ldr	r2, [r5, #8]
    3002:	3301      	adds	r3, #1
    3004:	4293      	cmp	r3, r2
    3006:	f8c5 3080 	str.w	r3, [r5, #128]	; 0x80
    300a:	f105 096a 	add.w	r9, r5, #106	; 0x6a
    300e:	f105 0273 	add.w	r2, r5, #115	; 0x73
    3012:	f8df b0f0 	ldr.w	fp, [pc, #240]	; 3104 <led_matrix_fsm_step+0x110>
    3016:	d921      	bls.n	305c <led_matrix_fsm_step+0x68>
    3018:	6feb      	ldr	r3, [r5, #124]	; 0x7c
    301a:	2400      	movs	r4, #0
    301c:	3301      	adds	r3, #1
    301e:	2b09      	cmp	r3, #9
    3020:	bf88      	it	hi
    3022:	4623      	movhi	r3, r4
    3024:	f8c5 4080 	str.w	r4, [r5, #128]	; 0x80
    3028:	67eb      	str	r3, [r5, #124]	; 0x7c
    302a:	4627      	mov	r7, r4
    302c:	eb0b 0a84 	add.w	sl, fp, r4, lsl #2
    3030:	2600      	movs	r6, #0
    3032:	eb04 0809 	add.w	r8, r4, r9
    3036:	18a3      	adds	r3, r4, r2
    3038:	559f      	strb	r7, [r3, r6]
    303a:	f808 7006 	strb.w	r7, [r8, r6]
    303e:	f85a 3026 	ldr.w	r3, [sl, r6, lsl #2]
    3042:	9201      	str	r2, [sp, #4]
    3044:	3601      	adds	r6, #1
    3046:	4798      	blx	r3
    3048:	2e03      	cmp	r6, #3
    304a:	9a01      	ldr	r2, [sp, #4]
    304c:	d1f3      	bne.n	3036 <led_matrix_fsm_step+0x42>
    304e:	3403      	adds	r4, #3
    3050:	2c09      	cmp	r4, #9
    3052:	d1eb      	bne.n	302c <led_matrix_fsm_step+0x38>
    3054:	4b29      	ldr	r3, [pc, #164]	; (30fc <led_matrix_fsm_step+0x108>)
    3056:	6fd8      	ldr	r0, [r3, #124]	; 0x7c
    3058:	f7ff ff54 	bl	2f04 <led_ann_cs_one_on>
    305c:	4e28      	ldr	r6, [pc, #160]	; (3100 <led_matrix_fsm_step+0x10c>)
    305e:	f04f 0800 	mov.w	r8, #0
    3062:	f106 0709 	add.w	r7, r6, #9
    3066:	f1a6 096a 	sub.w	r9, r6, #106	; 0x6a
    306a:	230c      	movs	r3, #12
    306c:	fb03 f308 	mul.w	r3, r3, r8
    3070:	f8df a094 	ldr.w	sl, [pc, #148]	; 3108 <led_matrix_fsm_step+0x114>
    3074:	2400      	movs	r4, #0
    3076:	449a      	add	sl, r3
    3078:	445b      	add	r3, fp
    307a:	9302      	str	r3, [sp, #8]
    307c:	2303      	movs	r3, #3
    307e:	fb03 f308 	mul.w	r3, r3, r8
    3082:	9303      	str	r3, [sp, #12]
    3084:	9a03      	ldr	r2, [sp, #12]
    3086:	6feb      	ldr	r3, [r5, #124]	; 0x7c
    3088:	2109      	movs	r1, #9
    308a:	fb01 2303 	mla	r3, r1, r3, r2
    308e:	5d39      	ldrb	r1, [r7, r4]
    3090:	442b      	add	r3, r5
    3092:	4423      	add	r3, r4
    3094:	7c1a      	ldrb	r2, [r3, #16]
    3096:	3101      	adds	r1, #1
    3098:	68eb      	ldr	r3, [r5, #12]
    309a:	5d30      	ldrb	r0, [r6, r4]
    309c:	b2c9      	uxtb	r1, r1
    309e:	435a      	muls	r2, r3
    30a0:	5539      	strb	r1, [r7, r4]
    30a2:	b960      	cbnz	r0, 30be <led_matrix_fsm_step+0xca>
    30a4:	f8d9 3008 	ldr.w	r3, [r9, #8]
    30a8:	1a9b      	subs	r3, r3, r2
    30aa:	4299      	cmp	r1, r3
    30ac:	d316      	bcc.n	30dc <led_matrix_fsm_step+0xe8>
    30ae:	5538      	strb	r0, [r7, r4]
    30b0:	b1a2      	cbz	r2, 30dc <led_matrix_fsm_step+0xe8>
    30b2:	f85a 3024 	ldr.w	r3, [sl, r4, lsl #2]
    30b6:	4798      	blx	r3
    30b8:	2301      	movs	r3, #1
    30ba:	5533      	strb	r3, [r6, r4]
    30bc:	e00e      	b.n	30dc <led_matrix_fsm_step+0xe8>
    30be:	4291      	cmp	r1, r2
    30c0:	d30c      	bcc.n	30dc <led_matrix_fsm_step+0xe8>
    30c2:	f8d9 3008 	ldr.w	r3, [r9, #8]
    30c6:	2100      	movs	r1, #0
    30c8:	4293      	cmp	r3, r2
    30ca:	5539      	strb	r1, [r7, r4]
    30cc:	d006      	beq.n	30dc <led_matrix_fsm_step+0xe8>
    30ce:	9a02      	ldr	r2, [sp, #8]
    30d0:	f852 3024 	ldr.w	r3, [r2, r4, lsl #2]
    30d4:	9101      	str	r1, [sp, #4]
    30d6:	4798      	blx	r3
    30d8:	9901      	ldr	r1, [sp, #4]
    30da:	5531      	strb	r1, [r6, r4]
    30dc:	3401      	adds	r4, #1
    30de:	2c03      	cmp	r4, #3
    30e0:	d1d0      	bne.n	3084 <led_matrix_fsm_step+0x90>
    30e2:	f108 0801 	add.w	r8, r8, #1
    30e6:	f1b8 0f03 	cmp.w	r8, #3
    30ea:	f106 0603 	add.w	r6, r6, #3
    30ee:	f107 0703 	add.w	r7, r7, #3
    30f2:	d1ba      	bne.n	306a <led_matrix_fsm_step+0x76>
    30f4:	b005      	add	sp, #20
    30f6:	e8bd 8ff0 	ldmia.w	sp!, {r4, r5, r6, r7, r8, r9, sl, fp, pc}
    30fa:	bf00      	nop
    30fc:	10000204 	.word	0x10000204
    3100:	1000026e 	.word	0x1000026e
    3104:	00004bbc 	.word	0x00004bbc
    3108:	00004be0 	.word	0x00004be0

0000310c <led_matrix_fsm_set_global_bright>:
    310c:	4b04      	ldr	r3, [pc, #16]	; (3120 <led_matrix_fsm_set_global_bright+0x14>)
    310e:	2801      	cmp	r0, #1
    3110:	bf38      	it	cc
    3112:	2001      	movcc	r0, #1
    3114:	685a      	ldr	r2, [r3, #4]
    3116:	4290      	cmp	r0, r2
    3118:	bf94      	ite	ls
    311a:	60d8      	strls	r0, [r3, #12]
    311c:	60da      	strhi	r2, [r3, #12]
    311e:	4770      	bx	lr
    3120:	10000204 	.word	0x10000204

00003124 <led_matrix_fsm_get_global_bright>:
    3124:	4b01      	ldr	r3, [pc, #4]	; (312c <led_matrix_fsm_get_global_bright+0x8>)
    3126:	68d8      	ldr	r0, [r3, #12]
    3128:	4770      	bx	lr
    312a:	bf00      	nop
    312c:	10000204 	.word	0x10000204

00003130 <led_matrix_fsm_set_rgb_bright>:
    3130:	b570      	push	{r4, r5, r6, lr}
    3132:	4e0b      	ldr	r6, [pc, #44]	; (3160 <led_matrix_fsm_set_rgb_bright+0x30>)
    3134:	f89d 5010 	ldrb.w	r5, [sp, #16]
    3138:	6834      	ldr	r4, [r6, #0]
    313a:	42a2      	cmp	r2, r4
    313c:	bf88      	it	hi
    313e:	b2e2      	uxtbhi	r2, r4
    3140:	42a3      	cmp	r3, r4
    3142:	bf88      	it	hi
    3144:	b2e3      	uxtbhi	r3, r4
    3146:	42a5      	cmp	r5, r4
    3148:	bf88      	it	hi
    314a:	b2e5      	uxtbhi	r5, r4
    314c:	2409      	movs	r4, #9
    314e:	4360      	muls	r0, r4
    3150:	2403      	movs	r4, #3
    3152:	fb04 0101 	mla	r1, r4, r1, r0
    3156:	4431      	add	r1, r6
    3158:	740a      	strb	r2, [r1, #16]
    315a:	744b      	strb	r3, [r1, #17]
    315c:	748d      	strb	r5, [r1, #18]
    315e:	bd70      	pop	{r4, r5, r6, pc}
    3160:	10000204 	.word	0x10000204

00003164 <led_matrix_fsm_get_red>:
    3164:	2309      	movs	r3, #9
    3166:	4358      	muls	r0, r3
    3168:	2203      	movs	r2, #3
    316a:	fb02 0101 	mla	r1, r2, r1, r0
    316e:	4a02      	ldr	r2, [pc, #8]	; (3178 <led_matrix_fsm_get_red+0x14>)
    3170:	1853      	adds	r3, r2, r1
    3172:	7c18      	ldrb	r0, [r3, #16]
    3174:	4770      	bx	lr
    3176:	bf00      	nop
    3178:	10000204 	.word	0x10000204

0000317c <led_matrix_fsm_get_green>:
    317c:	2309      	movs	r3, #9
    317e:	4358      	muls	r0, r3
    3180:	2203      	movs	r2, #3
    3182:	fb02 0101 	mla	r1, r2, r1, r0
    3186:	4a02      	ldr	r2, [pc, #8]	; (3190 <led_matrix_fsm_get_green+0x14>)
    3188:	1853      	adds	r3, r2, r1
    318a:	7c58      	ldrb	r0, [r3, #17]
    318c:	4770      	bx	lr
    318e:	bf00      	nop
    3190:	10000204 	.word	0x10000204

00003194 <led_matrix_fsm_get_blue>:
    3194:	2309      	movs	r3, #9
    3196:	4358      	muls	r0, r3
    3198:	2203      	movs	r2, #3
    319a:	fb02 0101 	mla	r1, r2, r1, r0
    319e:	4a02      	ldr	r2, [pc, #8]	; (31a8 <led_matrix_fsm_get_blue+0x14>)
    31a0:	1853      	adds	r3, r2, r1
    31a2:	7c98      	ldrb	r0, [r3, #18]
    31a4:	4770      	bx	lr
    31a6:	bf00      	nop
    31a8:	10000204 	.word	0x10000204

000031ac <memset>:
    31ac:	4402      	add	r2, r0
    31ae:	4603      	mov	r3, r0
    31b0:	4293      	cmp	r3, r2
    31b2:	d002      	beq.n	31ba <memset+0xe>
    31b4:	f803 1b01 	strb.w	r1, [r3], #1
    31b8:	e7fa      	b.n	31b0 <memset+0x4>
    31ba:	4770      	bx	lr

000031bc <memcpy>:
    31bc:	4281      	cmp	r1, r0
    31be:	b510      	push	{r4, lr}
    31c0:	d301      	bcc.n	31c6 <memcpy+0xa>
    31c2:	2300      	movs	r3, #0
    31c4:	e00d      	b.n	31e2 <memcpy+0x26>
    31c6:	188c      	adds	r4, r1, r2
    31c8:	4284      	cmp	r4, r0
    31ca:	d9fa      	bls.n	31c2 <memcpy+0x6>
    31cc:	4253      	negs	r3, r2
    31ce:	1881      	adds	r1, r0, r2
    31d0:	441c      	add	r4, r3
    31d2:	440b      	add	r3, r1
    31d4:	f112 32ff 	adds.w	r2, r2, #4294967295
    31d8:	d302      	bcc.n	31e0 <memcpy+0x24>
    31da:	5ca1      	ldrb	r1, [r4, r2]
    31dc:	5499      	strb	r1, [r3, r2]
    31de:	e7f9      	b.n	31d4 <memcpy+0x18>
    31e0:	bd10      	pop	{r4, pc}
    31e2:	4293      	cmp	r3, r2
    31e4:	d003      	beq.n	31ee <memcpy+0x32>
    31e6:	5ccc      	ldrb	r4, [r1, r3]
    31e8:	54c4      	strb	r4, [r0, r3]
    31ea:	3301      	adds	r3, #1
    31ec:	e7f9      	b.n	31e2 <memcpy+0x26>
    31ee:	bd10      	pop	{r4, pc}

000031f0 <init_switches>:
    31f0:	2003      	movs	r0, #3
    31f2:	2100      	movs	r1, #0
    31f4:	f7fd bffe 	b.w	11f4 <gpio_set_dir_in>

000031f8 <switch_dbg_is_set>:
    31f8:	b508      	push	{r3, lr}
    31fa:	2100      	movs	r1, #0
    31fc:	2003      	movs	r0, #3
    31fe:	f7fe f81d 	bl	123c <gpio_get_data_bit>
    3202:	f1d0 0001 	rsbs	r0, r0, #1
    3206:	bf38      	it	cc
    3208:	2000      	movcc	r0, #0
    320a:	bd08      	pop	{r3, pc}

0000320c <remap_vectors_to_boot_rom>:
    320c:	4801      	ldr	r0, [pc, #4]	; (3214 <remap_vectors_to_boot_rom+0x8>)
    320e:	2103      	movs	r1, #3
    3210:	f7fd bf42 	b.w	1098 <set_all_bits_zero>
    3214:	40048000 	.word	0x40048000

00003218 <remap_vectors_to_sram>:
    3218:	b510      	push	{r4, lr}
    321a:	4c05      	ldr	r4, [pc, #20]	; (3230 <remap_vectors_to_sram+0x18>)
    321c:	2103      	movs	r1, #3
    321e:	4620      	mov	r0, r4
    3220:	f7fd ff3a 	bl	1098 <set_all_bits_zero>
    3224:	4620      	mov	r0, r4
    3226:	2101      	movs	r1, #1
    3228:	e8bd 4010 	ldmia.w	sp!, {r4, lr}
    322c:	f7fd bf39 	b.w	10a2 <set_all_bits_one>
    3230:	40048000 	.word	0x40048000

00003234 <remap_vectors_to_flash>:
    3234:	b510      	push	{r4, lr}
    3236:	4c05      	ldr	r4, [pc, #20]	; (324c <remap_vectors_to_flash+0x18>)
    3238:	2103      	movs	r1, #3
    323a:	4620      	mov	r0, r4
    323c:	f7fd ff2c 	bl	1098 <set_all_bits_zero>
    3240:	4620      	mov	r0, r4
    3242:	2102      	movs	r1, #2
    3244:	e8bd 4010 	ldmia.w	sp!, {r4, lr}
    3248:	f7fd bf2b 	b.w	10a2 <set_all_bits_one>
    324c:	40048000 	.word	0x40048000

00003250 <ssp_reset_enabled>:
    3250:	4801      	ldr	r0, [pc, #4]	; (3258 <ssp_reset_enabled+0x8>)
    3252:	2101      	movs	r1, #1
    3254:	f7fd bf20 	b.w	1098 <set_all_bits_zero>
    3258:	40048004 	.word	0x40048004

0000325c <ssp_reset_disabled>:
    325c:	4801      	ldr	r0, [pc, #4]	; (3264 <ssp_reset_disabled+0x8>)
    325e:	2101      	movs	r1, #1
    3260:	f7fd bf1f 	b.w	10a2 <set_all_bits_one>
    3264:	40048004 	.word	0x40048004

00003268 <i2c_reset_enabled>:
    3268:	4801      	ldr	r0, [pc, #4]	; (3270 <i2c_reset_enabled+0x8>)
    326a:	2102      	movs	r1, #2
    326c:	f7fd bf14 	b.w	1098 <set_all_bits_zero>
    3270:	40048004 	.word	0x40048004

00003274 <i2c_reset_disabled>:
    3274:	4801      	ldr	r0, [pc, #4]	; (327c <i2c_reset_disabled+0x8>)
    3276:	2102      	movs	r1, #2
    3278:	f7fd bf13 	b.w	10a2 <set_all_bits_one>
    327c:	40048004 	.word	0x40048004

00003280 <syspll_set_first_divider_1>:
    3280:	4801      	ldr	r0, [pc, #4]	; (3288 <syspll_set_first_divider_1+0x8>)
    3282:	211f      	movs	r1, #31
    3284:	f7fd bf08 	b.w	1098 <set_all_bits_zero>
    3288:	40048008 	.word	0x40048008

0000328c <syspll_set_first_divider_2>:
    328c:	b510      	push	{r4, lr}
    328e:	4c05      	ldr	r4, [pc, #20]	; (32a4 <syspll_set_first_divider_2+0x18>)
    3290:	211f      	movs	r1, #31
    3292:	4620      	mov	r0, r4
    3294:	f7fd ff00 	bl	1098 <set_all_bits_zero>
    3298:	4620      	mov	r0, r4
    329a:	2101      	movs	r1, #1
    329c:	e8bd 4010 	ldmia.w	sp!, {r4, lr}
    32a0:	f7fd beff 	b.w	10a2 <set_all_bits_one>
    32a4:	40048008 	.word	0x40048008

000032a8 <syspll_set_first_divider_3>:
    32a8:	b510      	push	{r4, lr}
    32aa:	4c05      	ldr	r4, [pc, #20]	; (32c0 <syspll_set_first_divider_3+0x18>)
    32ac:	211f      	movs	r1, #31
    32ae:	4620      	mov	r0, r4
    32b0:	f7fd fef2 	bl	1098 <set_all_bits_zero>
    32b4:	4620      	mov	r0, r4
    32b6:	2102      	movs	r1, #2
    32b8:	e8bd 4010 	ldmia.w	sp!, {r4, lr}
    32bc:	f7fd bef1 	b.w	10a2 <set_all_bits_one>
    32c0:	40048008 	.word	0x40048008

000032c4 <syspll_set_first_divider_4>:
    32c4:	b510      	push	{r4, lr}
    32c6:	4c05      	ldr	r4, [pc, #20]	; (32dc <syspll_set_first_divider_4+0x18>)
    32c8:	211f      	movs	r1, #31
    32ca:	4620      	mov	r0, r4
    32cc:	f7fd fee4 	bl	1098 <set_all_bits_zero>
    32d0:	4620      	mov	r0, r4
    32d2:	2103      	movs	r1, #3
    32d4:	e8bd 4010 	ldmia.w	sp!, {r4, lr}
    32d8:	f7fd bee3 	b.w	10a2 <set_all_bits_one>
    32dc:	40048008 	.word	0x40048008

000032e0 <syspll_set_first_divider_5>:
    32e0:	b510      	push	{r4, lr}
    32e2:	4c05      	ldr	r4, [pc, #20]	; (32f8 <syspll_set_first_divider_5+0x18>)
    32e4:	211f      	movs	r1, #31
    32e6:	4620      	mov	r0, r4
    32e8:	f7fd fed6 	bl	1098 <set_all_bits_zero>
    32ec:	4620      	mov	r0, r4
    32ee:	2104      	movs	r1, #4
    32f0:	e8bd 4010 	ldmia.w	sp!, {r4, lr}
    32f4:	f7fd bed5 	b.w	10a2 <set_all_bits_one>
    32f8:	40048008 	.word	0x40048008

000032fc <syspll_set_first_divider_6>:
    32fc:	b510      	push	{r4, lr}
    32fe:	4c05      	ldr	r4, [pc, #20]	; (3314 <syspll_set_first_divider_6+0x18>)
    3300:	211f      	movs	r1, #31
    3302:	4620      	mov	r0, r4
    3304:	f7fd fec8 	bl	1098 <set_all_bits_zero>
    3308:	4620      	mov	r0, r4
    330a:	2105      	movs	r1, #5
    330c:	e8bd 4010 	ldmia.w	sp!, {r4, lr}
    3310:	f7fd bec7 	b.w	10a2 <set_all_bits_one>
    3314:	40048008 	.word	0x40048008

00003318 <syspll_set_first_divider_7>:
    3318:	b510      	push	{r4, lr}
    331a:	4c05      	ldr	r4, [pc, #20]	; (3330 <syspll_set_first_divider_7+0x18>)
    331c:	211f      	movs	r1, #31
    331e:	4620      	mov	r0, r4
    3320:	f7fd feba 	bl	1098 <set_all_bits_zero>
    3324:	4620      	mov	r0, r4
    3326:	2106      	movs	r1, #6
    3328:	e8bd 4010 	ldmia.w	sp!, {r4, lr}
    332c:	f7fd beb9 	b.w	10a2 <set_all_bits_one>
    3330:	40048008 	.word	0x40048008

00003334 <syspll_set_first_divider_8>:
    3334:	b510      	push	{r4, lr}
    3336:	4c05      	ldr	r4, [pc, #20]	; (334c <syspll_set_first_divider_8+0x18>)
    3338:	211f      	movs	r1, #31
    333a:	4620      	mov	r0, r4
    333c:	f7fd feac 	bl	1098 <set_all_bits_zero>
    3340:	4620      	mov	r0, r4
    3342:	2107      	movs	r1, #7
    3344:	e8bd 4010 	ldmia.w	sp!, {r4, lr}
    3348:	f7fd beab 	b.w	10a2 <set_all_bits_one>
    334c:	40048008 	.word	0x40048008

00003350 <syspll_set_first_divider_9>:
    3350:	b510      	push	{r4, lr}
    3352:	4c05      	ldr	r4, [pc, #20]	; (3368 <syspll_set_first_divider_9+0x18>)
    3354:	211f      	movs	r1, #31
    3356:	4620      	mov	r0, r4
    3358:	f7fd fe9e 	bl	1098 <set_all_bits_zero>
    335c:	4620      	mov	r0, r4
    335e:	2108      	movs	r1, #8
    3360:	e8bd 4010 	ldmia.w	sp!, {r4, lr}
    3364:	f7fd be9d 	b.w	10a2 <set_all_bits_one>
    3368:	40048008 	.word	0x40048008

0000336c <syspll_set_first_divider_10>:
    336c:	b510      	push	{r4, lr}
    336e:	4c05      	ldr	r4, [pc, #20]	; (3384 <syspll_set_first_divider_10+0x18>)
    3370:	211f      	movs	r1, #31
    3372:	4620      	mov	r0, r4
    3374:	f7fd fe90 	bl	1098 <set_all_bits_zero>
    3378:	4620      	mov	r0, r4
    337a:	2109      	movs	r1, #9
    337c:	e8bd 4010 	ldmia.w	sp!, {r4, lr}
    3380:	f7fd be8f 	b.w	10a2 <set_all_bits_one>
    3384:	40048008 	.word	0x40048008

00003388 <syspll_set_first_divider_11>:
    3388:	b510      	push	{r4, lr}
    338a:	4c05      	ldr	r4, [pc, #20]	; (33a0 <syspll_set_first_divider_11+0x18>)
    338c:	211f      	movs	r1, #31
    338e:	4620      	mov	r0, r4
    3390:	f7fd fe82 	bl	1098 <set_all_bits_zero>
    3394:	4620      	mov	r0, r4
    3396:	210a      	movs	r1, #10
    3398:	e8bd 4010 	ldmia.w	sp!, {r4, lr}
    339c:	f7fd be81 	b.w	10a2 <set_all_bits_one>
    33a0:	40048008 	.word	0x40048008

000033a4 <syspll_set_first_divider_12>:
    33a4:	b510      	push	{r4, lr}
    33a6:	4c05      	ldr	r4, [pc, #20]	; (33bc <syspll_set_first_divider_12+0x18>)
    33a8:	211f      	movs	r1, #31
    33aa:	4620      	mov	r0, r4
    33ac:	f7fd fe74 	bl	1098 <set_all_bits_zero>
    33b0:	4620      	mov	r0, r4
    33b2:	210b      	movs	r1, #11
    33b4:	e8bd 4010 	ldmia.w	sp!, {r4, lr}
    33b8:	f7fd be73 	b.w	10a2 <set_all_bits_one>
    33bc:	40048008 	.word	0x40048008

000033c0 <syspll_set_first_divider_13>:
    33c0:	b510      	push	{r4, lr}
    33c2:	4c05      	ldr	r4, [pc, #20]	; (33d8 <syspll_set_first_divider_13+0x18>)
    33c4:	211f      	movs	r1, #31
    33c6:	4620      	mov	r0, r4
    33c8:	f7fd fe66 	bl	1098 <set_all_bits_zero>
    33cc:	4620      	mov	r0, r4
    33ce:	210c      	movs	r1, #12
    33d0:	e8bd 4010 	ldmia.w	sp!, {r4, lr}
    33d4:	f7fd be65 	b.w	10a2 <set_all_bits_one>
    33d8:	40048008 	.word	0x40048008

000033dc <syspll_set_first_divider_14>:
    33dc:	b510      	push	{r4, lr}
    33de:	4c05      	ldr	r4, [pc, #20]	; (33f4 <syspll_set_first_divider_14+0x18>)
    33e0:	211f      	movs	r1, #31
    33e2:	4620      	mov	r0, r4
    33e4:	f7fd fe58 	bl	1098 <set_all_bits_zero>
    33e8:	4620      	mov	r0, r4
    33ea:	210d      	movs	r1, #13
    33ec:	e8bd 4010 	ldmia.w	sp!, {r4, lr}
    33f0:	f7fd be57 	b.w	10a2 <set_all_bits_one>
    33f4:	40048008 	.word	0x40048008

000033f8 <syspll_set_first_divider_15>:
    33f8:	b510      	push	{r4, lr}
    33fa:	4c05      	ldr	r4, [pc, #20]	; (3410 <syspll_set_first_divider_15+0x18>)
    33fc:	211f      	movs	r1, #31
    33fe:	4620      	mov	r0, r4
    3400:	f7fd fe4a 	bl	1098 <set_all_bits_zero>
    3404:	4620      	mov	r0, r4
    3406:	210e      	movs	r1, #14
    3408:	e8bd 4010 	ldmia.w	sp!, {r4, lr}
    340c:	f7fd be49 	b.w	10a2 <set_all_bits_one>
    3410:	40048008 	.word	0x40048008

00003414 <syspll_set_first_divider_16>:
    3414:	b510      	push	{r4, lr}
    3416:	4c05      	ldr	r4, [pc, #20]	; (342c <syspll_set_first_divider_16+0x18>)
    3418:	211f      	movs	r1, #31
    341a:	4620      	mov	r0, r4
    341c:	f7fd fe3c 	bl	1098 <set_all_bits_zero>
    3420:	4620      	mov	r0, r4
    3422:	210f      	movs	r1, #15
    3424:	e8bd 4010 	ldmia.w	sp!, {r4, lr}
    3428:	f7fd be3b 	b.w	10a2 <set_all_bits_one>
    342c:	40048008 	.word	0x40048008

00003430 <syspll_set_first_divider_17>:
    3430:	b510      	push	{r4, lr}
    3432:	4c05      	ldr	r4, [pc, #20]	; (3448 <syspll_set_first_divider_17+0x18>)
    3434:	211f      	movs	r1, #31
    3436:	4620      	mov	r0, r4
    3438:	f7fd fe2e 	bl	1098 <set_all_bits_zero>
    343c:	4620      	mov	r0, r4
    343e:	2110      	movs	r1, #16
    3440:	e8bd 4010 	ldmia.w	sp!, {r4, lr}
    3444:	f7fd be2d 	b.w	10a2 <set_all_bits_one>
    3448:	40048008 	.word	0x40048008

0000344c <syspll_set_first_divider_18>:
    344c:	b510      	push	{r4, lr}
    344e:	4c05      	ldr	r4, [pc, #20]	; (3464 <syspll_set_first_divider_18+0x18>)
    3450:	211f      	movs	r1, #31
    3452:	4620      	mov	r0, r4
    3454:	f7fd fe20 	bl	1098 <set_all_bits_zero>
    3458:	4620      	mov	r0, r4
    345a:	2111      	movs	r1, #17
    345c:	e8bd 4010 	ldmia.w	sp!, {r4, lr}
    3460:	f7fd be1f 	b.w	10a2 <set_all_bits_one>
    3464:	40048008 	.word	0x40048008

00003468 <syspll_set_first_divider_19>:
    3468:	b510      	push	{r4, lr}
    346a:	4c05      	ldr	r4, [pc, #20]	; (3480 <syspll_set_first_divider_19+0x18>)
    346c:	211f      	movs	r1, #31
    346e:	4620      	mov	r0, r4
    3470:	f7fd fe12 	bl	1098 <set_all_bits_zero>
    3474:	4620      	mov	r0, r4
    3476:	2112      	movs	r1, #18
    3478:	e8bd 4010 	ldmia.w	sp!, {r4, lr}
    347c:	f7fd be11 	b.w	10a2 <set_all_bits_one>
    3480:	40048008 	.word	0x40048008

00003484 <syspll_set_first_divider_20>:
    3484:	b510      	push	{r4, lr}
    3486:	4c05      	ldr	r4, [pc, #20]	; (349c <syspll_set_first_divider_20+0x18>)
    3488:	211f      	movs	r1, #31
    348a:	4620      	mov	r0, r4
    348c:	f7fd fe04 	bl	1098 <set_all_bits_zero>
    3490:	4620      	mov	r0, r4
    3492:	2113      	movs	r1, #19
    3494:	e8bd 4010 	ldmia.w	sp!, {r4, lr}
    3498:	f7fd be03 	b.w	10a2 <set_all_bits_one>
    349c:	40048008 	.word	0x40048008

000034a0 <syspll_set_first_divider_21>:
    34a0:	b510      	push	{r4, lr}
    34a2:	4c05      	ldr	r4, [pc, #20]	; (34b8 <syspll_set_first_divider_21+0x18>)
    34a4:	211f      	movs	r1, #31
    34a6:	4620      	mov	r0, r4
    34a8:	f7fd fdf6 	bl	1098 <set_all_bits_zero>
    34ac:	4620      	mov	r0, r4
    34ae:	2114      	movs	r1, #20
    34b0:	e8bd 4010 	ldmia.w	sp!, {r4, lr}
    34b4:	f7fd bdf5 	b.w	10a2 <set_all_bits_one>
    34b8:	40048008 	.word	0x40048008

000034bc <syspll_set_first_divider_22>:
    34bc:	b510      	push	{r4, lr}
    34be:	4c05      	ldr	r4, [pc, #20]	; (34d4 <syspll_set_first_divider_22+0x18>)
    34c0:	211f      	movs	r1, #31
    34c2:	4620      	mov	r0, r4
    34c4:	f7fd fde8 	bl	1098 <set_all_bits_zero>
    34c8:	4620      	mov	r0, r4
    34ca:	2115      	movs	r1, #21
    34cc:	e8bd 4010 	ldmia.w	sp!, {r4, lr}
    34d0:	f7fd bde7 	b.w	10a2 <set_all_bits_one>
    34d4:	40048008 	.word	0x40048008

000034d8 <syspll_set_first_divider_23>:
    34d8:	b510      	push	{r4, lr}
    34da:	4c05      	ldr	r4, [pc, #20]	; (34f0 <syspll_set_first_divider_23+0x18>)
    34dc:	211f      	movs	r1, #31
    34de:	4620      	mov	r0, r4
    34e0:	f7fd fdda 	bl	1098 <set_all_bits_zero>
    34e4:	4620      	mov	r0, r4
    34e6:	2116      	movs	r1, #22
    34e8:	e8bd 4010 	ldmia.w	sp!, {r4, lr}
    34ec:	f7fd bdd9 	b.w	10a2 <set_all_bits_one>
    34f0:	40048008 	.word	0x40048008

000034f4 <syspll_set_first_divider_24>:
    34f4:	b510      	push	{r4, lr}
    34f6:	4c05      	ldr	r4, [pc, #20]	; (350c <syspll_set_first_divider_24+0x18>)
    34f8:	211f      	movs	r1, #31
    34fa:	4620      	mov	r0, r4
    34fc:	f7fd fdcc 	bl	1098 <set_all_bits_zero>
    3500:	4620      	mov	r0, r4
    3502:	2117      	movs	r1, #23
    3504:	e8bd 4010 	ldmia.w	sp!, {r4, lr}
    3508:	f7fd bdcb 	b.w	10a2 <set_all_bits_one>
    350c:	40048008 	.word	0x40048008

00003510 <syspll_set_first_divider_25>:
    3510:	b510      	push	{r4, lr}
    3512:	4c05      	ldr	r4, [pc, #20]	; (3528 <syspll_set_first_divider_25+0x18>)
    3514:	211f      	movs	r1, #31
    3516:	4620      	mov	r0, r4
    3518:	f7fd fdbe 	bl	1098 <set_all_bits_zero>
    351c:	4620      	mov	r0, r4
    351e:	2118      	movs	r1, #24
    3520:	e8bd 4010 	ldmia.w	sp!, {r4, lr}
    3524:	f7fd bdbd 	b.w	10a2 <set_all_bits_one>
    3528:	40048008 	.word	0x40048008

0000352c <syspll_set_first_divider_26>:
    352c:	b510      	push	{r4, lr}
    352e:	4c05      	ldr	r4, [pc, #20]	; (3544 <syspll_set_first_divider_26+0x18>)
    3530:	211f      	movs	r1, #31
    3532:	4620      	mov	r0, r4
    3534:	f7fd fdb0 	bl	1098 <set_all_bits_zero>
    3538:	4620      	mov	r0, r4
    353a:	2119      	movs	r1, #25
    353c:	e8bd 4010 	ldmia.w	sp!, {r4, lr}
    3540:	f7fd bdaf 	b.w	10a2 <set_all_bits_one>
    3544:	40048008 	.word	0x40048008

00003548 <syspll_set_first_divider_27>:
    3548:	b510      	push	{r4, lr}
    354a:	4c05      	ldr	r4, [pc, #20]	; (3560 <syspll_set_first_divider_27+0x18>)
    354c:	211f      	movs	r1, #31
    354e:	4620      	mov	r0, r4
    3550:	f7fd fda2 	bl	1098 <set_all_bits_zero>
    3554:	4620      	mov	r0, r4
    3556:	211a      	movs	r1, #26
    3558:	e8bd 4010 	ldmia.w	sp!, {r4, lr}
    355c:	f7fd bda1 	b.w	10a2 <set_all_bits_one>
    3560:	40048008 	.word	0x40048008

00003564 <syspll_set_first_divider_28>:
    3564:	b510      	push	{r4, lr}
    3566:	4c05      	ldr	r4, [pc, #20]	; (357c <syspll_set_first_divider_28+0x18>)
    3568:	211f      	movs	r1, #31
    356a:	4620      	mov	r0, r4
    356c:	f7fd fd94 	bl	1098 <set_all_bits_zero>
    3570:	4620      	mov	r0, r4
    3572:	211b      	movs	r1, #27
    3574:	e8bd 4010 	ldmia.w	sp!, {r4, lr}
    3578:	f7fd bd93 	b.w	10a2 <set_all_bits_one>
    357c:	40048008 	.word	0x40048008

00003580 <syspll_set_first_divider_29>:
    3580:	b510      	push	{r4, lr}
    3582:	4c05      	ldr	r4, [pc, #20]	; (3598 <syspll_set_first_divider_29+0x18>)
    3584:	211f      	movs	r1, #31
    3586:	4620      	mov	r0, r4
    3588:	f7fd fd86 	bl	1098 <set_all_bits_zero>
    358c:	4620      	mov	r0, r4
    358e:	211c      	movs	r1, #28
    3590:	e8bd 4010 	ldmia.w	sp!, {r4, lr}
    3594:	f7fd bd85 	b.w	10a2 <set_all_bits_one>
    3598:	40048008 	.word	0x40048008

0000359c <syspll_set_first_divider_30>:
    359c:	b510      	push	{r4, lr}
    359e:	4c05      	ldr	r4, [pc, #20]	; (35b4 <syspll_set_first_divider_30+0x18>)
    35a0:	211f      	movs	r1, #31
    35a2:	4620      	mov	r0, r4
    35a4:	f7fd fd78 	bl	1098 <set_all_bits_zero>
    35a8:	4620      	mov	r0, r4
    35aa:	211d      	movs	r1, #29
    35ac:	e8bd 4010 	ldmia.w	sp!, {r4, lr}
    35b0:	f7fd bd77 	b.w	10a2 <set_all_bits_one>
    35b4:	40048008 	.word	0x40048008

000035b8 <syspll_set_first_divider_31>:
    35b8:	b510      	push	{r4, lr}
    35ba:	4c05      	ldr	r4, [pc, #20]	; (35d0 <syspll_set_first_divider_31+0x18>)
    35bc:	211f      	movs	r1, #31
    35be:	4620      	mov	r0, r4
    35c0:	f7fd fd6a 	bl	1098 <set_all_bits_zero>
    35c4:	4620      	mov	r0, r4
    35c6:	211e      	movs	r1, #30
    35c8:	e8bd 4010 	ldmia.w	sp!, {r4, lr}
    35cc:	f7fd bd69 	b.w	10a2 <set_all_bits_one>
    35d0:	40048008 	.word	0x40048008

000035d4 <syspll_set_first_divider_32>:
    35d4:	4801      	ldr	r0, [pc, #4]	; (35dc <syspll_set_first_divider_32+0x8>)
    35d6:	211f      	movs	r1, #31
    35d8:	f7fd bd63 	b.w	10a2 <set_all_bits_one>
    35dc:	40048008 	.word	0x40048008

000035e0 <syspll_set_second_diviver_2>:
    35e0:	4801      	ldr	r0, [pc, #4]	; (35e8 <syspll_set_second_diviver_2+0x8>)
    35e2:	2160      	movs	r1, #96	; 0x60
    35e4:	f7fd bd58 	b.w	1098 <set_all_bits_zero>
    35e8:	40048008 	.word	0x40048008

000035ec <syspll_set_second_diviver_4>:
    35ec:	b510      	push	{r4, lr}
    35ee:	4c05      	ldr	r4, [pc, #20]	; (3604 <syspll_set_second_diviver_4+0x18>)
    35f0:	2160      	movs	r1, #96	; 0x60
    35f2:	4620      	mov	r0, r4
    35f4:	f7fd fd50 	bl	1098 <set_all_bits_zero>
    35f8:	4620      	mov	r0, r4
    35fa:	2120      	movs	r1, #32
    35fc:	e8bd 4010 	ldmia.w	sp!, {r4, lr}
    3600:	f7fd bd4f 	b.w	10a2 <set_all_bits_one>
    3604:	40048008 	.word	0x40048008

00003608 <syspll_set_second_diviver_8>:
    3608:	b510      	push	{r4, lr}
    360a:	4c05      	ldr	r4, [pc, #20]	; (3620 <syspll_set_second_diviver_8+0x18>)
    360c:	2160      	movs	r1, #96	; 0x60
    360e:	4620      	mov	r0, r4
    3610:	f7fd fd42 	bl	1098 <set_all_bits_zero>
    3614:	4620      	mov	r0, r4
    3616:	2140      	movs	r1, #64	; 0x40
    3618:	e8bd 4010 	ldmia.w	sp!, {r4, lr}
    361c:	f7fd bd41 	b.w	10a2 <set_all_bits_one>
    3620:	40048008 	.word	0x40048008

00003624 <syspll_set_second_diviver_16>:
    3624:	4801      	ldr	r0, [pc, #4]	; (362c <syspll_set_second_diviver_16+0x8>)
    3626:	2160      	movs	r1, #96	; 0x60
    3628:	f7fd bd3b 	b.w	10a2 <set_all_bits_one>
    362c:	40048008 	.word	0x40048008

00003630 <syspll_set_dividers_12MHz_to_12Mhz>:
    3630:	b508      	push	{r3, lr}
    3632:	f7ff fe25 	bl	3280 <syspll_set_first_divider_1>
    3636:	e8bd 4008 	ldmia.w	sp!, {r3, lr}
    363a:	f7ff bfd1 	b.w	35e0 <syspll_set_second_diviver_2>

0000363e <syspll_set_dividers_12MHz_to_24Mhz>:
    363e:	b508      	push	{r3, lr}
    3640:	f7ff fe24 	bl	328c <syspll_set_first_divider_2>
    3644:	e8bd 4008 	ldmia.w	sp!, {r3, lr}
    3648:	f7ff bfde 	b.w	3608 <syspll_set_second_diviver_8>

0000364c <syspll_set_dividers_12MHz_to_36Mhz>:
    364c:	b508      	push	{r3, lr}
    364e:	f7ff fe2b 	bl	32a8 <syspll_set_first_divider_3>
    3652:	e8bd 4008 	ldmia.w	sp!, {r3, lr}
    3656:	f7ff bfd7 	b.w	3608 <syspll_set_second_diviver_8>

0000365a <syspll_set_dividers_12MHz_to_48Mhz>:
    365a:	b508      	push	{r3, lr}
    365c:	f7ff fe32 	bl	32c4 <syspll_set_first_divider_4>
    3660:	e8bd 4008 	ldmia.w	sp!, {r3, lr}
    3664:	f7ff bfc2 	b.w	35ec <syspll_set_second_diviver_4>

00003668 <syspll_set_dividers_12MHz_to_72Mhz>:
    3668:	b508      	push	{r3, lr}
    366a:	f7ff fe47 	bl	32fc <syspll_set_first_divider_6>
    366e:	e8bd 4008 	ldmia.w	sp!, {r3, lr}
    3672:	f7ff bfbb 	b.w	35ec <syspll_set_second_diviver_4>

00003676 <syspll_is_locked>:
    3676:	4802      	ldr	r0, [pc, #8]	; (3680 <syspll_is_locked+0xa>)
    3678:	2100      	movs	r1, #0
    367a:	f7fd bd04 	b.w	1086 <bit_is_set>
    367e:	bf00      	nop
    3680:	4004800c 	.word	0x4004800c

00003684 <usbpll_set_first_divider_1>:
    3684:	4801      	ldr	r0, [pc, #4]	; (368c <usbpll_set_first_divider_1+0x8>)
    3686:	211f      	movs	r1, #31
    3688:	f7fd bd06 	b.w	1098 <set_all_bits_zero>
    368c:	40048010 	.word	0x40048010

00003690 <usbpll_set_first_divider_2>:
    3690:	b510      	push	{r4, lr}
    3692:	4c05      	ldr	r4, [pc, #20]	; (36a8 <usbpll_set_first_divider_2+0x18>)
    3694:	211f      	movs	r1, #31
    3696:	4620      	mov	r0, r4
    3698:	f7fd fcfe 	bl	1098 <set_all_bits_zero>
    369c:	4620      	mov	r0, r4
    369e:	2101      	movs	r1, #1
    36a0:	e8bd 4010 	ldmia.w	sp!, {r4, lr}
    36a4:	f7fd bcfd 	b.w	10a2 <set_all_bits_one>
    36a8:	40048010 	.word	0x40048010

000036ac <usbpll_set_first_divider_3>:
    36ac:	b510      	push	{r4, lr}
    36ae:	4c05      	ldr	r4, [pc, #20]	; (36c4 <usbpll_set_first_divider_3+0x18>)
    36b0:	211f      	movs	r1, #31
    36b2:	4620      	mov	r0, r4
    36b4:	f7fd fcf0 	bl	1098 <set_all_bits_zero>
    36b8:	4620      	mov	r0, r4
    36ba:	2102      	movs	r1, #2
    36bc:	e8bd 4010 	ldmia.w	sp!, {r4, lr}
    36c0:	f7fd bcef 	b.w	10a2 <set_all_bits_one>
    36c4:	40048010 	.word	0x40048010

000036c8 <usbpll_set_first_divider_4>:
    36c8:	b510      	push	{r4, lr}
    36ca:	4c05      	ldr	r4, [pc, #20]	; (36e0 <usbpll_set_first_divider_4+0x18>)
    36cc:	211f      	movs	r1, #31
    36ce:	4620      	mov	r0, r4
    36d0:	f7fd fce2 	bl	1098 <set_all_bits_zero>
    36d4:	4620      	mov	r0, r4
    36d6:	2103      	movs	r1, #3
    36d8:	e8bd 4010 	ldmia.w	sp!, {r4, lr}
    36dc:	f7fd bce1 	b.w	10a2 <set_all_bits_one>
    36e0:	40048010 	.word	0x40048010

000036e4 <usbpll_set_first_divider_5>:
    36e4:	b510      	push	{r4, lr}
    36e6:	4c05      	ldr	r4, [pc, #20]	; (36fc <usbpll_set_first_divider_5+0x18>)
    36e8:	211f      	movs	r1, #31
    36ea:	4620      	mov	r0, r4
    36ec:	f7fd fcd4 	bl	1098 <set_all_bits_zero>
    36f0:	4620      	mov	r0, r4
    36f2:	2104      	movs	r1, #4
    36f4:	e8bd 4010 	ldmia.w	sp!, {r4, lr}
    36f8:	f7fd bcd3 	b.w	10a2 <set_all_bits_one>
    36fc:	40048010 	.word	0x40048010

00003700 <usbpll_set_first_divider_6>:
    3700:	b510      	push	{r4, lr}
    3702:	4c05      	ldr	r4, [pc, #20]	; (3718 <usbpll_set_first_divider_6+0x18>)
    3704:	211f      	movs	r1, #31
    3706:	4620      	mov	r0, r4
    3708:	f7fd fcc6 	bl	1098 <set_all_bits_zero>
    370c:	4620      	mov	r0, r4
    370e:	2105      	movs	r1, #5
    3710:	e8bd 4010 	ldmia.w	sp!, {r4, lr}
    3714:	f7fd bcc5 	b.w	10a2 <set_all_bits_one>
    3718:	40048010 	.word	0x40048010

0000371c <usbpll_set_first_divider_7>:
    371c:	b510      	push	{r4, lr}
    371e:	4c05      	ldr	r4, [pc, #20]	; (3734 <usbpll_set_first_divider_7+0x18>)
    3720:	211f      	movs	r1, #31
    3722:	4620      	mov	r0, r4
    3724:	f7fd fcb8 	bl	1098 <set_all_bits_zero>
    3728:	4620      	mov	r0, r4
    372a:	2106      	movs	r1, #6
    372c:	e8bd 4010 	ldmia.w	sp!, {r4, lr}
    3730:	f7fd bcb7 	b.w	10a2 <set_all_bits_one>
    3734:	40048010 	.word	0x40048010

00003738 <usbpll_set_first_divider_8>:
    3738:	b510      	push	{r4, lr}
    373a:	4c05      	ldr	r4, [pc, #20]	; (3750 <usbpll_set_first_divider_8+0x18>)
    373c:	211f      	movs	r1, #31
    373e:	4620      	mov	r0, r4
    3740:	f7fd fcaa 	bl	1098 <set_all_bits_zero>
    3744:	4620      	mov	r0, r4
    3746:	2107      	movs	r1, #7
    3748:	e8bd 4010 	ldmia.w	sp!, {r4, lr}
    374c:	f7fd bca9 	b.w	10a2 <set_all_bits_one>
    3750:	40048010 	.word	0x40048010

00003754 <usbpll_set_first_divider_9>:
    3754:	b510      	push	{r4, lr}
    3756:	4c05      	ldr	r4, [pc, #20]	; (376c <usbpll_set_first_divider_9+0x18>)
    3758:	211f      	movs	r1, #31
    375a:	4620      	mov	r0, r4
    375c:	f7fd fc9c 	bl	1098 <set_all_bits_zero>
    3760:	4620      	mov	r0, r4
    3762:	2108      	movs	r1, #8
    3764:	e8bd 4010 	ldmia.w	sp!, {r4, lr}
    3768:	f7fd bc9b 	b.w	10a2 <set_all_bits_one>
    376c:	40048010 	.word	0x40048010

00003770 <usbpll_set_first_divider_10>:
    3770:	b510      	push	{r4, lr}
    3772:	4c05      	ldr	r4, [pc, #20]	; (3788 <usbpll_set_first_divider_10+0x18>)
    3774:	211f      	movs	r1, #31
    3776:	4620      	mov	r0, r4
    3778:	f7fd fc8e 	bl	1098 <set_all_bits_zero>
    377c:	4620      	mov	r0, r4
    377e:	2109      	movs	r1, #9
    3780:	e8bd 4010 	ldmia.w	sp!, {r4, lr}
    3784:	f7fd bc8d 	b.w	10a2 <set_all_bits_one>
    3788:	40048010 	.word	0x40048010

0000378c <usbpll_set_first_divider_11>:
    378c:	b510      	push	{r4, lr}
    378e:	4c05      	ldr	r4, [pc, #20]	; (37a4 <usbpll_set_first_divider_11+0x18>)
    3790:	211f      	movs	r1, #31
    3792:	4620      	mov	r0, r4
    3794:	f7fd fc80 	bl	1098 <set_all_bits_zero>
    3798:	4620      	mov	r0, r4
    379a:	210a      	movs	r1, #10
    379c:	e8bd 4010 	ldmia.w	sp!, {r4, lr}
    37a0:	f7fd bc7f 	b.w	10a2 <set_all_bits_one>
    37a4:	40048010 	.word	0x40048010

000037a8 <usbpll_set_first_divider_12>:
    37a8:	b510      	push	{r4, lr}
    37aa:	4c05      	ldr	r4, [pc, #20]	; (37c0 <usbpll_set_first_divider_12+0x18>)
    37ac:	211f      	movs	r1, #31
    37ae:	4620      	mov	r0, r4
    37b0:	f7fd fc72 	bl	1098 <set_all_bits_zero>
    37b4:	4620      	mov	r0, r4
    37b6:	210b      	movs	r1, #11
    37b8:	e8bd 4010 	ldmia.w	sp!, {r4, lr}
    37bc:	f7fd bc71 	b.w	10a2 <set_all_bits_one>
    37c0:	40048010 	.word	0x40048010

000037c4 <usbpll_set_first_divider_13>:
    37c4:	b510      	push	{r4, lr}
    37c6:	4c05      	ldr	r4, [pc, #20]	; (37dc <usbpll_set_first_divider_13+0x18>)
    37c8:	211f      	movs	r1, #31
    37ca:	4620      	mov	r0, r4
    37cc:	f7fd fc64 	bl	1098 <set_all_bits_zero>
    37d0:	4620      	mov	r0, r4
    37d2:	210c      	movs	r1, #12
    37d4:	e8bd 4010 	ldmia.w	sp!, {r4, lr}
    37d8:	f7fd bc63 	b.w	10a2 <set_all_bits_one>
    37dc:	40048010 	.word	0x40048010

000037e0 <usbpll_set_first_divider_14>:
    37e0:	b510      	push	{r4, lr}
    37e2:	4c05      	ldr	r4, [pc, #20]	; (37f8 <usbpll_set_first_divider_14+0x18>)
    37e4:	211f      	movs	r1, #31
    37e6:	4620      	mov	r0, r4
    37e8:	f7fd fc56 	bl	1098 <set_all_bits_zero>
    37ec:	4620      	mov	r0, r4
    37ee:	210d      	movs	r1, #13
    37f0:	e8bd 4010 	ldmia.w	sp!, {r4, lr}
    37f4:	f7fd bc55 	b.w	10a2 <set_all_bits_one>
    37f8:	40048010 	.word	0x40048010

000037fc <usbpll_set_first_divider_15>:
    37fc:	b510      	push	{r4, lr}
    37fe:	4c05      	ldr	r4, [pc, #20]	; (3814 <usbpll_set_first_divider_15+0x18>)
    3800:	211f      	movs	r1, #31
    3802:	4620      	mov	r0, r4
    3804:	f7fd fc48 	bl	1098 <set_all_bits_zero>
    3808:	4620      	mov	r0, r4
    380a:	210e      	movs	r1, #14
    380c:	e8bd 4010 	ldmia.w	sp!, {r4, lr}
    3810:	f7fd bc47 	b.w	10a2 <set_all_bits_one>
    3814:	40048010 	.word	0x40048010

00003818 <usbpll_set_first_divider_16>:
    3818:	b510      	push	{r4, lr}
    381a:	4c05      	ldr	r4, [pc, #20]	; (3830 <usbpll_set_first_divider_16+0x18>)
    381c:	211f      	movs	r1, #31
    381e:	4620      	mov	r0, r4
    3820:	f7fd fc3a 	bl	1098 <set_all_bits_zero>
    3824:	4620      	mov	r0, r4
    3826:	210f      	movs	r1, #15
    3828:	e8bd 4010 	ldmia.w	sp!, {r4, lr}
    382c:	f7fd bc39 	b.w	10a2 <set_all_bits_one>
    3830:	40048010 	.word	0x40048010

00003834 <usbpll_set_first_divider_17>:
    3834:	b510      	push	{r4, lr}
    3836:	4c05      	ldr	r4, [pc, #20]	; (384c <usbpll_set_first_divider_17+0x18>)
    3838:	211f      	movs	r1, #31
    383a:	4620      	mov	r0, r4
    383c:	f7fd fc2c 	bl	1098 <set_all_bits_zero>
    3840:	4620      	mov	r0, r4
    3842:	2110      	movs	r1, #16
    3844:	e8bd 4010 	ldmia.w	sp!, {r4, lr}
    3848:	f7fd bc2b 	b.w	10a2 <set_all_bits_one>
    384c:	40048010 	.word	0x40048010

00003850 <usbpll_set_first_divider_18>:
    3850:	b510      	push	{r4, lr}
    3852:	4c05      	ldr	r4, [pc, #20]	; (3868 <usbpll_set_first_divider_18+0x18>)
    3854:	211f      	movs	r1, #31
    3856:	4620      	mov	r0, r4
    3858:	f7fd fc1e 	bl	1098 <set_all_bits_zero>
    385c:	4620      	mov	r0, r4
    385e:	2111      	movs	r1, #17
    3860:	e8bd 4010 	ldmia.w	sp!, {r4, lr}
    3864:	f7fd bc1d 	b.w	10a2 <set_all_bits_one>
    3868:	40048010 	.word	0x40048010

0000386c <usbpll_set_first_divider_19>:
    386c:	b510      	push	{r4, lr}
    386e:	4c05      	ldr	r4, [pc, #20]	; (3884 <usbpll_set_first_divider_19+0x18>)
    3870:	211f      	movs	r1, #31
    3872:	4620      	mov	r0, r4
    3874:	f7fd fc10 	bl	1098 <set_all_bits_zero>
    3878:	4620      	mov	r0, r4
    387a:	2112      	movs	r1, #18
    387c:	e8bd 4010 	ldmia.w	sp!, {r4, lr}
    3880:	f7fd bc0f 	b.w	10a2 <set_all_bits_one>
    3884:	40048010 	.word	0x40048010

00003888 <usbpll_set_first_divider_20>:
    3888:	b510      	push	{r4, lr}
    388a:	4c05      	ldr	r4, [pc, #20]	; (38a0 <usbpll_set_first_divider_20+0x18>)
    388c:	211f      	movs	r1, #31
    388e:	4620      	mov	r0, r4
    3890:	f7fd fc02 	bl	1098 <set_all_bits_zero>
    3894:	4620      	mov	r0, r4
    3896:	2113      	movs	r1, #19
    3898:	e8bd 4010 	ldmia.w	sp!, {r4, lr}
    389c:	f7fd bc01 	b.w	10a2 <set_all_bits_one>
    38a0:	40048010 	.word	0x40048010

000038a4 <usbpll_set_first_divider_21>:
    38a4:	b510      	push	{r4, lr}
    38a6:	4c05      	ldr	r4, [pc, #20]	; (38bc <usbpll_set_first_divider_21+0x18>)
    38a8:	211f      	movs	r1, #31
    38aa:	4620      	mov	r0, r4
    38ac:	f7fd fbf4 	bl	1098 <set_all_bits_zero>
    38b0:	4620      	mov	r0, r4
    38b2:	2114      	movs	r1, #20
    38b4:	e8bd 4010 	ldmia.w	sp!, {r4, lr}
    38b8:	f7fd bbf3 	b.w	10a2 <set_all_bits_one>
    38bc:	40048010 	.word	0x40048010

000038c0 <usbpll_set_first_divider_22>:
    38c0:	b510      	push	{r4, lr}
    38c2:	4c05      	ldr	r4, [pc, #20]	; (38d8 <usbpll_set_first_divider_22+0x18>)
    38c4:	211f      	movs	r1, #31
    38c6:	4620      	mov	r0, r4
    38c8:	f7fd fbe6 	bl	1098 <set_all_bits_zero>
    38cc:	4620      	mov	r0, r4
    38ce:	2115      	movs	r1, #21
    38d0:	e8bd 4010 	ldmia.w	sp!, {r4, lr}
    38d4:	f7fd bbe5 	b.w	10a2 <set_all_bits_one>
    38d8:	40048010 	.word	0x40048010

000038dc <usbpll_set_first_divider_23>:
    38dc:	b510      	push	{r4, lr}
    38de:	4c05      	ldr	r4, [pc, #20]	; (38f4 <usbpll_set_first_divider_23+0x18>)
    38e0:	211f      	movs	r1, #31
    38e2:	4620      	mov	r0, r4
    38e4:	f7fd fbd8 	bl	1098 <set_all_bits_zero>
    38e8:	4620      	mov	r0, r4
    38ea:	2116      	movs	r1, #22
    38ec:	e8bd 4010 	ldmia.w	sp!, {r4, lr}
    38f0:	f7fd bbd7 	b.w	10a2 <set_all_bits_one>
    38f4:	40048010 	.word	0x40048010

000038f8 <usbpll_set_first_divider_24>:
    38f8:	b510      	push	{r4, lr}
    38fa:	4c05      	ldr	r4, [pc, #20]	; (3910 <usbpll_set_first_divider_24+0x18>)
    38fc:	211f      	movs	r1, #31
    38fe:	4620      	mov	r0, r4
    3900:	f7fd fbca 	bl	1098 <set_all_bits_zero>
    3904:	4620      	mov	r0, r4
    3906:	2117      	movs	r1, #23
    3908:	e8bd 4010 	ldmia.w	sp!, {r4, lr}
    390c:	f7fd bbc9 	b.w	10a2 <set_all_bits_one>
    3910:	40048010 	.word	0x40048010

00003914 <usbpll_set_first_divider_25>:
    3914:	b510      	push	{r4, lr}
    3916:	4c05      	ldr	r4, [pc, #20]	; (392c <usbpll_set_first_divider_25+0x18>)
    3918:	211f      	movs	r1, #31
    391a:	4620      	mov	r0, r4
    391c:	f7fd fbbc 	bl	1098 <set_all_bits_zero>
    3920:	4620      	mov	r0, r4
    3922:	2118      	movs	r1, #24
    3924:	e8bd 4010 	ldmia.w	sp!, {r4, lr}
    3928:	f7fd bbbb 	b.w	10a2 <set_all_bits_one>
    392c:	40048010 	.word	0x40048010

00003930 <usbpll_set_first_divider_26>:
    3930:	b510      	push	{r4, lr}
    3932:	4c05      	ldr	r4, [pc, #20]	; (3948 <usbpll_set_first_divider_26+0x18>)
    3934:	211f      	movs	r1, #31
    3936:	4620      	mov	r0, r4
    3938:	f7fd fbae 	bl	1098 <set_all_bits_zero>
    393c:	4620      	mov	r0, r4
    393e:	2119      	movs	r1, #25
    3940:	e8bd 4010 	ldmia.w	sp!, {r4, lr}
    3944:	f7fd bbad 	b.w	10a2 <set_all_bits_one>
    3948:	40048010 	.word	0x40048010

0000394c <usbpll_set_first_divider_27>:
    394c:	b510      	push	{r4, lr}
    394e:	4c05      	ldr	r4, [pc, #20]	; (3964 <usbpll_set_first_divider_27+0x18>)
    3950:	211f      	movs	r1, #31
    3952:	4620      	mov	r0, r4
    3954:	f7fd fba0 	bl	1098 <set_all_bits_zero>
    3958:	4620      	mov	r0, r4
    395a:	211a      	movs	r1, #26
    395c:	e8bd 4010 	ldmia.w	sp!, {r4, lr}
    3960:	f7fd bb9f 	b.w	10a2 <set_all_bits_one>
    3964:	40048010 	.word	0x40048010

00003968 <usbpll_set_first_divider_28>:
    3968:	b510      	push	{r4, lr}
    396a:	4c05      	ldr	r4, [pc, #20]	; (3980 <usbpll_set_first_divider_28+0x18>)
    396c:	211f      	movs	r1, #31
    396e:	4620      	mov	r0, r4
    3970:	f7fd fb92 	bl	1098 <set_all_bits_zero>
    3974:	4620      	mov	r0, r4
    3976:	211b      	movs	r1, #27
    3978:	e8bd 4010 	ldmia.w	sp!, {r4, lr}
    397c:	f7fd bb91 	b.w	10a2 <set_all_bits_one>
    3980:	40048010 	.word	0x40048010

00003984 <usbpll_set_first_divider_29>:
    3984:	b510      	push	{r4, lr}
    3986:	4c05      	ldr	r4, [pc, #20]	; (399c <usbpll_set_first_divider_29+0x18>)
    3988:	211f      	movs	r1, #31
    398a:	4620      	mov	r0, r4
    398c:	f7fd fb84 	bl	1098 <set_all_bits_zero>
    3990:	4620      	mov	r0, r4
    3992:	211c      	movs	r1, #28
    3994:	e8bd 4010 	ldmia.w	sp!, {r4, lr}
    3998:	f7fd bb83 	b.w	10a2 <set_all_bits_one>
    399c:	40048010 	.word	0x40048010

000039a0 <usbpll_set_first_divider_30>:
    39a0:	b510      	push	{r4, lr}
    39a2:	4c05      	ldr	r4, [pc, #20]	; (39b8 <usbpll_set_first_divider_30+0x18>)
    39a4:	211f      	movs	r1, #31
    39a6:	4620      	mov	r0, r4
    39a8:	f7fd fb76 	bl	1098 <set_all_bits_zero>
    39ac:	4620      	mov	r0, r4
    39ae:	211d      	movs	r1, #29
    39b0:	e8bd 4010 	ldmia.w	sp!, {r4, lr}
    39b4:	f7fd bb75 	b.w	10a2 <set_all_bits_one>
    39b8:	40048010 	.word	0x40048010

000039bc <usbpll_set_first_divider_31>:
    39bc:	b510      	push	{r4, lr}
    39be:	4c05      	ldr	r4, [pc, #20]	; (39d4 <usbpll_set_first_divider_31+0x18>)
    39c0:	211f      	movs	r1, #31
    39c2:	4620      	mov	r0, r4
    39c4:	f7fd fb68 	bl	1098 <set_all_bits_zero>
    39c8:	4620      	mov	r0, r4
    39ca:	211e      	movs	r1, #30
    39cc:	e8bd 4010 	ldmia.w	sp!, {r4, lr}
    39d0:	f7fd bb67 	b.w	10a2 <set_all_bits_one>
    39d4:	40048010 	.word	0x40048010

000039d8 <usbpll_set_first_divider_32>:
    39d8:	4801      	ldr	r0, [pc, #4]	; (39e0 <usbpll_set_first_divider_32+0x8>)
    39da:	211f      	movs	r1, #31
    39dc:	f7fd bb61 	b.w	10a2 <set_all_bits_one>
    39e0:	40048010 	.word	0x40048010

000039e4 <usbpll_set_second_diviver_2>:
    39e4:	4801      	ldr	r0, [pc, #4]	; (39ec <usbpll_set_second_diviver_2+0x8>)
    39e6:	2160      	movs	r1, #96	; 0x60
    39e8:	f7fd bb56 	b.w	1098 <set_all_bits_zero>
    39ec:	40048010 	.word	0x40048010

000039f0 <usbpll_set_second_diviver_4>:
    39f0:	b510      	push	{r4, lr}
    39f2:	4c05      	ldr	r4, [pc, #20]	; (3a08 <usbpll_set_second_diviver_4+0x18>)
    39f4:	2160      	movs	r1, #96	; 0x60
    39f6:	4620      	mov	r0, r4
    39f8:	f7fd fb4e 	bl	1098 <set_all_bits_zero>
    39fc:	4620      	mov	r0, r4
    39fe:	2120      	movs	r1, #32
    3a00:	e8bd 4010 	ldmia.w	sp!, {r4, lr}
    3a04:	f7fd bb4d 	b.w	10a2 <set_all_bits_one>
    3a08:	40048010 	.word	0x40048010

00003a0c <usbpll_set_second_diviver_8>:
    3a0c:	b510      	push	{r4, lr}
    3a0e:	4c05      	ldr	r4, [pc, #20]	; (3a24 <usbpll_set_second_diviver_8+0x18>)
    3a10:	2160      	movs	r1, #96	; 0x60
    3a12:	4620      	mov	r0, r4
    3a14:	f7fd fb40 	bl	1098 <set_all_bits_zero>
    3a18:	4620      	mov	r0, r4
    3a1a:	2140      	movs	r1, #64	; 0x40
    3a1c:	e8bd 4010 	ldmia.w	sp!, {r4, lr}
    3a20:	f7fd bb3f 	b.w	10a2 <set_all_bits_one>
    3a24:	40048010 	.word	0x40048010

00003a28 <usbpll_set_second_diviver_16>:
    3a28:	4801      	ldr	r0, [pc, #4]	; (3a30 <usbpll_set_second_diviver_16+0x8>)
    3a2a:	2160      	movs	r1, #96	; 0x60
    3a2c:	f7fd bb39 	b.w	10a2 <set_all_bits_one>
    3a30:	40048010 	.word	0x40048010

00003a34 <usbpll_set_dividers_12MHz_to_48Mhz>:
    3a34:	b508      	push	{r3, lr}
    3a36:	f7ff fe47 	bl	36c8 <usbpll_set_first_divider_4>
    3a3a:	e8bd 4008 	ldmia.w	sp!, {r3, lr}
    3a3e:	f7ff bfd7 	b.w	39f0 <usbpll_set_second_diviver_4>

00003a42 <usbpll_is_locked>:
    3a42:	4802      	ldr	r0, [pc, #8]	; (3a4c <usbpll_is_locked+0xa>)
    3a44:	2100      	movs	r1, #0
    3a46:	f7fd bb1e 	b.w	1086 <bit_is_set>
    3a4a:	bf00      	nop
    3a4c:	40048014 	.word	0x40048014

00003a50 <sysosc_disable>:
    3a50:	b508      	push	{r3, lr}
    3a52:	4805      	ldr	r0, [pc, #20]	; (3a68 <sysosc_disable+0x18>)
    3a54:	2100      	movs	r1, #0
    3a56:	f7fd fb01 	bl	105c <set_bit_one>
    3a5a:	e8bd 4008 	ldmia.w	sp!, {r3, lr}
    3a5e:	f44f 70fa 	mov.w	r0, #500	; 0x1f4
    3a62:	f7fd bbb3 	b.w	11cc <delay_ticks>
    3a66:	bf00      	nop
    3a68:	40048020 	.word	0x40048020

00003a6c <sysosc_enable_1MHz_20MHz>:
    3a6c:	b510      	push	{r4, lr}
    3a6e:	4c07      	ldr	r4, [pc, #28]	; (3a8c <sysosc_enable_1MHz_20MHz+0x20>)
    3a70:	2100      	movs	r1, #0
    3a72:	4620      	mov	r0, r4
    3a74:	f7fd faea 	bl	104c <set_bit_zero>
    3a78:	4620      	mov	r0, r4
    3a7a:	2101      	movs	r1, #1
    3a7c:	f7fd fae6 	bl	104c <set_bit_zero>
    3a80:	e8bd 4010 	ldmia.w	sp!, {r4, lr}
    3a84:	f44f 70fa 	mov.w	r0, #500	; 0x1f4
    3a88:	f7fd bba0 	b.w	11cc <delay_ticks>
    3a8c:	40048020 	.word	0x40048020

00003a90 <sysosc_enable_15MHz_25MHz>:
    3a90:	b510      	push	{r4, lr}
    3a92:	4c07      	ldr	r4, [pc, #28]	; (3ab0 <sysosc_enable_15MHz_25MHz+0x20>)
    3a94:	2100      	movs	r1, #0
    3a96:	4620      	mov	r0, r4
    3a98:	f7fd fad8 	bl	104c <set_bit_zero>
    3a9c:	4620      	mov	r0, r4
    3a9e:	2101      	movs	r1, #1
    3aa0:	f7fd fadc 	bl	105c <set_bit_one>
    3aa4:	e8bd 4010 	ldmia.w	sp!, {r4, lr}
    3aa8:	f44f 70fa 	mov.w	r0, #500	; 0x1f4
    3aac:	f7fd bb8e 	b.w	11cc <delay_ticks>
    3ab0:	40048020 	.word	0x40048020

00003ab4 <syspll_set_clock_source_irc>:
    3ab4:	b508      	push	{r3, lr}
    3ab6:	480c      	ldr	r0, [pc, #48]	; (3ae8 <syspll_set_clock_source_irc+0x34>)
    3ab8:	2103      	movs	r1, #3
    3aba:	f7fd faed 	bl	1098 <set_all_bits_zero>
    3abe:	480b      	ldr	r0, [pc, #44]	; (3aec <syspll_set_clock_source_irc+0x38>)
    3ac0:	2100      	movs	r1, #0
    3ac2:	f7fd facb 	bl	105c <set_bit_one>
    3ac6:	4809      	ldr	r0, [pc, #36]	; (3aec <syspll_set_clock_source_irc+0x38>)
    3ac8:	2100      	movs	r1, #0
    3aca:	f7fd fabf 	bl	104c <set_bit_zero>
    3ace:	4807      	ldr	r0, [pc, #28]	; (3aec <syspll_set_clock_source_irc+0x38>)
    3ad0:	2100      	movs	r1, #0
    3ad2:	f7fd fac3 	bl	105c <set_bit_one>
    3ad6:	4805      	ldr	r0, [pc, #20]	; (3aec <syspll_set_clock_source_irc+0x38>)
    3ad8:	2100      	movs	r1, #0
    3ada:	f7fd fad4 	bl	1086 <bit_is_set>
    3ade:	b908      	cbnz	r0, 3ae4 <syspll_set_clock_source_irc+0x30>
    3ae0:	bf00      	nop
    3ae2:	e7f8      	b.n	3ad6 <syspll_set_clock_source_irc+0x22>
    3ae4:	bd08      	pop	{r3, pc}
    3ae6:	bf00      	nop
    3ae8:	40048040 	.word	0x40048040
    3aec:	40048044 	.word	0x40048044

00003af0 <syspll_set_clock_source_sysosc>:
    3af0:	b508      	push	{r3, lr}
    3af2:	480e      	ldr	r0, [pc, #56]	; (3b2c <syspll_set_clock_source_sysosc+0x3c>)
    3af4:	2103      	movs	r1, #3
    3af6:	f7fd facf 	bl	1098 <set_all_bits_zero>
    3afa:	480c      	ldr	r0, [pc, #48]	; (3b2c <syspll_set_clock_source_sysosc+0x3c>)
    3afc:	2101      	movs	r1, #1
    3afe:	f7fd fad0 	bl	10a2 <set_all_bits_one>
    3b02:	480b      	ldr	r0, [pc, #44]	; (3b30 <syspll_set_clock_source_sysosc+0x40>)
    3b04:	2100      	movs	r1, #0
    3b06:	f7fd faa9 	bl	105c <set_bit_one>
    3b0a:	4809      	ldr	r0, [pc, #36]	; (3b30 <syspll_set_clock_source_sysosc+0x40>)
    3b0c:	2100      	movs	r1, #0
    3b0e:	f7fd fa9d 	bl	104c <set_bit_zero>
    3b12:	4807      	ldr	r0, [pc, #28]	; (3b30 <syspll_set_clock_source_sysosc+0x40>)
    3b14:	2100      	movs	r1, #0
    3b16:	f7fd faa1 	bl	105c <set_bit_one>
    3b1a:	4805      	ldr	r0, [pc, #20]	; (3b30 <syspll_set_clock_source_sysosc+0x40>)
    3b1c:	2100      	movs	r1, #0
    3b1e:	f7fd fab2 	bl	1086 <bit_is_set>
    3b22:	b908      	cbnz	r0, 3b28 <syspll_set_clock_source_sysosc+0x38>
    3b24:	bf00      	nop
    3b26:	e7f8      	b.n	3b1a <syspll_set_clock_source_sysosc+0x2a>
    3b28:	bd08      	pop	{r3, pc}
    3b2a:	bf00      	nop
    3b2c:	40048040 	.word	0x40048040
    3b30:	40048044 	.word	0x40048044

00003b34 <usbpll_set_clock_source_irc>:
    3b34:	b508      	push	{r3, lr}
    3b36:	480c      	ldr	r0, [pc, #48]	; (3b68 <usbpll_set_clock_source_irc+0x34>)
    3b38:	2103      	movs	r1, #3
    3b3a:	f7fd faad 	bl	1098 <set_all_bits_zero>
    3b3e:	480b      	ldr	r0, [pc, #44]	; (3b6c <usbpll_set_clock_source_irc+0x38>)
    3b40:	2100      	movs	r1, #0
    3b42:	f7fd fa8b 	bl	105c <set_bit_one>
    3b46:	4809      	ldr	r0, [pc, #36]	; (3b6c <usbpll_set_clock_source_irc+0x38>)
    3b48:	2100      	movs	r1, #0
    3b4a:	f7fd fa7f 	bl	104c <set_bit_zero>
    3b4e:	4807      	ldr	r0, [pc, #28]	; (3b6c <usbpll_set_clock_source_irc+0x38>)
    3b50:	2100      	movs	r1, #0
    3b52:	f7fd fa83 	bl	105c <set_bit_one>
    3b56:	4805      	ldr	r0, [pc, #20]	; (3b6c <usbpll_set_clock_source_irc+0x38>)
    3b58:	2100      	movs	r1, #0
    3b5a:	f7fd fa94 	bl	1086 <bit_is_set>
    3b5e:	b908      	cbnz	r0, 3b64 <usbpll_set_clock_source_irc+0x30>
    3b60:	bf00      	nop
    3b62:	e7f8      	b.n	3b56 <usbpll_set_clock_source_irc+0x22>
    3b64:	bd08      	pop	{r3, pc}
    3b66:	bf00      	nop
    3b68:	40048048 	.word	0x40048048
    3b6c:	4004804c 	.word	0x4004804c

00003b70 <usbpll_set_clock_source_sysosc>:
    3b70:	b508      	push	{r3, lr}
    3b72:	480e      	ldr	r0, [pc, #56]	; (3bac <usbpll_set_clock_source_sysosc+0x3c>)
    3b74:	2103      	movs	r1, #3
    3b76:	f7fd fa8f 	bl	1098 <set_all_bits_zero>
    3b7a:	480c      	ldr	r0, [pc, #48]	; (3bac <usbpll_set_clock_source_sysosc+0x3c>)
    3b7c:	2101      	movs	r1, #1
    3b7e:	f7fd fa90 	bl	10a2 <set_all_bits_one>
    3b82:	480b      	ldr	r0, [pc, #44]	; (3bb0 <usbpll_set_clock_source_sysosc+0x40>)
    3b84:	2100      	movs	r1, #0
    3b86:	f7fd fa69 	bl	105c <set_bit_one>
    3b8a:	4809      	ldr	r0, [pc, #36]	; (3bb0 <usbpll_set_clock_source_sysosc+0x40>)
    3b8c:	2100      	movs	r1, #0
    3b8e:	f7fd fa5d 	bl	104c <set_bit_zero>
    3b92:	4807      	ldr	r0, [pc, #28]	; (3bb0 <usbpll_set_clock_source_sysosc+0x40>)
    3b94:	2100      	movs	r1, #0
    3b96:	f7fd fa61 	bl	105c <set_bit_one>
    3b9a:	4805      	ldr	r0, [pc, #20]	; (3bb0 <usbpll_set_clock_source_sysosc+0x40>)
    3b9c:	2100      	movs	r1, #0
    3b9e:	f7fd fa72 	bl	1086 <bit_is_set>
    3ba2:	b908      	cbnz	r0, 3ba8 <usbpll_set_clock_source_sysosc+0x38>
    3ba4:	bf00      	nop
    3ba6:	e7f8      	b.n	3b9a <usbpll_set_clock_source_sysosc+0x2a>
    3ba8:	bd08      	pop	{r3, pc}
    3baa:	bf00      	nop
    3bac:	40048048 	.word	0x40048048
    3bb0:	4004804c 	.word	0x4004804c

00003bb4 <mainclk_set_clock_source_irc>:
    3bb4:	b508      	push	{r3, lr}
    3bb6:	480c      	ldr	r0, [pc, #48]	; (3be8 <mainclk_set_clock_source_irc+0x34>)
    3bb8:	2103      	movs	r1, #3
    3bba:	f7fd fa6d 	bl	1098 <set_all_bits_zero>
    3bbe:	480b      	ldr	r0, [pc, #44]	; (3bec <mainclk_set_clock_source_irc+0x38>)
    3bc0:	2100      	movs	r1, #0
    3bc2:	f7fd fa4b 	bl	105c <set_bit_one>
    3bc6:	4809      	ldr	r0, [pc, #36]	; (3bec <mainclk_set_clock_source_irc+0x38>)
    3bc8:	2100      	movs	r1, #0
    3bca:	f7fd fa3f 	bl	104c <set_bit_zero>
    3bce:	4807      	ldr	r0, [pc, #28]	; (3bec <mainclk_set_clock_source_irc+0x38>)
    3bd0:	2100      	movs	r1, #0
    3bd2:	f7fd fa43 	bl	105c <set_bit_one>
    3bd6:	4805      	ldr	r0, [pc, #20]	; (3bec <mainclk_set_clock_source_irc+0x38>)
    3bd8:	2100      	movs	r1, #0
    3bda:	f7fd fa54 	bl	1086 <bit_is_set>
    3bde:	b908      	cbnz	r0, 3be4 <mainclk_set_clock_source_irc+0x30>
    3be0:	bf00      	nop
    3be2:	e7f8      	b.n	3bd6 <mainclk_set_clock_source_irc+0x22>
    3be4:	bd08      	pop	{r3, pc}
    3be6:	bf00      	nop
    3be8:	40048070 	.word	0x40048070
    3bec:	40048074 	.word	0x40048074

00003bf0 <mainclk_set_clock_source_syspll_in>:
    3bf0:	b508      	push	{r3, lr}
    3bf2:	480e      	ldr	r0, [pc, #56]	; (3c2c <mainclk_set_clock_source_syspll_in+0x3c>)
    3bf4:	2103      	movs	r1, #3
    3bf6:	f7fd fa4f 	bl	1098 <set_all_bits_zero>
    3bfa:	480c      	ldr	r0, [pc, #48]	; (3c2c <mainclk_set_clock_source_syspll_in+0x3c>)
    3bfc:	2101      	movs	r1, #1
    3bfe:	f7fd fa50 	bl	10a2 <set_all_bits_one>
    3c02:	480b      	ldr	r0, [pc, #44]	; (3c30 <mainclk_set_clock_source_syspll_in+0x40>)
    3c04:	2100      	movs	r1, #0
    3c06:	f7fd fa29 	bl	105c <set_bit_one>
    3c0a:	4809      	ldr	r0, [pc, #36]	; (3c30 <mainclk_set_clock_source_syspll_in+0x40>)
    3c0c:	2100      	movs	r1, #0
    3c0e:	f7fd fa1d 	bl	104c <set_bit_zero>
    3c12:	4807      	ldr	r0, [pc, #28]	; (3c30 <mainclk_set_clock_source_syspll_in+0x40>)
    3c14:	2100      	movs	r1, #0
    3c16:	f7fd fa21 	bl	105c <set_bit_one>
    3c1a:	4805      	ldr	r0, [pc, #20]	; (3c30 <mainclk_set_clock_source_syspll_in+0x40>)
    3c1c:	2100      	movs	r1, #0
    3c1e:	f7fd fa32 	bl	1086 <bit_is_set>
    3c22:	b908      	cbnz	r0, 3c28 <mainclk_set_clock_source_syspll_in+0x38>
    3c24:	bf00      	nop
    3c26:	e7f8      	b.n	3c1a <mainclk_set_clock_source_syspll_in+0x2a>
    3c28:	bd08      	pop	{r3, pc}
    3c2a:	bf00      	nop
    3c2c:	40048070 	.word	0x40048070
    3c30:	40048074 	.word	0x40048074

00003c34 <mainclk_set_clock_source_wdtosc>:
    3c34:	b508      	push	{r3, lr}
    3c36:	480e      	ldr	r0, [pc, #56]	; (3c70 <mainclk_set_clock_source_wdtosc+0x3c>)
    3c38:	2103      	movs	r1, #3
    3c3a:	f7fd fa2d 	bl	1098 <set_all_bits_zero>
    3c3e:	480c      	ldr	r0, [pc, #48]	; (3c70 <mainclk_set_clock_source_wdtosc+0x3c>)
    3c40:	2102      	movs	r1, #2
    3c42:	f7fd fa2e 	bl	10a2 <set_all_bits_one>
    3c46:	480b      	ldr	r0, [pc, #44]	; (3c74 <mainclk_set_clock_source_wdtosc+0x40>)
    3c48:	2100      	movs	r1, #0
    3c4a:	f7fd fa07 	bl	105c <set_bit_one>
    3c4e:	4809      	ldr	r0, [pc, #36]	; (3c74 <mainclk_set_clock_source_wdtosc+0x40>)
    3c50:	2100      	movs	r1, #0
    3c52:	f7fd f9fb 	bl	104c <set_bit_zero>
    3c56:	4807      	ldr	r0, [pc, #28]	; (3c74 <mainclk_set_clock_source_wdtosc+0x40>)
    3c58:	2100      	movs	r1, #0
    3c5a:	f7fd f9ff 	bl	105c <set_bit_one>
    3c5e:	4805      	ldr	r0, [pc, #20]	; (3c74 <mainclk_set_clock_source_wdtosc+0x40>)
    3c60:	2100      	movs	r1, #0
    3c62:	f7fd fa10 	bl	1086 <bit_is_set>
    3c66:	b908      	cbnz	r0, 3c6c <mainclk_set_clock_source_wdtosc+0x38>
    3c68:	bf00      	nop
    3c6a:	e7f8      	b.n	3c5e <mainclk_set_clock_source_wdtosc+0x2a>
    3c6c:	bd08      	pop	{r3, pc}
    3c6e:	bf00      	nop
    3c70:	40048070 	.word	0x40048070
    3c74:	40048074 	.word	0x40048074

00003c78 <mainclk_set_clock_source_syspll_out>:
    3c78:	b508      	push	{r3, lr}
    3c7a:	480c      	ldr	r0, [pc, #48]	; (3cac <mainclk_set_clock_source_syspll_out+0x34>)
    3c7c:	2103      	movs	r1, #3
    3c7e:	f7fd fa10 	bl	10a2 <set_all_bits_one>
    3c82:	480b      	ldr	r0, [pc, #44]	; (3cb0 <mainclk_set_clock_source_syspll_out+0x38>)
    3c84:	2100      	movs	r1, #0
    3c86:	f7fd f9e9 	bl	105c <set_bit_one>
    3c8a:	4809      	ldr	r0, [pc, #36]	; (3cb0 <mainclk_set_clock_source_syspll_out+0x38>)
    3c8c:	2100      	movs	r1, #0
    3c8e:	f7fd f9dd 	bl	104c <set_bit_zero>
    3c92:	4807      	ldr	r0, [pc, #28]	; (3cb0 <mainclk_set_clock_source_syspll_out+0x38>)
    3c94:	2100      	movs	r1, #0
    3c96:	f7fd f9e1 	bl	105c <set_bit_one>
    3c9a:	4805      	ldr	r0, [pc, #20]	; (3cb0 <mainclk_set_clock_source_syspll_out+0x38>)
    3c9c:	2100      	movs	r1, #0
    3c9e:	f7fd f9f2 	bl	1086 <bit_is_set>
    3ca2:	b908      	cbnz	r0, 3ca8 <mainclk_set_clock_source_syspll_out+0x30>
    3ca4:	bf00      	nop
    3ca6:	e7f8      	b.n	3c9a <mainclk_set_clock_source_syspll_out+0x22>
    3ca8:	bd08      	pop	{r3, pc}
    3caa:	bf00      	nop
    3cac:	40048070 	.word	0x40048070
    3cb0:	40048074 	.word	0x40048074

00003cb4 <sysahbclk_disable>:
    3cb4:	4b01      	ldr	r3, [pc, #4]	; (3cbc <sysahbclk_disable+0x8>)
    3cb6:	2200      	movs	r2, #0
    3cb8:	601a      	str	r2, [r3, #0]
    3cba:	4770      	bx	lr
    3cbc:	40048078 	.word	0x40048078

00003cc0 <sysahbclk_set_divider>:
    3cc0:	4b01      	ldr	r3, [pc, #4]	; (3cc8 <sysahbclk_set_divider+0x8>)
    3cc2:	b2c0      	uxtb	r0, r0
    3cc4:	6018      	str	r0, [r3, #0]
    3cc6:	4770      	bx	lr
    3cc8:	40048078 	.word	0x40048078

00003ccc <sysahbclk_ahb2apb_bridge_enable_clock>:
    3ccc:	4801      	ldr	r0, [pc, #4]	; (3cd4 <sysahbclk_ahb2apb_bridge_enable_clock+0x8>)
    3cce:	2100      	movs	r1, #0
    3cd0:	f7fd b9c4 	b.w	105c <set_bit_one>
    3cd4:	40048080 	.word	0x40048080

00003cd8 <sysahbclk_rom_disable_clock>:
    3cd8:	4801      	ldr	r0, [pc, #4]	; (3ce0 <sysahbclk_rom_disable_clock+0x8>)
    3cda:	2101      	movs	r1, #1
    3cdc:	f7fd b9b6 	b.w	104c <set_bit_zero>
    3ce0:	40048080 	.word	0x40048080

00003ce4 <sysahbclk_rom_enable_clock>:
    3ce4:	4801      	ldr	r0, [pc, #4]	; (3cec <sysahbclk_rom_enable_clock+0x8>)
    3ce6:	2101      	movs	r1, #1
    3ce8:	f7fd b9b8 	b.w	105c <set_bit_one>
    3cec:	40048080 	.word	0x40048080

00003cf0 <sysahbclk_ram_disable_clock>:
    3cf0:	4801      	ldr	r0, [pc, #4]	; (3cf8 <sysahbclk_ram_disable_clock+0x8>)
    3cf2:	2102      	movs	r1, #2
    3cf4:	f7fd b9aa 	b.w	104c <set_bit_zero>
    3cf8:	40048080 	.word	0x40048080

00003cfc <sysahbclk_ram_enable_clock>:
    3cfc:	4801      	ldr	r0, [pc, #4]	; (3d04 <sysahbclk_ram_enable_clock+0x8>)
    3cfe:	2102      	movs	r1, #2
    3d00:	f7fd b9ac 	b.w	105c <set_bit_one>
    3d04:	40048080 	.word	0x40048080

00003d08 <sysahbclk_flashreg_disable_clock>:
    3d08:	4801      	ldr	r0, [pc, #4]	; (3d10 <sysahbclk_flashreg_disable_clock+0x8>)
    3d0a:	2103      	movs	r1, #3
    3d0c:	f7fd b99e 	b.w	104c <set_bit_zero>
    3d10:	40048080 	.word	0x40048080

00003d14 <sysahbclk_flashreg_enable_clock>:
    3d14:	4801      	ldr	r0, [pc, #4]	; (3d1c <sysahbclk_flashreg_enable_clock+0x8>)
    3d16:	2103      	movs	r1, #3
    3d18:	f7fd b9a0 	b.w	105c <set_bit_one>
    3d1c:	40048080 	.word	0x40048080

00003d20 <sysahbclk_flasharray_disable_clock>:
    3d20:	4801      	ldr	r0, [pc, #4]	; (3d28 <sysahbclk_flasharray_disable_clock+0x8>)
    3d22:	2104      	movs	r1, #4
    3d24:	f7fd b992 	b.w	104c <set_bit_zero>
    3d28:	40048080 	.word	0x40048080

00003d2c <sysahbclk_flasharray_enable_clock>:
    3d2c:	4801      	ldr	r0, [pc, #4]	; (3d34 <sysahbclk_flasharray_enable_clock+0x8>)
    3d2e:	2104      	movs	r1, #4
    3d30:	f7fd b994 	b.w	105c <set_bit_one>
    3d34:	40048080 	.word	0x40048080

00003d38 <sysahbclk_i2c_disable_clock>:
    3d38:	4801      	ldr	r0, [pc, #4]	; (3d40 <sysahbclk_i2c_disable_clock+0x8>)
    3d3a:	2105      	movs	r1, #5
    3d3c:	f7fd b986 	b.w	104c <set_bit_zero>
    3d40:	40048080 	.word	0x40048080

00003d44 <sysahbclk_i2c_enable_clock>:
    3d44:	4801      	ldr	r0, [pc, #4]	; (3d4c <sysahbclk_i2c_enable_clock+0x8>)
    3d46:	2105      	movs	r1, #5
    3d48:	f7fd b988 	b.w	105c <set_bit_one>
    3d4c:	40048080 	.word	0x40048080

00003d50 <sysahbclk_gpio_disable_clock>:
    3d50:	4801      	ldr	r0, [pc, #4]	; (3d58 <sysahbclk_gpio_disable_clock+0x8>)
    3d52:	2106      	movs	r1, #6
    3d54:	f7fd b97a 	b.w	104c <set_bit_zero>
    3d58:	40048080 	.word	0x40048080

00003d5c <sysahbclk_gpio_enable_clock>:
    3d5c:	4801      	ldr	r0, [pc, #4]	; (3d64 <sysahbclk_gpio_enable_clock+0x8>)
    3d5e:	2106      	movs	r1, #6
    3d60:	f7fd b97c 	b.w	105c <set_bit_one>
    3d64:	40048080 	.word	0x40048080

00003d68 <sysahbclk_ct16b0_disable_clock>:
    3d68:	4801      	ldr	r0, [pc, #4]	; (3d70 <sysahbclk_ct16b0_disable_clock+0x8>)
    3d6a:	2107      	movs	r1, #7
    3d6c:	f7fd b96e 	b.w	104c <set_bit_zero>
    3d70:	40048080 	.word	0x40048080

00003d74 <sysahbclk_ct16b0_enable_clock>:
    3d74:	4801      	ldr	r0, [pc, #4]	; (3d7c <sysahbclk_ct16b0_enable_clock+0x8>)
    3d76:	2107      	movs	r1, #7
    3d78:	f7fd b970 	b.w	105c <set_bit_one>
    3d7c:	40048080 	.word	0x40048080

00003d80 <sysahbclk_ct16b1_disable_clock>:
    3d80:	4801      	ldr	r0, [pc, #4]	; (3d88 <sysahbclk_ct16b1_disable_clock+0x8>)
    3d82:	2108      	movs	r1, #8
    3d84:	f7fd b962 	b.w	104c <set_bit_zero>
    3d88:	40048080 	.word	0x40048080

00003d8c <sysahbclk_ct16b1_enable_clock>:
    3d8c:	4801      	ldr	r0, [pc, #4]	; (3d94 <sysahbclk_ct16b1_enable_clock+0x8>)
    3d8e:	2108      	movs	r1, #8
    3d90:	f7fd b964 	b.w	105c <set_bit_one>
    3d94:	40048080 	.word	0x40048080

00003d98 <sysahbclk_ct32b0_disable_clock>:
    3d98:	4801      	ldr	r0, [pc, #4]	; (3da0 <sysahbclk_ct32b0_disable_clock+0x8>)
    3d9a:	2109      	movs	r1, #9
    3d9c:	f7fd b956 	b.w	104c <set_bit_zero>
    3da0:	40048080 	.word	0x40048080

00003da4 <sysahbclk_ct32b0_enable_clock>:
    3da4:	4801      	ldr	r0, [pc, #4]	; (3dac <sysahbclk_ct32b0_enable_clock+0x8>)
    3da6:	2109      	movs	r1, #9
    3da8:	f7fd b958 	b.w	105c <set_bit_one>
    3dac:	40048080 	.word	0x40048080

00003db0 <sysahbclk_ct32b1_disable_clock>:
    3db0:	4801      	ldr	r0, [pc, #4]	; (3db8 <sysahbclk_ct32b1_disable_clock+0x8>)
    3db2:	210a      	movs	r1, #10
    3db4:	f7fd b94a 	b.w	104c <set_bit_zero>
    3db8:	40048080 	.word	0x40048080

00003dbc <sysahbclk_ct32b1_enable_clock>:
    3dbc:	4801      	ldr	r0, [pc, #4]	; (3dc4 <sysahbclk_ct32b1_enable_clock+0x8>)
    3dbe:	210a      	movs	r1, #10
    3dc0:	f7fd b94c 	b.w	105c <set_bit_one>
    3dc4:	40048080 	.word	0x40048080

00003dc8 <sysahbclk_ssp_disable_clock>:
    3dc8:	4801      	ldr	r0, [pc, #4]	; (3dd0 <sysahbclk_ssp_disable_clock+0x8>)
    3dca:	210b      	movs	r1, #11
    3dcc:	f7fd b93e 	b.w	104c <set_bit_zero>
    3dd0:	40048080 	.word	0x40048080

00003dd4 <sysahbclk_ssp_enable_clock>:
    3dd4:	4801      	ldr	r0, [pc, #4]	; (3ddc <sysahbclk_ssp_enable_clock+0x8>)
    3dd6:	210b      	movs	r1, #11
    3dd8:	f7fd b940 	b.w	105c <set_bit_one>
    3ddc:	40048080 	.word	0x40048080

00003de0 <sysahbclk_uart_disable_clock>:
    3de0:	4801      	ldr	r0, [pc, #4]	; (3de8 <sysahbclk_uart_disable_clock+0x8>)
    3de2:	210c      	movs	r1, #12
    3de4:	f7fd b932 	b.w	104c <set_bit_zero>
    3de8:	40048080 	.word	0x40048080

00003dec <sysahbclk_uart_enable_clock>:
    3dec:	4801      	ldr	r0, [pc, #4]	; (3df4 <sysahbclk_uart_enable_clock+0x8>)
    3dee:	210c      	movs	r1, #12
    3df0:	f7fd b934 	b.w	105c <set_bit_one>
    3df4:	40048080 	.word	0x40048080

00003df8 <sysahbclk_adc_disable_clock>:
    3df8:	4801      	ldr	r0, [pc, #4]	; (3e00 <sysahbclk_adc_disable_clock+0x8>)
    3dfa:	210d      	movs	r1, #13
    3dfc:	f7fd b926 	b.w	104c <set_bit_zero>
    3e00:	40048080 	.word	0x40048080

00003e04 <sysahbclk_adc_enable_clock>:
    3e04:	4801      	ldr	r0, [pc, #4]	; (3e0c <sysahbclk_adc_enable_clock+0x8>)
    3e06:	210d      	movs	r1, #13
    3e08:	f7fd b928 	b.w	105c <set_bit_one>
    3e0c:	40048080 	.word	0x40048080

00003e10 <sysahbclk_usbreg_disable_clock>:
    3e10:	4801      	ldr	r0, [pc, #4]	; (3e18 <sysahbclk_usbreg_disable_clock+0x8>)
    3e12:	210e      	movs	r1, #14
    3e14:	f7fd b91a 	b.w	104c <set_bit_zero>
    3e18:	40048080 	.word	0x40048080

00003e1c <sysahbclk_usbreg_enable_clock>:
    3e1c:	4801      	ldr	r0, [pc, #4]	; (3e24 <sysahbclk_usbreg_enable_clock+0x8>)
    3e1e:	210e      	movs	r1, #14
    3e20:	f7fd b91c 	b.w	105c <set_bit_one>
    3e24:	40048080 	.word	0x40048080

00003e28 <sysahbclk_wdt_disable_clock>:
    3e28:	4801      	ldr	r0, [pc, #4]	; (3e30 <sysahbclk_wdt_disable_clock+0x8>)
    3e2a:	210f      	movs	r1, #15
    3e2c:	f7fd b90e 	b.w	104c <set_bit_zero>
    3e30:	40048080 	.word	0x40048080

00003e34 <sysahbclk_wdt_enable_clock>:
    3e34:	4801      	ldr	r0, [pc, #4]	; (3e3c <sysahbclk_wdt_enable_clock+0x8>)
    3e36:	210f      	movs	r1, #15
    3e38:	f7fd b910 	b.w	105c <set_bit_one>
    3e3c:	40048080 	.word	0x40048080

00003e40 <sysahbclk_iocon_disable_clock>:
    3e40:	4801      	ldr	r0, [pc, #4]	; (3e48 <sysahbclk_iocon_disable_clock+0x8>)
    3e42:	2110      	movs	r1, #16
    3e44:	f7fd b902 	b.w	104c <set_bit_zero>
    3e48:	40048080 	.word	0x40048080

00003e4c <sysahbclk_iocon_enable_clock>:
    3e4c:	4801      	ldr	r0, [pc, #4]	; (3e54 <sysahbclk_iocon_enable_clock+0x8>)
    3e4e:	2110      	movs	r1, #16
    3e50:	f7fd b904 	b.w	105c <set_bit_one>
    3e54:	40048080 	.word	0x40048080

00003e58 <usbclk_set_clock_source_usbpll_out>:
    3e58:	b508      	push	{r3, lr}
    3e5a:	480c      	ldr	r0, [pc, #48]	; (3e8c <usbclk_set_clock_source_usbpll_out+0x34>)
    3e5c:	2103      	movs	r1, #3
    3e5e:	f7fd f91b 	bl	1098 <set_all_bits_zero>
    3e62:	480b      	ldr	r0, [pc, #44]	; (3e90 <usbclk_set_clock_source_usbpll_out+0x38>)
    3e64:	2100      	movs	r1, #0
    3e66:	f7fd f8f9 	bl	105c <set_bit_one>
    3e6a:	4809      	ldr	r0, [pc, #36]	; (3e90 <usbclk_set_clock_source_usbpll_out+0x38>)
    3e6c:	2100      	movs	r1, #0
    3e6e:	f7fd f8ed 	bl	104c <set_bit_zero>
    3e72:	4807      	ldr	r0, [pc, #28]	; (3e90 <usbclk_set_clock_source_usbpll_out+0x38>)
    3e74:	2100      	movs	r1, #0
    3e76:	f7fd f8f1 	bl	105c <set_bit_one>
    3e7a:	4805      	ldr	r0, [pc, #20]	; (3e90 <usbclk_set_clock_source_usbpll_out+0x38>)
    3e7c:	2100      	movs	r1, #0
    3e7e:	f7fd f902 	bl	1086 <bit_is_set>
    3e82:	b908      	cbnz	r0, 3e88 <usbclk_set_clock_source_usbpll_out+0x30>
    3e84:	bf00      	nop
    3e86:	e7f8      	b.n	3e7a <usbclk_set_clock_source_usbpll_out+0x22>
    3e88:	bd08      	pop	{r3, pc}
    3e8a:	bf00      	nop
    3e8c:	400480c0 	.word	0x400480c0
    3e90:	400480c4 	.word	0x400480c4

00003e94 <usbclk_set_clock_source_mainclk>:
    3e94:	b508      	push	{r3, lr}
    3e96:	480e      	ldr	r0, [pc, #56]	; (3ed0 <usbclk_set_clock_source_mainclk+0x3c>)
    3e98:	2103      	movs	r1, #3
    3e9a:	f7fd f8fd 	bl	1098 <set_all_bits_zero>
    3e9e:	480c      	ldr	r0, [pc, #48]	; (3ed0 <usbclk_set_clock_source_mainclk+0x3c>)
    3ea0:	2101      	movs	r1, #1
    3ea2:	f7fd f8fe 	bl	10a2 <set_all_bits_one>
    3ea6:	480b      	ldr	r0, [pc, #44]	; (3ed4 <usbclk_set_clock_source_mainclk+0x40>)
    3ea8:	2100      	movs	r1, #0
    3eaa:	f7fd f8d7 	bl	105c <set_bit_one>
    3eae:	4809      	ldr	r0, [pc, #36]	; (3ed4 <usbclk_set_clock_source_mainclk+0x40>)
    3eb0:	2100      	movs	r1, #0
    3eb2:	f7fd f8cb 	bl	104c <set_bit_zero>
    3eb6:	4807      	ldr	r0, [pc, #28]	; (3ed4 <usbclk_set_clock_source_mainclk+0x40>)
    3eb8:	2100      	movs	r1, #0
    3eba:	f7fd f8cf 	bl	105c <set_bit_one>
    3ebe:	4805      	ldr	r0, [pc, #20]	; (3ed4 <usbclk_set_clock_source_mainclk+0x40>)
    3ec0:	2100      	movs	r1, #0
    3ec2:	f7fd f8e0 	bl	1086 <bit_is_set>
    3ec6:	b908      	cbnz	r0, 3ecc <usbclk_set_clock_source_mainclk+0x38>
    3ec8:	bf00      	nop
    3eca:	e7f8      	b.n	3ebe <usbclk_set_clock_source_mainclk+0x2a>
    3ecc:	bd08      	pop	{r3, pc}
    3ece:	bf00      	nop
    3ed0:	400480c0 	.word	0x400480c0
    3ed4:	400480c4 	.word	0x400480c4

00003ed8 <usbclk_disable>:
    3ed8:	4b01      	ldr	r3, [pc, #4]	; (3ee0 <usbclk_disable+0x8>)
    3eda:	2200      	movs	r2, #0
    3edc:	601a      	str	r2, [r3, #0]
    3ede:	4770      	bx	lr
    3ee0:	400480c8 	.word	0x400480c8

00003ee4 <usbclk_set_divider>:
    3ee4:	4b01      	ldr	r3, [pc, #4]	; (3eec <usbclk_set_divider+0x8>)
    3ee6:	b2c0      	uxtb	r0, r0
    3ee8:	6018      	str	r0, [r3, #0]
    3eea:	4770      	bx	lr
    3eec:	400480c8 	.word	0x400480c8

00003ef0 <runcfg_irc_out_power_on>:
    3ef0:	4801      	ldr	r0, [pc, #4]	; (3ef8 <runcfg_irc_out_power_on+0x8>)
    3ef2:	2100      	movs	r1, #0
    3ef4:	f7fd b8aa 	b.w	104c <set_bit_zero>
    3ef8:	40048238 	.word	0x40048238

00003efc <runcfg_irc_out_power_off>:
    3efc:	4801      	ldr	r0, [pc, #4]	; (3f04 <runcfg_irc_out_power_off+0x8>)
    3efe:	2100      	movs	r1, #0
    3f00:	f7fd b8ac 	b.w	105c <set_bit_one>
    3f04:	40048238 	.word	0x40048238

00003f08 <runcfg_irc_power_on>:
    3f08:	4801      	ldr	r0, [pc, #4]	; (3f10 <runcfg_irc_power_on+0x8>)
    3f0a:	2101      	movs	r1, #1
    3f0c:	f7fd b89e 	b.w	104c <set_bit_zero>
    3f10:	40048238 	.word	0x40048238

00003f14 <runcfg_irc_power_off>:
    3f14:	4801      	ldr	r0, [pc, #4]	; (3f1c <runcfg_irc_power_off+0x8>)
    3f16:	2101      	movs	r1, #1
    3f18:	f7fd b8a0 	b.w	105c <set_bit_one>
    3f1c:	40048238 	.word	0x40048238

00003f20 <runcfg_flash_power_on>:
    3f20:	4801      	ldr	r0, [pc, #4]	; (3f28 <runcfg_flash_power_on+0x8>)
    3f22:	2102      	movs	r1, #2
    3f24:	f7fd b892 	b.w	104c <set_bit_zero>
    3f28:	40048238 	.word	0x40048238

00003f2c <runcfg_flash_power_off>:
    3f2c:	4801      	ldr	r0, [pc, #4]	; (3f34 <runcfg_flash_power_off+0x8>)
    3f2e:	2102      	movs	r1, #2
    3f30:	f7fd b894 	b.w	105c <set_bit_one>
    3f34:	40048238 	.word	0x40048238

00003f38 <runcfg_bod_power_on>:
    3f38:	4801      	ldr	r0, [pc, #4]	; (3f40 <runcfg_bod_power_on+0x8>)
    3f3a:	2103      	movs	r1, #3
    3f3c:	f7fd b886 	b.w	104c <set_bit_zero>
    3f40:	40048238 	.word	0x40048238

00003f44 <runcfg_bod_power_off>:
    3f44:	4801      	ldr	r0, [pc, #4]	; (3f4c <runcfg_bod_power_off+0x8>)
    3f46:	2103      	movs	r1, #3
    3f48:	f7fd b888 	b.w	105c <set_bit_one>
    3f4c:	40048238 	.word	0x40048238

00003f50 <runcfg_adc_power_on>:
    3f50:	4801      	ldr	r0, [pc, #4]	; (3f58 <runcfg_adc_power_on+0x8>)
    3f52:	2104      	movs	r1, #4
    3f54:	f7fd b87a 	b.w	104c <set_bit_zero>
    3f58:	40048238 	.word	0x40048238

00003f5c <runcfg_adc_power_off>:
    3f5c:	4801      	ldr	r0, [pc, #4]	; (3f64 <runcfg_adc_power_off+0x8>)
    3f5e:	2104      	movs	r1, #4
    3f60:	f7fd b87c 	b.w	105c <set_bit_one>
    3f64:	40048238 	.word	0x40048238

00003f68 <runcfg_sysosc_power_on>:
    3f68:	4801      	ldr	r0, [pc, #4]	; (3f70 <runcfg_sysosc_power_on+0x8>)
    3f6a:	2105      	movs	r1, #5
    3f6c:	f7fd b86e 	b.w	104c <set_bit_zero>
    3f70:	40048238 	.word	0x40048238

00003f74 <runcfg_sysosc_power_off>:
    3f74:	4801      	ldr	r0, [pc, #4]	; (3f7c <runcfg_sysosc_power_off+0x8>)
    3f76:	2105      	movs	r1, #5
    3f78:	f7fd b870 	b.w	105c <set_bit_one>
    3f7c:	40048238 	.word	0x40048238

00003f80 <runcfg_wdtosc_power_on>:
    3f80:	4801      	ldr	r0, [pc, #4]	; (3f88 <runcfg_wdtosc_power_on+0x8>)
    3f82:	2106      	movs	r1, #6
    3f84:	f7fd b862 	b.w	104c <set_bit_zero>
    3f88:	40048238 	.word	0x40048238

00003f8c <runcfg_wdtosc_power_off>:
    3f8c:	4801      	ldr	r0, [pc, #4]	; (3f94 <runcfg_wdtosc_power_off+0x8>)
    3f8e:	2106      	movs	r1, #6
    3f90:	f7fd b864 	b.w	105c <set_bit_one>
    3f94:	40048238 	.word	0x40048238

00003f98 <runcfg_syspll_power_on>:
    3f98:	4801      	ldr	r0, [pc, #4]	; (3fa0 <runcfg_syspll_power_on+0x8>)
    3f9a:	2107      	movs	r1, #7
    3f9c:	f7fd b856 	b.w	104c <set_bit_zero>
    3fa0:	40048238 	.word	0x40048238

00003fa4 <runcfg_syspll_power_off>:
    3fa4:	4801      	ldr	r0, [pc, #4]	; (3fac <runcfg_syspll_power_off+0x8>)
    3fa6:	2107      	movs	r1, #7
    3fa8:	f7fd b858 	b.w	105c <set_bit_one>
    3fac:	40048238 	.word	0x40048238

00003fb0 <runcfg_usbpll_power_on>:
    3fb0:	4801      	ldr	r0, [pc, #4]	; (3fb8 <runcfg_usbpll_power_on+0x8>)
    3fb2:	2108      	movs	r1, #8
    3fb4:	f7fd b84a 	b.w	104c <set_bit_zero>
    3fb8:	40048238 	.word	0x40048238

00003fbc <runcfg_usbpll_power_off>:
    3fbc:	4801      	ldr	r0, [pc, #4]	; (3fc4 <runcfg_usbpll_power_off+0x8>)
    3fbe:	2108      	movs	r1, #8
    3fc0:	f7fd b84c 	b.w	105c <set_bit_one>
    3fc4:	40048238 	.word	0x40048238

00003fc8 <runcfg_usbphy_power_on>:
    3fc8:	4801      	ldr	r0, [pc, #4]	; (3fd0 <runcfg_usbphy_power_on+0x8>)
    3fca:	210a      	movs	r1, #10
    3fcc:	f7fd b83e 	b.w	104c <set_bit_zero>
    3fd0:	40048238 	.word	0x40048238

00003fd4 <runcfg_usbphy_power_off>:
    3fd4:	4801      	ldr	r0, [pc, #4]	; (3fdc <runcfg_usbphy_power_off+0x8>)
    3fd6:	210a      	movs	r1, #10
    3fd8:	f7fd b840 	b.w	105c <set_bit_one>
    3fdc:	40048238 	.word	0x40048238

00003fe0 <enable_timer16>:
    3fe0:	2301      	movs	r3, #1
    3fe2:	b908      	cbnz	r0, 3fe8 <enable_timer16+0x8>
    3fe4:	4a02      	ldr	r2, [pc, #8]	; (3ff0 <enable_timer16+0x10>)
    3fe6:	e000      	b.n	3fea <enable_timer16+0xa>
    3fe8:	4a02      	ldr	r2, [pc, #8]	; (3ff4 <enable_timer16+0x14>)
    3fea:	6053      	str	r3, [r2, #4]
    3fec:	4770      	bx	lr
    3fee:	bf00      	nop
    3ff0:	4000c000 	.word	0x4000c000
    3ff4:	40010000 	.word	0x40010000

00003ff8 <init_timer16>:
    3ff8:	b988      	cbnz	r0, 401e <init_timer16+0x26>
    3ffa:	4b12      	ldr	r3, [pc, #72]	; (4044 <init_timer16+0x4c>)
    3ffc:	f8d3 2080 	ldr.w	r2, [r3, #128]	; 0x80
    4000:	f042 0280 	orr.w	r2, r2, #128	; 0x80
    4004:	f8c3 2080 	str.w	r2, [r3, #128]	; 0x80
    4008:	f5a3 3370 	sub.w	r3, r3, #245760	; 0x3c000
    400c:	2203      	movs	r2, #3
    400e:	6199      	str	r1, [r3, #24]
    4010:	615a      	str	r2, [r3, #20]
    4012:	4b0d      	ldr	r3, [pc, #52]	; (4048 <init_timer16+0x50>)
    4014:	f44f 7200 	mov.w	r2, #512	; 0x200
    4018:	f883 0329 	strb.w	r0, [r3, #809]	; 0x329
    401c:	e010      	b.n	4040 <init_timer16+0x48>
    401e:	2801      	cmp	r0, #1
    4020:	d10f      	bne.n	4042 <init_timer16+0x4a>
    4022:	4b08      	ldr	r3, [pc, #32]	; (4044 <init_timer16+0x4c>)
    4024:	f8d3 2080 	ldr.w	r2, [r3, #128]	; 0x80
    4028:	f442 7280 	orr.w	r2, r2, #256	; 0x100
    402c:	f8c3 2080 	str.w	r2, [r3, #128]	; 0x80
    4030:	f5a3 3360 	sub.w	r3, r3, #229376	; 0x38000
    4034:	2203      	movs	r2, #3
    4036:	6199      	str	r1, [r3, #24]
    4038:	615a      	str	r2, [r3, #20]
    403a:	4b03      	ldr	r3, [pc, #12]	; (4048 <init_timer16+0x50>)
    403c:	f44f 6280 	mov.w	r2, #1024	; 0x400
    4040:	605a      	str	r2, [r3, #4]
    4042:	4770      	bx	lr
    4044:	40048000 	.word	0x40048000
    4048:	e000e100 	.word	0xe000e100

0000404c <enable_timer32>:
    404c:	2301      	movs	r3, #1
    404e:	b908      	cbnz	r0, 4054 <enable_timer32+0x8>
    4050:	4a02      	ldr	r2, [pc, #8]	; (405c <enable_timer32+0x10>)
    4052:	e000      	b.n	4056 <enable_timer32+0xa>
    4054:	4a02      	ldr	r2, [pc, #8]	; (4060 <enable_timer32+0x14>)
    4056:	6053      	str	r3, [r2, #4]
    4058:	4770      	bx	lr
    405a:	bf00      	nop
    405c:	40014000 	.word	0x40014000
    4060:	40018000 	.word	0x40018000

00004064 <init_timer32>:
    4064:	b988      	cbnz	r0, 408a <init_timer32+0x26>
    4066:	4b12      	ldr	r3, [pc, #72]	; (40b0 <init_timer32+0x4c>)
    4068:	f8d3 2080 	ldr.w	r2, [r3, #128]	; 0x80
    406c:	f442 7200 	orr.w	r2, r2, #512	; 0x200
    4070:	f8c3 2080 	str.w	r2, [r3, #128]	; 0x80
    4074:	f5a3 3350 	sub.w	r3, r3, #212992	; 0x34000
    4078:	2203      	movs	r2, #3
    407a:	6199      	str	r1, [r3, #24]
    407c:	615a      	str	r2, [r3, #20]
    407e:	4b0d      	ldr	r3, [pc, #52]	; (40b4 <init_timer32+0x50>)
    4080:	f44f 6200 	mov.w	r2, #2048	; 0x800
    4084:	f883 032b 	strb.w	r0, [r3, #811]	; 0x32b
    4088:	e010      	b.n	40ac <init_timer32+0x48>
    408a:	2801      	cmp	r0, #1
    408c:	d10f      	bne.n	40ae <init_timer32+0x4a>
    408e:	4b08      	ldr	r3, [pc, #32]	; (40b0 <init_timer32+0x4c>)
    4090:	f8d3 2080 	ldr.w	r2, [r3, #128]	; 0x80
    4094:	f442 6280 	orr.w	r2, r2, #1024	; 0x400
    4098:	f8c3 2080 	str.w	r2, [r3, #128]	; 0x80
    409c:	f5a3 3340 	sub.w	r3, r3, #196608	; 0x30000
    40a0:	2203      	movs	r2, #3
    40a2:	6199      	str	r1, [r3, #24]
    40a4:	615a      	str	r2, [r3, #20]
    40a6:	4b03      	ldr	r3, [pc, #12]	; (40b4 <init_timer32+0x50>)
    40a8:	f44f 5280 	mov.w	r2, #4096	; 0x1000
    40ac:	605a      	str	r2, [r3, #4]
    40ae:	4770      	bx	lr
    40b0:	40048000 	.word	0x40048000
    40b4:	e000e100 	.word	0xe000e100

000040b8 <usbdrvrom_init_clk_pins>:
    40b8:	b508      	push	{r3, lr}
    40ba:	4b03      	ldr	r3, [pc, #12]	; (40c8 <usbdrvrom_init_clk_pins+0x10>)
    40bc:	681b      	ldr	r3, [r3, #0]
    40be:	681b      	ldr	r3, [r3, #0]
    40c0:	681b      	ldr	r3, [r3, #0]
    40c2:	4798      	blx	r3
    40c4:	bd08      	pop	{r3, pc}
    40c6:	bf00      	nop
    40c8:	1fff1ff8 	.word	0x1fff1ff8

000040cc <usbdrvrom_isr>:
    40cc:	b508      	push	{r3, lr}
    40ce:	4b03      	ldr	r3, [pc, #12]	; (40dc <usbdrvrom_isr+0x10>)
    40d0:	681b      	ldr	r3, [r3, #0]
    40d2:	681b      	ldr	r3, [r3, #0]
    40d4:	685b      	ldr	r3, [r3, #4]
    40d6:	4798      	blx	r3
    40d8:	bd08      	pop	{r3, pc}
    40da:	bf00      	nop
    40dc:	1fff1ff8 	.word	0x1fff1ff8

000040e0 <usbdrvrom_init>:
    40e0:	b508      	push	{r3, lr}
    40e2:	4b03      	ldr	r3, [pc, #12]	; (40f0 <usbdrvrom_init+0x10>)
    40e4:	681b      	ldr	r3, [r3, #0]
    40e6:	681b      	ldr	r3, [r3, #0]
    40e8:	689b      	ldr	r3, [r3, #8]
    40ea:	4798      	blx	r3
    40ec:	bd08      	pop	{r3, pc}
    40ee:	bf00      	nop
    40f0:	1fff1ff8 	.word	0x1fff1ff8

000040f4 <usbdrvrom_connect>:
    40f4:	b508      	push	{r3, lr}
    40f6:	4b03      	ldr	r3, [pc, #12]	; (4104 <usbdrvrom_connect+0x10>)
    40f8:	681b      	ldr	r3, [r3, #0]
    40fa:	681b      	ldr	r3, [r3, #0]
    40fc:	68db      	ldr	r3, [r3, #12]
    40fe:	4798      	blx	r3
    4100:	bd08      	pop	{r3, pc}
    4102:	bf00      	nop
    4104:	1fff1ff8 	.word	0x1fff1ff8

00004108 <usbdrvrom_init_connect>:
    4108:	b538      	push	{r3, r4, r5, lr}
    410a:	4c16      	ldr	r4, [pc, #88]	; (4164 <usbdrvrom_init_connect+0x5c>)
    410c:	f641 73c9 	movw	r3, #8137	; 0x1fc9
    4110:	8023      	strh	r3, [r4, #0]
    4112:	f24a 13b2 	movw	r3, #41394	; 0xa1b2
    4116:	8063      	strh	r3, [r4, #2]
    4118:	f44f 7380 	mov.w	r3, #256	; 0x100
    411c:	80a3      	strh	r3, [r4, #4]
    411e:	4b12      	ldr	r3, [pc, #72]	; (4168 <usbdrvrom_init_connect+0x60>)
    4120:	2501      	movs	r5, #1
    4122:	60a3      	str	r3, [r4, #8]
    4124:	2340      	movs	r3, #64	; 0x40
    4126:	7323      	strb	r3, [r4, #12]
    4128:	7363      	strb	r3, [r4, #13]
    412a:	4b10      	ldr	r3, [pc, #64]	; (416c <usbdrvrom_init_connect+0x64>)
    412c:	73a5      	strb	r5, [r4, #14]
    412e:	6123      	str	r3, [r4, #16]
    4130:	4b0f      	ldr	r3, [pc, #60]	; (4170 <usbdrvrom_init_connect+0x68>)
    4132:	61e4      	str	r4, [r4, #28]
    4134:	6163      	str	r3, [r4, #20]
    4136:	2303      	movs	r3, #3
    4138:	8323      	strh	r3, [r4, #24]
    413a:	f7ff fe87 	bl	3e4c <sysahbclk_iocon_enable_clock>
    413e:	f7ff fe3d 	bl	3dbc <sysahbclk_ct32b1_enable_clock>
    4142:	f7ff fe6b 	bl	3e1c <sysahbclk_usbreg_enable_clock>
    4146:	f7ff ffb7 	bl	40b8 <usbdrvrom_init_clk_pins>
    414a:	f44f 70fa 	mov.w	r0, #500	; 0x1f4
    414e:	f7fd f83d 	bl	11cc <delay_ticks>
    4152:	f104 0018 	add.w	r0, r4, #24
    4156:	f7ff ffc3 	bl	40e0 <usbdrvrom_init>
    415a:	4628      	mov	r0, r5
    415c:	e8bd 4038 	ldmia.w	sp!, {r3, r4, r5, lr}
    4160:	f7ff bfc8 	b.w	40f4 <usbdrvrom_connect>
    4164:	10000288 	.word	0x10000288
    4168:	00004b3c 	.word	0x00004b3c
    416c:	00000f9f 	.word	0x00000f9f
    4170:	00000fa1 	.word	0x00000fa1

00004174 <count_bin_files>:
    4174:	00000004                                ....

00004178 <bin_movies_a1rgb_bin>:
    4178:	00001e6b 1828e381 0cc28220 03314210     k.....(. ....B1.
    4188:	0c413008 61200604 00220806 20066480     .0A... a.."..d. 
    4198:	22080661 06648080 08034920 04184130     a.."..d. I..0A..
    41a8:	02312003 52411848 0146100c 400cc800     . 1.H.AR..F....@
    41b8:	54100692 80116483 10033240 15e48124     ...T.d..@2..$...
    41c8:	6004d920 24810c10 0591200f 14413648      ..`...$. ..H6A.
    41d8:	79200964 412a8804 208908b2 2a880479     d. y..*A... y..*
    41e8:	6f08b241 48059120 e4094136 04d92012     A..o ..H6A... ..
    41f8:	82489017 64208804 32c10c12 93a00909     ..H... d...2....
    4208:	3324c804 60123482 10880499 12348243     ..$3.4.`....C.4.
    4218:	8a049960 34824310 04930012 826024c8     `....C.4.....$`.
    4228:	8de01010 c1248004 20180932 22380484     ......$.2.. ..8"
    4238:	00091a81 08468249 080e0121 408246a0     ....I.F.!....F.@
    4248:	8291c012 82434008 96001228 5024e004     .....@C.(.....$P
    4258:	40111082 27b00490 11102201 b0049040     ...@...'."..@...
    4268:	90210127 04964011 022524e0 90801358     '.!..@...$%.X...
    4278:	48c0096c a081041c d0013418 d080280c     l..H.....4...(..
    4288:	96304007 001a1003 c00a10c2 40080362     .@0.........b..@
    4298:	0c580125 05940021 028a3000 c2001780     %.X.!....0......
    42a8:	6e800b40 37c00903 1b0ce801 0706f480     @..n...7........
    42b8:	0f007e40 fe0f00fe 00fe0f00 0f00fe0f     @~..............
    42c8:	fe0f00fe 00fe0f00 0f00fe0f f00f00fe     ................
    42d8:	e0200900 13b8011f f007cec0 18bc824b     .. .........K...
    42e8:	c007dfe0 01c0ff01 ff01c0ff c0ff01c0     ................
    42f8:	01c0ff01 ff01c0ff c0ff01c0 01c0ff01     ................
    4308:	240100fe 37e0031c c0197802 577009fe     ...$...7.x....pW
    4318:	e01b1c83 f0010e92 0c3c811b b8047fe0     ..........<.....
    4328:	0d8ec12b 03207cf0 fc0320fc 20fc0320     +....| .. .. .. 
    4338:	0320fc03 fc0320fc 20fc0320 0320fc03     .. .. .. .. .. .
    4348:	e00320fc 01001f00 07010007 00070100     . ..............
    4358:	01000701 07010007 00070100 01000701     ................
    4368:	00010007 10910400 0b048114 48047120     ............ q.H
    4378:	0d724128 01837410 00012000 20000120     (Ar..t... .. .. 
    4388:	01200001 00012000 20000120 01200001     .. .. .. .. .. .
    4398:	00012000 92000020 20900222 200e6481     . .. ...".. .d. 
    43a8:	2e080589 900ea241 00042060 20000420     ....A...` .. .. 
    43b8:	04200004 00042000 20000420 04200004     .. .. .. .. .. .
    43c8:	00042000 00000420 52404412 812c1004     . .. ....D@R..,.
    43d8:	a12011c4 4134c805 04800cd2 10048010     .. ...4A........
    43e8:	80100480 04801004 10048010 80100480     ................
    43f8:	04801004 10048010 fd200300 e4fd20e4     .......... .. ..
    4408:	20e4fd20 fd20e4fd e4fd20e4 20e4fd20      .. .. .. .. .. 
    4418:	fd20e4fd e4fd20e4 ffc70000 39ff0739     .. .. ......9..9
    4428:	0739ff07 ff0739ff 39ff0739 0739ff07     ..9..9..9..9..9.
    4438:	ff0739ff 39ff0739 0f320000 ce0f42ce     .9..9..9..2..B..
    4448:	42ce0f42 0f42ce0f ce0f42ce 42ce0f42     B..B..B..B..B..B
    4458:	0f42ce0f ce0f42ce 7f0c0040 f77f90f7     ..B..B..@.......
    4468:	90f77f90 7f90f77f f77f90f7 90f77f90     ................
    4478:	7f90f77f f77f90f7 20030090 fc20e4fc     ........... .. .
    4488:	e4fc20e4 20e4fc20 fc20e4fc e4fc20e4     . .. .. .. .. ..
    4498:	20e4fc20 fc20e4fc c80000e4 3f08393f      .. .. .....?9.?
    44a8:	393f0839 08393f08 3f08393f 393f0839     9.?9.?9.?9.?9.?9
    44b8:	08393f08 3f08393f 3f000039 ff0fceff     .?9.?9.?9..?....
    44c8:	ceff0fce 0fceff0f ff0fceff ceff0fce     ................
    44d8:	0fceff0f ff0fceff 0c2003ce 14849014     .......... .....
    44e8:	90148490 84901484 14849014 90148490     ................
    44f8:	84901484 14849014 03388790 0d616c0d     ..........8..la.
    4508:	6c0d616c 616c0d61 0d616c0d 6c0d616c     la.la.la.la.la.l
    4518:	616c0d61 0d616c0d 0000616c 43185bc3     a.la.la.la...[.C
    4528:	5b43185b 185b4318 43185b43 5b43185b     [.C[.C[.C[.C[.C[
    4538:	185b4318 43185b43 804c185b 3883801e     .C[.C[.C[.L....8
	...

0000454a <bin_movies_testfw3_bin>:
    454a:	000008b5 1848e681 18c08001 00800106     ......H.........
    455a:	80010318 01151890 0f18b081 18208101     .............. .
    456a:	30810119 80010718 010d1810 04180081     ...0............
    457a:	18a08001 c0810116 81011a18 01111840     ............@...
    458a:	0218b080 18508001 e0800108 81011718     ......P.........
    459a:	012019d0 52800918 8017c002 38a006c8     .. ....R.......8
    45aa:	900cd801 c0048c00 0b600129 500364c0     ........).`..d.P
    45ba:	06ec001c 02484048 b4001570 01330006     ....H@H.p.....3.
    45ca:	78400eb0 24202403 800a3801 1900035a     ..@x.$ $.8..Z...
    45da:	2007d880 2092013c 05a08012 88012e60     ... <.. ....`...
    45ea:	036e000d ca801ea0 50400910 0017b002     ..n.......@P....
    45fa:	378006c4 400fd001 ffffc97c ffffffff     ...7...@|.......
    460a:	ffffffff ffffffff ffffffff ffffffff     ................
    461a:	ffffffff ffffffff ff7f0080 ffffffff     ................
    462a:	ffffffff ffffffff ffffffff ffffffff     ................
    463a:	ffffffff ffffffff ff1f00e0 ffffffff     ................
    464a:	ffffffff ffffffff ffffffff ffffffff     ................
    465a:	ffffffff ffffffff 290000f8                       ...........

00004665 <bin_movies_testfw2_bin>:
    4665:	00001329 1848e681 48c08004 00800406     ).....H....H....
    4675:	80040348 04154890 0f48b081 48208104     H....H....H... H
    4685:	30810419 80040748 040d4810 04480081     ...0H....H....H.
    4695:	48a08004 c0810416 81041a48 04114840     ...H....H...@H..
    46a5:	0248b080 48508004 e0800408 81041748     ..H...PH....H...
    46b5:	042049d0 12812118 8247c008 98a01248     .I ..!....G.H...
    46c5:	9024d804 c0100c02 23600489 500924c1     ..$.......`#.$.P
    46d5:	126c024c 08060148 30824460 0492e011     L.l.H...`D.0....
    46e5:	360126a8 83002409 41223004 49f00818     .&.6.$...0"A...I
    46f5:	00135402 0092049b 11188241 78048c20     .T......A... ..x
    4705:	092a8124 49824d80 0cc12000 02469008     $.*..M.I. ....F.
    4715:	9540123c c126c004 80108424 23500487     <.@...&.$.....P#
    4725:	30092041 1364024b 08429280 28824340     A .0K.d...B.@C.(
    4735:	0490a011 32812598 2149c009 c1212004     .....%.2..I!. !.
    4745:	48d00814 c0124c02 24e00499 10108290     ...H.L.....$....
    4755:	68048ae0 09260124 70824c60 08414812     ...h$.&.`L.p.HA.
    4765:	02457008 93001234 4126b004 20240938     .pE.4.....&A8.$ 
    4775:	22380484 00091a81 13588249 92049c20     ..8"....I.X. ...
    4785:	20824220 048e6011 2e012588 824ea009      B. .`...%....N.
    4795:	41211049 47b00810 80124402 27d00497     I.!A...G.D.....'
    47a5:	10882441 580488a0 09228123 68824b40     A$.....X#.".@K.h
    47b5:	4492a013 02445008 91c0112c c125a004     ...D.PD.,.....%.
    47c5:	49d00934 22280422 e0081601 12508248     4..I".("....H.P.
    47d5:	e8049ae0 1402a124 048b0011 28412470     ....$.......p$A(
    47e5:	024d7009 9fcc1374 e7e7e7e7 e7e7e7e7     .pM.t...........
    47f5:	e7e7e7e7 e7e7e7e7 e7e7e7e7 e7e7e7e7     ................
    4805:	e7e7e7e7 0700e0e7 f9f9f9f9 f9f9f9f9     ................
    4815:	f9f9f9f9 f9f9f9f9 f9f9f9f9 f9f9f9f9     ................
    4825:	f9f9f9f9 0100f8f9 7e7e7efe 7e7e7e7e     .........~~~~~~~
    4835:	7e7e7e7e 7e7e7e7e 7e7e7e7e 7e7e7e7e     ~~~~~~~~~~~~~~~~
    4845:	7e7e7e7e 00007e7e 9f9f9f7f 9f9f9f9f     ~~~~~~..........
    4855:	9f9f9f9f 9f9f9f9f 9f9f9f9f 9f9f9f9f     ................
    4865:	9f9f9f9f 00809f9f e7e7e71f e7e7e7e7     ................
    4875:	e7e7e7e7 e7e7e7e7 e7e7e7e7 e7e7e7e7     ................
    4885:	e7e7e7e7 00e0e7e7 f9f9f907 f9f9f9f9     ................
    4895:	f9f9f9f9 f9f9f9f9 f9f9f9f9 f9f9f9f9     ................
    48a5:	f9f9f9f9 00f8f9f9 7e7efe01 7e7e7e7e     ..........~~~~~~
    48b5:	7e7e7e7e 7e7e7e7e 7e7e7e7e 7e7e7e7e     ~~~~~~~~~~~~~~~~
    48c5:	7e7e7e7e 007e7e7e 13290000                       ~~~~~~~...

000048cf <bin_movies_testfw1_bin>:
    48cf:	00001329 1848e681 08c28020 02802006     ).....H. .... ..
    48df:	80200308 20150892 0f08b281 08228120     .. .... .... .".
    48ef:	32812019 80200708 200d0812 04080281     . .2.. .... ....
    48ff:	08a28020 c2812016 81201a08 20110842      .... .... .B.. 
    490f:	0208b280 08528020 e2802008 81201708     .... .R.. .... .
    491f:	202009d2 12880119 9007c240 18a48248     ..  ....@...H...
    492f:	9004d920 c4800c10 03612009 524124c8      ........ a..$AR
    493f:	826c100c 40060848 30900462 2012e481     ..l.H..@b..0... 
    494f:	360806a9 03042441 48023120 09f24018     ...6A$.. 1.H.@..
    495f:	04835410 0292201b 81189001 79200c24     .T... ......$. y
    496f:	412a8804 49900d82 0cc80001 10069240     ..*A...I....@...
    497f:	1544823c c806c120 84808424 03512007     <.D. ...$.... Q.
    498f:	32412048 8364100b 40421284 28900342     H A2..d...B@B..(
    499f:	2010a481 32880599 2109c241 c8012120     ... ...2A..! !..
    49af:	08d24014 c4824c10 04e12019 80109090     .@...L... ......
    49bf:	69200ae4 41260804 70900c62 08484882     .. i..&Ab..p.HH.
    49cf:	10057240 13048234 4806b120 24244138     @r..4... ..H8A$$
    49df:	02392004 02411a88 83589009 92201c24     . 9...A...X.$. .
    49ef:	20900222 200e6481 2e080589 900ea241     ".. .d. ....A...
    49ff:	48011149 07b24010 84824410 07d12017     I..H.@...D... ..
    4a0f:	80882448 592008a4 41228803 68900b42     H$.... Y.."AB..h
    4a1f:	4412a483 10045240 11c4812c c805a120     ...D@R..,... ...
    4a2f:	09d24134 02292022 e2401608 82509008     4A.." )...@...P.
    4a3f:	e9201ae4 1410a104 200b0481 28480471     .. ........ q.H(
    4a4f:	100d7241 9fcc8374 07070707 07070707     Ar..t...........
    4a5f:	07070707 07070707 07070707 07070707     ................
    4a6f:	07070707 07000007 c1c1c1c1 c1c1c1c1     ................
    4a7f:	c1c1c1c1 c1c1c1c1 c1c1c1c1 c1c1c1c1     ................
    4a8f:	c1c1c1c1 0100c0c1 707070f0 70707070     .........ppppppp
    4a9f:	70707070 70707070 70707070 70707070     pppppppppppppppp
    4aaf:	70707070 00007070 1c1c1c7c 1c1c1c1c     pppppp..|.......
    4abf:	1c1c1c1c 1c1c1c1c 1c1c1c1c 1c1c1c1c     ................
    4acf:	1c1c1c1c 00001c1c 0707071f 07070707     ................
    4adf:	07070707 07070707 07070707 07070707     ................
    4aef:	07070707 00000707 c1c1c107 c1c1c1c1     ................
    4aff:	c1c1c1c1 c1c1c1c1 c1c1c1c1 c1c1c1c1     ................
    4b0f:	c1c1c1c1 00c0c1c1 7070f001 70707070     ..........pppppp
    4b1f:	70707070 70707070 70707070 70707070     pppppppppppppppp
    4b2f:	70707070 00707070 00000000 c9030400              ppppppp......

00004b3c <USB_StringDescriptor>:
    4b3c:	1fc90304 004d031c 00430049 004f0052     ......M.I.C.R.O.
    4b4c:	00520050 0047004f 004c0053 00420041     P.R.O.G.S.L.A.B.
    4b5c:	00520328 00420047 00430020 0052004f     (.R.G.B. .C.O.R.
    4b6c:	00450054 004d0058 00500020 004f0052     T.E.X.M. .P.R.O.
    4b7c:	0045004a 00540043 0052031a 00420047     J.E.C.T...R.G.B.
    4b8c:	00500043 0044002d 00410052 00540046     C.P.-.D.R.A.F.T.
    4b9c:	030e0030 00490048 00200044 00200020     0...H.I.D. . . .

00004bac <CSWTCH.1>:
    4bac:	50000000 50010000 50020000 50030000     ...P...P...P...P

00004bbc <matrix_led_off>:
    4bbc:	00002c5f 00002c4f 00002c57 00002c77     _,..O,..W,..w,..
    4bcc:	00002c67 00002c6f 00002c8f 00002c7f     g,..o,...,...,..
    4bdc:	00002c87                                .,..

00004be0 <matrix_led_on>:
    4be0:	00002bb5 00002b89 00002b9f 00002bf7     .+...+...+...+..
    4bf0:	00002bcb 00002be1 00002c39 00002c0d     .+...+..9,...,..
    4c00:	00002c23                                #,..
